---
triple:          'arm64-apple-darwin'
binary-path:     driver
relocations:
  - { offsetInCU: 0x3B, offset: 0x3B, size: 0x8, addend: 0x0, symName: _.str, symObjAddr: 0x14CC0, symBinAddr: 0x1001944E0, symSize: 0x0 }
  - { offsetInCU: 0x6B, offset: 0x6B, size: 0x8, addend: 0x0, symName: _.str.1, symObjAddr: 0x14CE0, symBinAddr: 0x100194500, symSize: 0x0 }
  - { offsetInCU: 0x88, offset: 0x88, size: 0x8, addend: 0x0, symName: _.str.2, symObjAddr: 0x14D00, symBinAddr: 0x100194520, symSize: 0x0 }
  - { offsetInCU: 0xA5, offset: 0xA5, size: 0x8, addend: 0x0, symName: _.str.3, symObjAddr: 0x14D20, symBinAddr: 0x100194540, symSize: 0x0 }
  - { offsetInCU: 0xC2, offset: 0xC2, size: 0x8, addend: 0x0, symName: _.str.4, symObjAddr: 0x14D40, symBinAddr: 0x100194560, symSize: 0x0 }
  - { offsetInCU: 0xDF, offset: 0xDF, size: 0x8, addend: 0x0, symName: _.str.5, symObjAddr: 0x14D60, symBinAddr: 0x100194580, symSize: 0x0 }
  - { offsetInCU: 0xF0, offset: 0xF0, size: 0x8, addend: 0x0, symName: _.str.6, symObjAddr: 0x14D80, symBinAddr: 0x1001945A0, symSize: 0x0 }
  - { offsetInCU: 0x101, offset: 0x101, size: 0x8, addend: 0x0, symName: _.str.7, symObjAddr: 0x14DA0, symBinAddr: 0x1001945C0, symSize: 0x0 }
  - { offsetInCU: 0x11C, offset: 0x11C, size: 0x8, addend: 0x0, symName: __ZN4Deck5cardsE, symObjAddr: 0x49B00, symBinAddr: 0x1001F54C0, symSize: 0x0 }
  - { offsetInCU: 0x5454, offset: 0x5454, size: 0x8, addend: 0x0, symName: __ZNSt3__124__put_character_sequenceB8ue170006IcNS_11char_traitsIcEEEERNS_13basic_ostreamIT_T0_EES7_PKS4_m, symObjAddr: 0x12620, symBinAddr: 0x100014684, symSize: 0x744 }
  - { offsetInCU: 0x71F2, offset: 0x71F2, size: 0x8, addend: 0x0, symName: __ZNSt3__1lsB8ue170006INS_11char_traitsIcEEEERNS_13basic_ostreamIcT_EES6_PKc, symObjAddr: 0xF7C, symBinAddr: 0x100002FE0, symSize: 0x48 }
  - { offsetInCU: 0x7238, offset: 0x7238, size: 0x8, addend: 0x0, symName: __ZNSt3__1lsB8ue170006IcNS_11char_traitsIcEENS_9allocatorIcEEEERNS_13basic_ostreamIT_T0_EES9_RKNS_12basic_stringIS6_S7_T1_EE, symObjAddr: 0xFC4, symBinAddr: 0x100003028, symSize: 0x4C }
  - { offsetInCU: 0x7290, offset: 0x7290, size: 0x8, addend: 0x0, symName: __ZNSt3__14endlB8ue170006IcNS_11char_traitsIcEEEERNS_13basic_ostreamIT_T0_EES7_, symObjAddr: 0x103C, symBinAddr: 0x1000030A0, symSize: 0xD4 }
  - { offsetInCU: 0x72D0, offset: 0x72D0, size: 0x8, addend: 0x0, symName: __ZNSt3__1neB8ue170006IPP4CardEEbRKNS_11__wrap_iterIT_EES8_, symObjAddr: 0x28E8, symBinAddr: 0x10000494C, symSize: 0x34 }
  - { offsetInCU: 0x732F, offset: 0x732F, size: 0x8, addend: 0x0, symName: __ZNSt3__118__constexpr_strlenB8ue170006EPKc, symObjAddr: 0x7290, symBinAddr: 0x1000092F4, symSize: 0x24 }
  - { offsetInCU: 0x735B, offset: 0x735B, size: 0x8, addend: 0x0, symName: __ZNSt3__112__to_addressB8ue170006IP4CardEEPT_S4_, symObjAddr: 0x7F14, symBinAddr: 0x100009F78, symSize: 0x14 }
  - { offsetInCU: 0x73B5, offset: 0x73B5, size: 0x8, addend: 0x0, symName: __ZNSt3__112construct_atB8ue170006IP4CardJS2_EPS2_EEPT_S5_DpOT0_, symObjAddr: 0x83D4, symBinAddr: 0x10000A438, symSize: 0xB8 }
  - { offsetInCU: 0x7425, offset: 0x7425, size: 0x8, addend: 0x0, symName: __ZNSt3__13maxB8ue170006ImEERKT_S3_S3_, symObjAddr: 0x9480, symBinAddr: 0x10000B4E4, symSize: 0x2C }
  - { offsetInCU: 0x7468, offset: 0x7468, size: 0x8, addend: 0x0, symName: __ZNSt3__13minB8ue170006ImEERKT_S3_S3_, symObjAddr: 0x94AC, symBinAddr: 0x10000B510, symSize: 0x2C }
  - { offsetInCU: 0x7695, offset: 0x7695, size: 0x8, addend: 0x0, symName: __ZNSt3__13minB8ue170006ImNS_6__lessIvvEEEERKT_S5_S5_T0_, symObjAddr: 0x953C, symBinAddr: 0x10000B5A0, symSize: 0x1E8 }
  - { offsetInCU: 0x7926, offset: 0x7926, size: 0x8, addend: 0x0, symName: __ZNSt3__120__throw_length_errorB8ue170006EPKc, symObjAddr: 0x983C, symBinAddr: 0x10000B8A0, symSize: 0x68 }
  - { offsetInCU: 0x7950, offset: 0x7950, size: 0x8, addend: 0x0, symName: __ZNSt3__13maxB8ue170006ImNS_6__lessIvvEEEERKT_S5_S5_T0_, symObjAddr: 0x9964, symBinAddr: 0x10000B9C8, symSize: 0x1E8 }
  - { offsetInCU: 0x79B0, offset: 0x79B0, size: 0x8, addend: 0x0, symName: __ZNSt3__119__allocate_at_leastB8ue170006INS_9allocatorIP4CardEEEENS_19__allocation_resultINS_16allocator_traitsIT_E7pointerEEERS7_m, symObjAddr: 0xA0A8, symBinAddr: 0x10000C10C, symSize: 0x28C }
  - { offsetInCU: 0x79F5, offset: 0x79F5, size: 0x8, addend: 0x0, symName: __ZNSt3__117__libcpp_allocateB8ue170006Emm, symObjAddr: 0xA4D0, symBinAddr: 0x10000C534, symSize: 0x60 }
  - { offsetInCU: 0x7A4F, offset: 0x7A4F, size: 0x8, addend: 0x0, symName: __ZNSt3__124__is_overaligned_for_newB8ue170006Em, symObjAddr: 0xA530, symBinAddr: 0x10000C594, symSize: 0x20 }
  - { offsetInCU: 0x7A7D, offset: 0x7A7D, size: 0x8, addend: 0x0, symName: __ZNSt3__121__libcpp_operator_newB8ue170006IJmSt11align_val_tEEEPvDpT_, symObjAddr: 0xA550, symBinAddr: 0x10000C5B4, symSize: 0x2C }
  - { offsetInCU: 0x7ACA, offset: 0x7ACA, size: 0x8, addend: 0x0, symName: __ZNSt3__121__libcpp_operator_newB8ue170006IJmEEEPvDpT_, symObjAddr: 0xA57C, symBinAddr: 0x10000C5E0, symSize: 0x24 }
  - { offsetInCU: 0x7B03, offset: 0x7B03, size: 0x8, addend: 0x0, symName: __ZNSt3__142__uninitialized_allocator_move_if_noexceptB8ue170006INS_9allocatorIP4CardEENS_16reverse_iteratorIPS3_EES7_S3_vEET1_RT_T0_SB_S8_, symObjAddr: 0xA718, symBinAddr: 0x10000C77C, symSize: 0x4A8 }
  - { offsetInCU: 0x7B8D, offset: 0x7B8D, size: 0x8, addend: 0x0, symName: __ZNSt3__14swapB8ue170006IPP4CardEENS_9enable_ifIXaasr21is_move_constructibleIT_EE5valuesr18is_move_assignableIS5_EE5valueEvE4typeERS5_S8_, symObjAddr: 0xAC58, symBinAddr: 0x10000CCBC, symSize: 0x134 }
  - { offsetInCU: 0x7BDE, offset: 0x7BDE, size: 0x8, addend: 0x0, symName: __ZNSt3__14moveB8ue170006INS_16reverse_iteratorIPP4CardEES5_EET0_T_S7_S6_, symObjAddr: 0xAE4C, symBinAddr: 0x10000CEB0, symSize: 0x4B0 }
  - { offsetInCU: 0x7C45, offset: 0x7C45, size: 0x8, addend: 0x0, symName: __ZNSt3__16__moveB8ue170006INS_17_ClassicAlgPolicyENS_16reverse_iteratorIPP4CardEES6_S6_EENS_4pairIT0_T2_EES8_T1_S9_, symObjAddr: 0xB2FC, symBinAddr: 0x10000D360, symSize: 0x424 }
  - { offsetInCU: 0x7CBD, offset: 0x7CBD, size: 0x8, addend: 0x0, symName: __ZNSt3__123__dispatch_copy_or_moveB8ue170006INS_17_ClassicAlgPolicyENS_11__move_loopIS1_EENS_14__move_trivialENS_16reverse_iteratorIPP4CardEES9_S9_EENS_4pairIT2_T4_EESB_T3_SC_, symObjAddr: 0xB720, symBinAddr: 0x10000D784, symSize: 0x424 }
  - { offsetInCU: 0x7D47, offset: 0x7D47, size: 0x8, addend: 0x0, symName: __ZNSt3__121__unwrap_and_dispatchB8ue170006INS_10__overloadINS_11__move_loopINS_17_ClassicAlgPolicyEEENS_14__move_trivialEEENS_16reverse_iteratorIPP4CardEESB_SB_Li0EEENS_4pairIT0_T2_EESD_T1_SE_, symObjAddr: 0xBB44, symBinAddr: 0x10000DBA8, symSize: 0x880 }
  - { offsetInCU: 0x7DEB, offset: 0x7DEB, size: 0x8, addend: 0x0, symName: __ZNSt3__114__unwrap_rangeB8ue170006INS_16reverse_iteratorIPP4CardEES5_EEDaT_T0_, symObjAddr: 0xC3C4, symBinAddr: 0x10000E428, symSize: 0x35C }
  - { offsetInCU: 0x7F6E, offset: 0x7F6E, size: 0x8, addend: 0x0, symName: __ZNSt3__113__unwrap_iterB8ue170006INS_16reverse_iteratorIPP4CardEENS_18__unwrap_iter_implIS5_Lb0EEELi0EEEDTclsrT0_8__unwrapclsr3stdE7declvalIT_EEEES9_, symObjAddr: 0xCAC8, symBinAddr: 0x10000EB2C, symSize: 0x2EC }
  - { offsetInCU: 0x7FB6, offset: 0x7FB6, size: 0x8, addend: 0x0, symName: __ZNSt3__19make_pairB8ue170006INS_16reverse_iteratorIPP4CardEES5_EENS_4pairINS_18__unwrap_ref_decayIT_E4typeENS7_IT0_E4typeEEEOS8_OSB_, symObjAddr: 0xCDB4, symBinAddr: 0x10000EE18, symSize: 0x38 }
  - { offsetInCU: 0x8005, offset: 0x8005, size: 0x8, addend: 0x0, symName: __ZNSt3__114__rewrap_rangeB8ue170006INS_16reverse_iteratorIPP4CardEES5_S5_EET0_S6_T1_, symObjAddr: 0xCDEC, symBinAddr: 0x10000EE50, symSize: 0x3D4 }
  - { offsetInCU: 0x8062, offset: 0x8062, size: 0x8, addend: 0x0, symName: __ZNSt3__113__rewrap_iterB8ue170006INS_16reverse_iteratorIPP4CardEES5_NS_18__unwrap_iter_implIS5_Lb0EEEEET_S8_T0_, symObjAddr: 0xD1C0, symBinAddr: 0x10000F224, symSize: 0x3E8 }
  - { offsetInCU: 0x810F, offset: 0x810F, size: 0x8, addend: 0x0, symName: __ZNSt3__1neB8ue170006IPP4CardS3_EEbRKNS_16reverse_iteratorIT_EERKNS4_IT0_EE, symObjAddr: 0xDA80, symBinAddr: 0x10000FAE4, symSize: 0x48 }
  - { offsetInCU: 0x820D, offset: 0x820D, size: 0x8, addend: 0x0, symName: __ZNSt3__110destroy_atB8ue170006IP4CardLi0EEEvPT_, symObjAddr: 0xE970, symBinAddr: 0x1000109D4, symSize: 0x24 }
  - { offsetInCU: 0x8244, offset: 0x8244, size: 0x8, addend: 0x0, symName: __ZNSt3__112__destroy_atB8ue170006IP4CardLi0EEEvPT_, symObjAddr: 0xE994, symBinAddr: 0x1000109F8, symSize: 0x10 }
  - { offsetInCU: 0x827B, offset: 0x827B, size: 0x8, addend: 0x0, symName: __ZNSt3__119__libcpp_deallocateB8ue170006EPvmm, symObjAddr: 0xE9F0, symBinAddr: 0x100010A54, symSize: 0x60 }
  - { offsetInCU: 0x82E0, offset: 0x82E0, size: 0x8, addend: 0x0, symName: __ZNSt3__127__do_deallocate_handle_sizeB8ue170006IJSt11align_val_tEEEvPvmDpT_, symObjAddr: 0xEA50, symBinAddr: 0x100010AB4, symSize: 0x30 }
  - { offsetInCU: 0x8333, offset: 0x8333, size: 0x8, addend: 0x0, symName: __ZNSt3__127__do_deallocate_handle_sizeB8ue170006IJEEEvPvmDpT_, symObjAddr: 0xEA80, symBinAddr: 0x100010AE4, symSize: 0x28 }
  - { offsetInCU: 0x8371, offset: 0x8371, size: 0x8, addend: 0x0, symName: __ZNSt3__124__libcpp_operator_deleteB8ue170006IJPvSt11align_val_tEEEvDpT_, symObjAddr: 0xEAA8, symBinAddr: 0x100010B0C, symSize: 0x2C }
  - { offsetInCU: 0x83BA, offset: 0x83BA, size: 0x8, addend: 0x0, symName: __ZNSt3__124__libcpp_operator_deleteB8ue170006IJPvEEEvDpT_, symObjAddr: 0xEAD4, symBinAddr: 0x100010B38, symSize: 0x24 }
  - { offsetInCU: 0x83EF, offset: 0x83EF, size: 0x8, addend: 0x0, symName: __ZNSt3__1eqB8ue170006IPP4CardEEbRKNS_11__wrap_iterIT_EES8_, symObjAddr: 0xEDE4, symBinAddr: 0x100010E48, symSize: 0x48 }
  - { offsetInCU: 0x8432, offset: 0x8432, size: 0x8, addend: 0x0, symName: __ZNSt3__112construct_atB8ue170006IP4CardJRKS2_EPS2_EEPT_S7_DpOT0_, symObjAddr: 0xFC24, symBinAddr: 0x100011C88, symSize: 0xB8 }
  - { offsetInCU: 0x84A2, offset: 0x84A2, size: 0x8, addend: 0x0, symName: __ZNSt3__1miB8ue170006IPKP4CardS4_EEDTmicldtfp_4baseEcldtfp0_4baseEERKNS_11__wrap_iterIT_EERKNS6_IT0_EE, symObjAddr: 0xFCDC, symBinAddr: 0x100011D40, symSize: 0x48 }
  - { offsetInCU: 0x84EE, offset: 0x84EE, size: 0x8, addend: 0x0, symName: __ZNSt3__14moveB8ue170006IPP4CardS3_EET0_T_S5_S4_, symObjAddr: 0xFFA4, symBinAddr: 0x100012008, symSize: 0x26C }
  - { offsetInCU: 0x854B, offset: 0x854B, size: 0x8, addend: 0x0, symName: __ZNSt3__16__moveB8ue170006INS_17_ClassicAlgPolicyEPP4CardS4_S4_EENS_4pairIT0_T2_EES6_T1_S7_, symObjAddr: 0x10778, symBinAddr: 0x1000127DC, symSize: 0x22C }
  - { offsetInCU: 0x85BA, offset: 0x85BA, size: 0x8, addend: 0x0, symName: __ZNSt3__123__dispatch_copy_or_moveB8ue170006INS_17_ClassicAlgPolicyENS_11__move_loopIS1_EENS_14__move_trivialEPP4CardS7_S7_EENS_4pairIT2_T4_EES9_T3_SA_, symObjAddr: 0x109A4, symBinAddr: 0x100012A08, symSize: 0x22C }
  - { offsetInCU: 0x863B, offset: 0x863B, size: 0x8, addend: 0x0, symName: __ZNSt3__121__unwrap_and_dispatchB8ue170006INS_10__overloadINS_11__move_loopINS_17_ClassicAlgPolicyEEENS_14__move_trivialEEEPP4CardS9_S9_Li0EEENS_4pairIT0_T2_EESB_T1_SC_, symObjAddr: 0x10BD0, symBinAddr: 0x100012C34, symSize: 0x5A4 }
  - { offsetInCU: 0x86D4, offset: 0x86D4, size: 0x8, addend: 0x0, symName: __ZNSt3__114__unwrap_rangeB8ue170006IPP4CardS3_EEDaT_T0_, symObjAddr: 0x11174, symBinAddr: 0x1000131D8, symSize: 0x224 }
  - { offsetInCU: 0x886B, offset: 0x886B, size: 0x8, addend: 0x0, symName: __ZNSt3__113__unwrap_iterB8ue170006IPP4CardNS_18__unwrap_iter_implIS3_Lb1EEELi0EEEDTclsrT0_8__unwrapclsr3stdE7declvalIT_EEEES7_, symObjAddr: 0x115C8, symBinAddr: 0x10001362C, symSize: 0x24 }
  - { offsetInCU: 0x88AF, offset: 0x88AF, size: 0x8, addend: 0x0, symName: __ZNSt3__19make_pairB8ue170006IPP4CardS3_EENS_4pairINS_18__unwrap_ref_decayIT_E4typeENS5_IT0_E4typeEEEOS6_OS9_, symObjAddr: 0x115EC, symBinAddr: 0x100013650, symSize: 0x20C }
  - { offsetInCU: 0x8900, offset: 0x8900, size: 0x8, addend: 0x0, symName: __ZNSt3__114__rewrap_rangeB8ue170006IPP4CardS3_S3_EET0_S4_T1_, symObjAddr: 0x117F8, symBinAddr: 0x10001385C, symSize: 0x2C }
  - { offsetInCU: 0x8955, offset: 0x8955, size: 0x8, addend: 0x0, symName: __ZNSt3__113__rewrap_iterB8ue170006IPP4CardS3_NS_18__unwrap_iter_implIS3_Lb1EEEEET_S6_T0_, symObjAddr: 0x11824, symBinAddr: 0x100013888, symSize: 0x48 }
  - { offsetInCU: 0x89FA, offset: 0x89FA, size: 0x8, addend: 0x0, symName: __ZNSt3__119__copy_trivial_implB8ue170006IP4CardS2_EENS_4pairIPT_PT0_EES5_S5_S7_, symObjAddr: 0x11CEC, symBinAddr: 0x100013D50, symSize: 0x3B4 }
  - { offsetInCU: 0x8A69, offset: 0x8A69, size: 0x8, addend: 0x0, symName: __ZNSt3__119__constexpr_memmoveB8ue170006IP4CardS2_Li0EEEPT_S4_PT0_NS_15__element_countE, symObjAddr: 0x120A0, symBinAddr: 0x100014104, symSize: 0x64 }
  - { offsetInCU: 0x8AD7, offset: 0x8AD7, size: 0x8, addend: 0x0, symName: __ZNSt3__19make_pairB8ue170006IRPP4CardS3_EENS_4pairINS_18__unwrap_ref_decayIT_E4typeENS6_IT0_E4typeEEEOS7_OSA_, symObjAddr: 0x12104, symBinAddr: 0x100014168, symSize: 0x20C }
  - { offsetInCU: 0x8B7B, offset: 0x8B7B, size: 0x8, addend: 0x0, symName: __ZNSt3__116__pad_and_outputB8ue170006IcNS_11char_traitsIcEEEENS_19ostreambuf_iteratorIT_T0_EES6_PKS4_S8_S8_RNS_8ios_baseES4_, symObjAddr: 0x12DEC, symBinAddr: 0x100014E50, symSize: 0x760 }
  - { offsetInCU: 0x8C58, offset: 0x8C58, size: 0x8, addend: 0x0, symName: __ZNSt3__112__to_addressB8ue170006IcEEPT_S2_, symObjAddr: 0x13C88, symBinAddr: 0x100015CEC, symSize: 0x14 }
  - { offsetInCU: 0x8C8D, offset: 0x8C8D, size: 0x8, addend: 0x0, symName: __ZNSt3__19use_facetB8ue170006INS_5ctypeIcEEEERKT_RKNS_6localeE, symObjAddr: 0x14314, symBinAddr: 0x100016378, symSize: 0x2C }
  - { offsetInCU: 0x915A, offset: 0x915A, size: 0x8, addend: 0x0, symName: __ZNSt3__112__to_addressB8ue170006IKcEEPT_S3_, symObjAddr: 0x14514, symBinAddr: 0x100016578, symSize: 0x14 }
  - { offsetInCU: 0x943E, offset: 0x943E, size: 0x8, addend: 0x0, symName: __ZSt28__throw_bad_array_new_lengthB8ue170006v, symObjAddr: 0xA498, symBinAddr: 0x10000C4FC, symSize: 0x38 }
  - { offsetInCU: 0x991D, offset: 0x991D, size: 0x8, addend: 0x0, symName: _.str.8, symObjAddr: 0x14DC0, symBinAddr: 0x1001945E0, symSize: 0x0 }
  - { offsetInCU: 0x993A, offset: 0x993A, size: 0x8, addend: 0x0, symName: _.str.9, symObjAddr: 0x14E00, symBinAddr: 0x100194620, symSize: 0x0 }
  - { offsetInCU: 0x994B, offset: 0x994B, size: 0x8, addend: 0x0, symName: _.str.10, symObjAddr: 0x14E20, symBinAddr: 0x100194640, symSize: 0x0 }
  - { offsetInCU: 0x9968, offset: 0x9968, size: 0x8, addend: 0x0, symName: _.str.11, symObjAddr: 0x14E60, symBinAddr: 0x100194680, symSize: 0x0 }
  - { offsetInCU: 0x9985, offset: 0x9985, size: 0x8, addend: 0x0, symName: _.str.12, symObjAddr: 0x14EC0, symBinAddr: 0x1001946E0, symSize: 0x0 }
  - { offsetInCU: 0x99A2, offset: 0x99A2, size: 0x8, addend: 0x0, symName: _.str.13, symObjAddr: 0x14EE0, symBinAddr: 0x100194700, symSize: 0x0 }
  - { offsetInCU: 0x99BF, offset: 0x99BF, size: 0x8, addend: 0x0, symName: _.str.14, symObjAddr: 0x14F00, symBinAddr: 0x100194720, symSize: 0x0 }
  - { offsetInCU: 0x99D0, offset: 0x99D0, size: 0x8, addend: 0x0, symName: _.str.15, symObjAddr: 0x14F20, symBinAddr: 0x100194740, symSize: 0x0 }
  - { offsetInCU: 0x99ED, offset: 0x99ED, size: 0x8, addend: 0x0, symName: _.str.16, symObjAddr: 0x14F40, symBinAddr: 0x100194760, symSize: 0x0 }
  - { offsetInCU: 0x9A0A, offset: 0x9A0A, size: 0x8, addend: 0x0, symName: _.str.17, symObjAddr: 0x14F60, symBinAddr: 0x100194780, symSize: 0x0 }
  - { offsetInCU: 0x9A1B, offset: 0x9A1B, size: 0x8, addend: 0x0, symName: _.str.18, symObjAddr: 0x14F80, symBinAddr: 0x1001947A0, symSize: 0x0 }
  - { offsetInCU: 0x9A38, offset: 0x9A38, size: 0x8, addend: 0x0, symName: _.str.19, symObjAddr: 0x14FA0, symBinAddr: 0x1001947C0, symSize: 0x0 }
  - { offsetInCU: 0x9A55, offset: 0x9A55, size: 0x8, addend: 0x0, symName: _.str.20, symObjAddr: 0x15000, symBinAddr: 0x100194820, symSize: 0x0 }
  - { offsetInCU: 0x9A66, offset: 0x9A66, size: 0x8, addend: 0x0, symName: _.str.21, symObjAddr: 0x15060, symBinAddr: 0x100194880, symSize: 0x0 }
  - { offsetInCU: 0x9A85, offset: 0x9A85, size: 0x8, addend: 0x0, symName: _.str.22, symObjAddr: 0x150C0, symBinAddr: 0x1001948E0, symSize: 0x0 }
  - { offsetInCU: 0x9BE5, offset: 0x9BE5, size: 0x8, addend: 0x0, symName: __ZNSt3__16vectorIP4CardNS_9allocatorIS2_EEE26__swap_out_circular_bufferERNS_14__split_bufferIS2_RS4_EE, symObjAddr: 0x8BCC, symBinAddr: 0x10000AC30, symSize: 0x56C }
  - { offsetInCU: 0xC0DD, offset: 0xC0DD, size: 0x8, addend: 0x0, symName: __ZN4CardC2ERK8CardType, symObjAddr: 0x0, symBinAddr: 0x100002064, symSize: 0x1F4 }
  - { offsetInCU: 0xC117, offset: 0xC117, size: 0x8, addend: 0x0, symName: __ZN4CardC1ERK8CardType, symObjAddr: 0x1F4, symBinAddr: 0x100002258, symSize: 0x34 }
  - { offsetInCU: 0xC151, offset: 0xC151, size: 0x8, addend: 0x0, symName: __ZN4CardC2ERKS_, symObjAddr: 0x228, symBinAddr: 0x10000228C, symSize: 0x2D8 }
  - { offsetInCU: 0xC18B, offset: 0xC18B, size: 0x8, addend: 0x0, symName: __ZN4CardC1ERKS_, symObjAddr: 0x500, symBinAddr: 0x100002564, symSize: 0x34 }
  - { offsetInCU: 0xC1C5, offset: 0xC1C5, size: 0x8, addend: 0x0, symName: __ZN4CardD2Ev, symObjAddr: 0x534, symBinAddr: 0x100002598, symSize: 0xEC }
  - { offsetInCU: 0xC1F1, offset: 0xC1F1, size: 0x8, addend: 0x0, symName: __ZN4CardD1Ev, symObjAddr: 0x620, symBinAddr: 0x100002684, symSize: 0x2C }
  - { offsetInCU: 0xC21D, offset: 0xC21D, size: 0x8, addend: 0x0, symName: __ZN4CardaSERKS_, symObjAddr: 0x64C, symBinAddr: 0x1000026B0, symSize: 0x3A8 }
  - { offsetInCU: 0xC253, offset: 0xC253, size: 0x8, addend: 0x0, symName: __ZNK4Card7getTypeEv, symObjAddr: 0x9F4, symBinAddr: 0x100002A58, symSize: 0x178 }
  - { offsetInCU: 0xC280, offset: 0xC280, size: 0x8, addend: 0x0, symName: __ZNSt3__112basic_stringIcNS_11char_traitsIcEENS_9allocatorIcEEEC1B8ue170006ILi0EEEPKc, symObjAddr: 0xB80, symBinAddr: 0x100002BE4, symSize: 0x34 }
  - { offsetInCU: 0xC2BF, offset: 0xC2BF, size: 0x8, addend: 0x0, symName: __ZN4Card4playEv, symObjAddr: 0xBB4, symBinAddr: 0x100002C18, symSize: 0x3C8 }
  - { offsetInCU: 0xC2E8, offset: 0xC2E8, size: 0x8, addend: 0x0, symName: __ZNSt3__113basic_ostreamIcNS_11char_traitsIcEEElsB8ue170006EPFRS3_S4_E, symObjAddr: 0x1010, symBinAddr: 0x100003074, symSize: 0x2C }
  - { offsetInCU: 0xC31C, offset: 0xC31C, size: 0x8, addend: 0x0, symName: __ZN4Card9markTakenEv, symObjAddr: 0x1110, symBinAddr: 0x100003174, symSize: 0xC4 }
  - { offsetInCU: 0xC344, offset: 0xC344, size: 0x8, addend: 0x0, symName: __ZN4Card13markAvailableEv, symObjAddr: 0x11D4, symBinAddr: 0x100003238, symSize: 0xC8 }
  - { offsetInCU: 0xC36C, offset: 0xC36C, size: 0x8, addend: 0x0, symName: __ZNK4Card15isCardAvailableEv, symObjAddr: 0x129C, symBinAddr: 0x100003300, symSize: 0xC8 }
  - { offsetInCU: 0xC394, offset: 0xC394, size: 0x8, addend: 0x0, symName: __ZNSt3__16vectorIP4CardNS_9allocatorIS2_EEEC1B8ue170006Ev, symObjAddr: 0x1364, symBinAddr: 0x1000033C8, symSize: 0x2C }
  - { offsetInCU: 0xC3BE, offset: 0xC3BE, size: 0x8, addend: 0x0, symName: __ZN4DeckC2Ev, symObjAddr: 0x1390, symBinAddr: 0x1000033F4, symSize: 0xB50 }
  - { offsetInCU: 0xC400, offset: 0xC400, size: 0x8, addend: 0x0, symName: __ZNSt3__16vectorIP4CardNS_9allocatorIS2_EEE9push_backB8ue170006EOS2_, symObjAddr: 0x1EE0, symBinAddr: 0x100003F44, symSize: 0xE0 }
  - { offsetInCU: 0xC437, offset: 0xC437, size: 0x8, addend: 0x0, symName: __ZN4DeckC1Ev, symObjAddr: 0x1FC0, symBinAddr: 0x100004024, symSize: 0x2C }
  - { offsetInCU: 0xC463, offset: 0xC463, size: 0x8, addend: 0x0, symName: __ZN4DeckD2Ev, symObjAddr: 0x1FEC, symBinAddr: 0x100004050, symSize: 0x428 }
  - { offsetInCU: 0xC4EB, offset: 0xC4EB, size: 0x8, addend: 0x0, symName: __ZNSt3__16vectorIP4CardNS_9allocatorIS2_EEE5beginB8ue170006Ev, symObjAddr: 0x2414, symBinAddr: 0x100004478, symSize: 0x268 }
  - { offsetInCU: 0xC514, offset: 0xC514, size: 0x8, addend: 0x0, symName: __ZNSt3__16vectorIP4CardNS_9allocatorIS2_EEE3endB8ue170006Ev, symObjAddr: 0x267C, symBinAddr: 0x1000046E0, symSize: 0x26C }
  - { offsetInCU: 0xC53D, offset: 0xC53D, size: 0x8, addend: 0x0, symName: __ZNKSt3__111__wrap_iterIPP4CardEdeB8ue170006Ev, symObjAddr: 0x291C, symBinAddr: 0x100004980, symSize: 0x60 }
  - { offsetInCU: 0xC563, offset: 0xC563, size: 0x8, addend: 0x0, symName: __ZNSt3__111__wrap_iterIPP4CardEppB8ue170006Ev, symObjAddr: 0x297C, symBinAddr: 0x1000049E0, symSize: 0x68 }
  - { offsetInCU: 0xC589, offset: 0xC589, size: 0x8, addend: 0x0, symName: __ZNSt3__16vectorIP4CardNS_9allocatorIS2_EEED1B8ue170006Ev, symObjAddr: 0x29E4, symBinAddr: 0x100004A48, symSize: 0x2C }
  - { offsetInCU: 0xC5B3, offset: 0xC5B3, size: 0x8, addend: 0x0, symName: __ZN4DeckD1Ev, symObjAddr: 0x2A10, symBinAddr: 0x100004A74, symSize: 0x2C }
  - { offsetInCU: 0xC5DF, offset: 0xC5DF, size: 0x8, addend: 0x0, symName: __ZN4Deck5resetEv, symObjAddr: 0x2A3C, symBinAddr: 0x100004AA0, symSize: 0xD78 }
  - { offsetInCU: 0xC678, offset: 0xC678, size: 0x8, addend: 0x0, symName: __ZNSt3__16vectorIP4CardNS_9allocatorIS2_EEE5clearB8ue170006Ev, symObjAddr: 0x37B4, symBinAddr: 0x100005818, symSize: 0x44 }
  - { offsetInCU: 0xC6AD, offset: 0xC6AD, size: 0x8, addend: 0x0, symName: __ZN4Deck4drawEv, symObjAddr: 0x37F8, symBinAddr: 0x10000585C, symSize: 0x654 }
  - { offsetInCU: 0xC754, offset: 0xC754, size: 0x8, addend: 0x0, symName: __ZNSt3__16vectorIP4CardNS_9allocatorIS2_EEE9push_backB8ue170006ERKS2_, symObjAddr: 0x3E4C, symBinAddr: 0x100005EB0, symSize: 0xE0 }
  - { offsetInCU: 0xC78B, offset: 0xC78B, size: 0x8, addend: 0x0, symName: __ZNKSt3__16vectorIP4CardNS_9allocatorIS2_EEE5emptyB8ue170006Ev, symObjAddr: 0x3F2C, symBinAddr: 0x100005F90, symSize: 0xB0 }
  - { offsetInCU: 0xC7B1, offset: 0xC7B1, size: 0x8, addend: 0x0, symName: __ZNKSt3__16vectorIP4CardNS_9allocatorIS2_EEE4sizeB8ue170006Ev, symObjAddr: 0x3FDC, symBinAddr: 0x100006040, symSize: 0xB0 }
  - { offsetInCU: 0xC7D7, offset: 0xC7D7, size: 0x8, addend: 0x0, symName: __ZNSt3__16vectorIP4CardNS_9allocatorIS2_EEEixB8ue170006Em, symObjAddr: 0x408C, symBinAddr: 0x1000060F0, symSize: 0x6C }
  - { offsetInCU: 0xC80E, offset: 0xC80E, size: 0x8, addend: 0x0, symName: __ZN4Deck10returnCardEP4Card, symObjAddr: 0x40F8, symBinAddr: 0x10000615C, symSize: 0x328 }
  - { offsetInCU: 0xC834, offset: 0xC834, size: 0x8, addend: 0x0, symName: __ZN4Deck8showDeckEv, symObjAddr: 0x4420, symBinAddr: 0x100006484, symSize: 0x56C }
  - { offsetInCU: 0xC996, offset: 0xC996, size: 0x8, addend: 0x0, symName: __ZN4HandC2Ev, symObjAddr: 0x498C, symBinAddr: 0x1000069F0, symSize: 0x80 }
  - { offsetInCU: 0xC9C2, offset: 0xC9C2, size: 0x8, addend: 0x0, symName: __ZN4HandC1Ev, symObjAddr: 0x4A0C, symBinAddr: 0x100006A70, symSize: 0x2C }
  - { offsetInCU: 0xC9EE, offset: 0xC9EE, size: 0x8, addend: 0x0, symName: __ZN4HandC2ERKS_, symObjAddr: 0x4A38, symBinAddr: 0x100006A9C, symSize: 0x464 }
  - { offsetInCU: 0xCA88, offset: 0xCA88, size: 0x8, addend: 0x0, symName: __ZN4HandC1ERKS_, symObjAddr: 0x4E9C, symBinAddr: 0x100006F00, symSize: 0x34 }
  - { offsetInCU: 0xCAC2, offset: 0xCAC2, size: 0x8, addend: 0x0, symName: __ZN4HandD2Ev, symObjAddr: 0x4ED0, symBinAddr: 0x100006F34, symSize: 0x10C }
  - { offsetInCU: 0xCAEE, offset: 0xCAEE, size: 0x8, addend: 0x0, symName: __ZN4HandD1Ev, symObjAddr: 0x4FDC, symBinAddr: 0x100007040, symSize: 0x2C }
  - { offsetInCU: 0xCB1A, offset: 0xCB1A, size: 0x8, addend: 0x0, symName: __ZN4HandaSERKS_, symObjAddr: 0x5008, symBinAddr: 0x10000706C, symSize: 0x460 }
  - { offsetInCU: 0xCBB0, offset: 0xCBB0, size: 0x8, addend: 0x0, symName: __ZN4Hand7addCardEP4Card, symObjAddr: 0x5468, symBinAddr: 0x1000074CC, symSize: 0x42C }
  - { offsetInCU: 0xCBEB, offset: 0xCBEB, size: 0x8, addend: 0x0, symName: __ZN4Hand8playCardEi, symObjAddr: 0x5894, symBinAddr: 0x1000078F8, symSize: 0x524 }
  - { offsetInCU: 0xCC40, offset: 0xCC40, size: 0x8, addend: 0x0, symName: __ZNSt3__16vectorIP4CardNS_9allocatorIS2_EEE5eraseB8ue170006ENS_11__wrap_iterIPKS2_EE, symObjAddr: 0x5DB8, symBinAddr: 0x100007E1C, symSize: 0x3F0 }
  - { offsetInCU: 0xCC9C, offset: 0xCC9C, size: 0x8, addend: 0x0, symName: __ZNKSt3__111__wrap_iterIPP4CardEplB8ue170006El, symObjAddr: 0x61A8, symBinAddr: 0x10000820C, symSize: 0x20C }
  - { offsetInCU: 0xCCEE, offset: 0xCCEE, size: 0x8, addend: 0x0, symName: __ZNSt3__111__wrap_iterIPKP4CardEC1B8ue170006IPS2_EERKNS0_IT_EEPNS_9enable_ifIXsr14is_convertibleIS8_S4_EE5valueEvE4typeE, symObjAddr: 0x63B4, symBinAddr: 0x100008418, symSize: 0x3C }
  - { offsetInCU: 0xCD3A, offset: 0xCD3A, size: 0x8, addend: 0x0, symName: __ZNK4Hand12getCardCountEv, symObjAddr: 0x63F0, symBinAddr: 0x100008454, symSize: 0x64 }
  - { offsetInCU: 0xCD62, offset: 0xCD62, size: 0x8, addend: 0x0, symName: __ZNK4Hand8showHandEv, symObjAddr: 0x6454, symBinAddr: 0x1000084B8, symSize: 0x508 }
  - { offsetInCU: 0xCDD6, offset: 0xCDD6, size: 0x8, addend: 0x0, symName: __ZNK4Hand8getCardsEv, symObjAddr: 0x695C, symBinAddr: 0x1000089C0, symSize: 0x60 }
  - { offsetInCU: 0xCDFE, offset: 0xCDFE, size: 0x8, addend: 0x0, symName: __ZNK4Hand7getCardEi, symObjAddr: 0x69BC, symBinAddr: 0x100008A20, symSize: 0x78 }
  - { offsetInCU: 0xCE33, offset: 0xCE33, size: 0x8, addend: 0x0, symName: __ZlsRNSt3__113basic_ostreamIcNS_11char_traitsIcEEEERK4Hand, symObjAddr: 0x6A34, symBinAddr: 0x100008A98, symSize: 0x514 }
  - { offsetInCU: 0xCEBB, offset: 0xCEBB, size: 0x8, addend: 0x0, symName: __ZNSt3__112basic_stringIcNS_11char_traitsIcEENS_9allocatorIcEEEC2B8ue170006ILi0EEEPKc, symObjAddr: 0x6F48, symBinAddr: 0x100008FAC, symSize: 0x210 }
  - { offsetInCU: 0xCF01, offset: 0xCF01, size: 0x8, addend: 0x0, symName: __ZNSt3__117__compressed_pairINS_12basic_stringIcNS_11char_traitsIcEENS_9allocatorIcEEE5__repES5_EC1B8ue170006INS_18__default_init_tagESA_EEOT_OT0_, symObjAddr: 0x7158, symBinAddr: 0x1000091BC, symSize: 0x3C }
  - { offsetInCU: 0xCF59, offset: 0xCF59, size: 0x8, addend: 0x0, symName: __ZNSt3__111char_traitsIcE6lengthB8ue170006EPKc, symObjAddr: 0x7194, symBinAddr: 0x1000091F8, symSize: 0x40 }
  - { offsetInCU: 0xCF7C, offset: 0xCF7C, size: 0x8, addend: 0x0, symName: __ZNSt3__117__compressed_pairINS_12basic_stringIcNS_11char_traitsIcEENS_9allocatorIcEEE5__repES5_EC2B8ue170006INS_18__default_init_tagESA_EEOT_OT0_, symObjAddr: 0x71D4, symBinAddr: 0x100009238, symSize: 0x3C }
  - { offsetInCU: 0xCFD4, offset: 0xCFD4, size: 0x8, addend: 0x0, symName: __ZNSt3__122__compressed_pair_elemINS_12basic_stringIcNS_11char_traitsIcEENS_9allocatorIcEEE5__repELi0ELb0EEC2B8ue170006ENS_18__default_init_tagE, symObjAddr: 0x7210, symBinAddr: 0x100009274, symSize: 0x14 }
  - { offsetInCU: 0xD009, offset: 0xD009, size: 0x8, addend: 0x0, symName: __ZNSt3__122__compressed_pair_elemINS_9allocatorIcEELi1ELb1EEC2B8ue170006ENS_18__default_init_tagE, symObjAddr: 0x7224, symBinAddr: 0x100009288, symSize: 0x2C }
  - { offsetInCU: 0xD03E, offset: 0xD03E, size: 0x8, addend: 0x0, symName: __ZNSt3__19allocatorIcEC2B8ue170006Ev, symObjAddr: 0x7250, symBinAddr: 0x1000092B4, symSize: 0x2C }
  - { offsetInCU: 0xD068, offset: 0xD068, size: 0x8, addend: 0x0, symName: __ZNSt3__116__non_trivial_ifILb1ENS_9allocatorIcEEEC2B8ue170006Ev, symObjAddr: 0x727C, symBinAddr: 0x1000092E0, symSize: 0x14 }
  - { offsetInCU: 0xD092, offset: 0xD092, size: 0x8, addend: 0x0, symName: __ZNSt3__16vectorIP4CardNS_9allocatorIS2_EEEC2B8ue170006Ev, symObjAddr: 0x72C0, symBinAddr: 0x100009324, symSize: 0x2E8 }
  - { offsetInCU: 0xD0C2, offset: 0xD0C2, size: 0x8, addend: 0x0, symName: __ZNSt3__117__compressed_pairIPP4CardNS_9allocatorIS2_EEEC1B8ue170006IDnNS_18__default_init_tagEEEOT_OT0_, symObjAddr: 0x75A8, symBinAddr: 0x10000960C, symSize: 0x3C }
  - { offsetInCU: 0xD11A, offset: 0xD11A, size: 0x8, addend: 0x0, symName: __ZNSt3__117__compressed_pairIPP4CardNS_9allocatorIS2_EEEC2B8ue170006IDnNS_18__default_init_tagEEEOT_OT0_, symObjAddr: 0x75E4, symBinAddr: 0x100009648, symSize: 0x40 }
  - { offsetInCU: 0xD172, offset: 0xD172, size: 0x8, addend: 0x0, symName: __ZNSt3__122__compressed_pair_elemIPP4CardLi0ELb0EEC2B8ue170006IDnvEEOT_, symObjAddr: 0x7624, symBinAddr: 0x100009688, symSize: 0x64 }
  - { offsetInCU: 0xD1B4, offset: 0xD1B4, size: 0x8, addend: 0x0, symName: __ZNSt3__122__compressed_pair_elemINS_9allocatorIP4CardEELi1ELb1EEC2B8ue170006ENS_18__default_init_tagE, symObjAddr: 0x7688, symBinAddr: 0x1000096EC, symSize: 0x2C }
  - { offsetInCU: 0xD1E9, offset: 0xD1E9, size: 0x8, addend: 0x0, symName: __ZNSt3__19allocatorIP4CardEC2B8ue170006Ev, symObjAddr: 0x76B4, symBinAddr: 0x100009718, symSize: 0x2C }
  - { offsetInCU: 0xD213, offset: 0xD213, size: 0x8, addend: 0x0, symName: __ZNSt3__116__non_trivial_ifILb1ENS_9allocatorIP4CardEEEC2B8ue170006Ev, symObjAddr: 0x76E0, symBinAddr: 0x100009744, symSize: 0x14 }
  - { offsetInCU: 0xD23D, offset: 0xD23D, size: 0x8, addend: 0x0, symName: __ZNSt3__16vectorIP4CardNS_9allocatorIS2_EEE9__end_capB8ue170006Ev, symObjAddr: 0x76F4, symBinAddr: 0x100009758, symSize: 0x28 }
  - { offsetInCU: 0xD268, offset: 0xD268, size: 0x8, addend: 0x0, symName: __ZNSt3__16vectorIP4CardNS_9allocatorIS2_EEE22__construct_one_at_endB8ue170006IJS2_EEEvDpOT_, symObjAddr: 0x771C, symBinAddr: 0x100009780, symSize: 0x36C }
  - { offsetInCU: 0xD2BD, offset: 0xD2BD, size: 0x8, addend: 0x0, symName: __ZNSt3__16vectorIP4CardNS_9allocatorIS2_EEE21__push_back_slow_pathIS2_EEvOT_, symObjAddr: 0x7A88, symBinAddr: 0x100009AEC, symSize: 0x3C0 }
  - { offsetInCU: 0xD322, offset: 0xD322, size: 0x8, addend: 0x0, symName: __ZNSt3__117__compressed_pairIPP4CardNS_9allocatorIS2_EEE5firstB8ue170006Ev, symObjAddr: 0x7E48, symBinAddr: 0x100009EAC, symSize: 0x24 }
  - { offsetInCU: 0xD348, offset: 0xD348, size: 0x8, addend: 0x0, symName: __ZNSt3__122__compressed_pair_elemIPP4CardLi0ELb0EE5__getB8ue170006Ev, symObjAddr: 0x7E6C, symBinAddr: 0x100009ED0, symSize: 0x14 }
  - { offsetInCU: 0xD387, offset: 0xD387, size: 0x8, addend: 0x0, symName: __ZNSt3__16vectorIP4CardNS_9allocatorIS2_EEE21_ConstructTransactionC1B8ue170006ERS5_m, symObjAddr: 0x7E80, symBinAddr: 0x100009EE4, symSize: 0x3C }
  - { offsetInCU: 0xD3CF, offset: 0xD3CF, size: 0x8, addend: 0x0, symName: __ZNSt3__116allocator_traitsINS_9allocatorIP4CardEEE9constructB8ue170006IS3_JS3_EvvEEvRS4_PT_DpOT0_, symObjAddr: 0x7EBC, symBinAddr: 0x100009F20, symSize: 0x30 }
  - { offsetInCU: 0xD423, offset: 0xD423, size: 0x8, addend: 0x0, symName: __ZNSt3__16vectorIP4CardNS_9allocatorIS2_EEE7__allocB8ue170006Ev, symObjAddr: 0x7EEC, symBinAddr: 0x100009F50, symSize: 0x28 }
  - { offsetInCU: 0xD449, offset: 0xD449, size: 0x8, addend: 0x0, symName: __ZNSt3__16vectorIP4CardNS_9allocatorIS2_EEE21_ConstructTransactionD1B8ue170006Ev, symObjAddr: 0x7F28, symBinAddr: 0x100009F8C, symSize: 0x2C }
  - { offsetInCU: 0xD473, offset: 0xD473, size: 0x8, addend: 0x0, symName: __ZNSt3__16vectorIP4CardNS_9allocatorIS2_EEE21_ConstructTransactionC2B8ue170006ERS5_m, symObjAddr: 0x7F54, symBinAddr: 0x100009FB8, symSize: 0x1D0 }
  - { offsetInCU: 0xD4BB, offset: 0xD4BB, size: 0x8, addend: 0x0, symName: __ZNKSt3__16vectorIP4CardNS_9allocatorIS2_EEE19__annotate_increaseB8ue170006Em, symObjAddr: 0x8124, symBinAddr: 0x10000A188, symSize: 0xD8 }
  - { offsetInCU: 0xD4F0, offset: 0xD4F0, size: 0x8, addend: 0x0, symName: __ZNKSt3__16vectorIP4CardNS_9allocatorIS2_EEE31__annotate_contiguous_containerEPKvS7_S7_S7_, symObjAddr: 0x81FC, symBinAddr: 0x10000A260, symSize: 0x58 }
  - { offsetInCU: 0xD552, offset: 0xD552, size: 0x8, addend: 0x0, symName: __ZNKSt3__16vectorIP4CardNS_9allocatorIS2_EEE4dataB8ue170006Ev, symObjAddr: 0x8254, symBinAddr: 0x10000A2B8, symSize: 0x64 }
  - { offsetInCU: 0xD578, offset: 0xD578, size: 0x8, addend: 0x0, symName: __ZNKSt3__16vectorIP4CardNS_9allocatorIS2_EEE8capacityB8ue170006Ev, symObjAddr: 0x82B8, symBinAddr: 0x10000A31C, symSize: 0xBC }
  - { offsetInCU: 0xD59E, offset: 0xD59E, size: 0x8, addend: 0x0, symName: __ZNKSt3__16vectorIP4CardNS_9allocatorIS2_EEE9__end_capB8ue170006Ev, symObjAddr: 0x8374, symBinAddr: 0x10000A3D8, symSize: 0x28 }
  - { offsetInCU: 0xD5C4, offset: 0xD5C4, size: 0x8, addend: 0x0, symName: __ZNKSt3__117__compressed_pairIPP4CardNS_9allocatorIS2_EEE5firstB8ue170006Ev, symObjAddr: 0x839C, symBinAddr: 0x10000A400, symSize: 0x24 }
  - { offsetInCU: 0xD5EA, offset: 0xD5EA, size: 0x8, addend: 0x0, symName: __ZNKSt3__122__compressed_pair_elemIPP4CardLi0ELb0EE5__getB8ue170006Ev, symObjAddr: 0x83C0, symBinAddr: 0x10000A424, symSize: 0x14 }
  - { offsetInCU: 0xD610, offset: 0xD610, size: 0x8, addend: 0x0, symName: __ZNSt3__117__compressed_pairIPP4CardNS_9allocatorIS2_EEE6secondB8ue170006Ev, symObjAddr: 0x848C, symBinAddr: 0x10000A4F0, symSize: 0x24 }
  - { offsetInCU: 0xD636, offset: 0xD636, size: 0x8, addend: 0x0, symName: __ZNSt3__122__compressed_pair_elemINS_9allocatorIP4CardEELi1ELb1EE5__getB8ue170006Ev, symObjAddr: 0x84B0, symBinAddr: 0x10000A514, symSize: 0x14 }
  - { offsetInCU: 0xD65C, offset: 0xD65C, size: 0x8, addend: 0x0, symName: __ZNSt3__16vectorIP4CardNS_9allocatorIS2_EEE21_ConstructTransactionD2B8ue170006Ev, symObjAddr: 0x84C4, symBinAddr: 0x10000A528, symSize: 0x278 }
  - { offsetInCU: 0xD686, offset: 0xD686, size: 0x8, addend: 0x0, symName: __ZNKSt3__16vectorIP4CardNS_9allocatorIS2_EEE17__annotate_shrinkB8ue170006Em, symObjAddr: 0x873C, symBinAddr: 0x10000A7A0, symSize: 0xC8 }
  - { offsetInCU: 0xD6BB, offset: 0xD6BB, size: 0x8, addend: 0x0, symName: __ZNKSt3__16vectorIP4CardNS_9allocatorIS2_EEE11__recommendB8ue170006Em, symObjAddr: 0x8804, symBinAddr: 0x10000A868, symSize: 0x384 }
  - { offsetInCU: 0xD717, offset: 0xD717, size: 0x8, addend: 0x0, symName: __ZNSt3__114__split_bufferIP4CardRNS_9allocatorIS2_EEEC1EmmS5_, symObjAddr: 0x8B88, symBinAddr: 0x10000ABEC, symSize: 0x44 }
  - { offsetInCU: 0xD76D, offset: 0xD76D, size: 0x8, addend: 0x0, symName: __ZNSt3__114__split_bufferIP4CardRNS_9allocatorIS2_EEED1Ev, symObjAddr: 0x9138, symBinAddr: 0x10000B19C, symSize: 0x2C }
  - { offsetInCU: 0xD799, offset: 0xD799, size: 0x8, addend: 0x0, symName: __ZNKSt3__16vectorIP4CardNS_9allocatorIS2_EEE8max_sizeEv, symObjAddr: 0x9164, symBinAddr: 0x10000B1C8, symSize: 0x2FC }
  - { offsetInCU: 0xD7C2, offset: 0xD7C2, size: 0x8, addend: 0x0, symName: __ZNKSt3__16vectorIP4CardNS_9allocatorIS2_EEE20__throw_length_errorB8ue170006Ev, symObjAddr: 0x9460, symBinAddr: 0x10000B4C4, symSize: 0x20 }
  - { offsetInCU: 0xD7F2, offset: 0xD7F2, size: 0x8, addend: 0x0, symName: __ZNSt3__116allocator_traitsINS_9allocatorIP4CardEEE8max_sizeB8ue170006IS4_vvEEmRKS4_, symObjAddr: 0x94D8, symBinAddr: 0x10000B53C, symSize: 0x28 }
  - { offsetInCU: 0xD81D, offset: 0xD81D, size: 0x8, addend: 0x0, symName: __ZNKSt3__16vectorIP4CardNS_9allocatorIS2_EEE7__allocB8ue170006Ev, symObjAddr: 0x9500, symBinAddr: 0x10000B564, symSize: 0x28 }
  - { offsetInCU: 0xD843, offset: 0xD843, size: 0x8, addend: 0x0, symName: __ZNSt3__114numeric_limitsIlE3maxB8ue170006Ev, symObjAddr: 0x9528, symBinAddr: 0x10000B58C, symSize: 0x14 }
  - { offsetInCU: 0xD86B, offset: 0xD86B, size: 0x8, addend: 0x0, symName: __ZNKSt3__16__lessIvvEclB8ue170006ImmEEbRKT_RKT0_, symObjAddr: 0x9724, symBinAddr: 0x10000B788, symSize: 0xBC }
  - { offsetInCU: 0xD8BF, offset: 0xD8BF, size: 0x8, addend: 0x0, symName: __ZNSt3__114numeric_limitsImE3maxB8ue170006Ev, symObjAddr: 0x97E0, symBinAddr: 0x10000B844, symSize: 0x14 }
  - { offsetInCU: 0xD8D3, offset: 0xD8D3, size: 0x8, addend: 0x0, symName: __ZNSt3__123__libcpp_numeric_limitsImLb1EE3maxB8ue170006Ev, symObjAddr: 0x97F4, symBinAddr: 0x10000B858, symSize: 0x8 }
  - { offsetInCU: 0xD8E7, offset: 0xD8E7, size: 0x8, addend: 0x0, symName: __ZNKSt3__117__compressed_pairIPP4CardNS_9allocatorIS2_EEE6secondB8ue170006Ev, symObjAddr: 0x97FC, symBinAddr: 0x10000B860, symSize: 0x24 }
  - { offsetInCU: 0xD90D, offset: 0xD90D, size: 0x8, addend: 0x0, symName: __ZNKSt3__122__compressed_pair_elemINS_9allocatorIP4CardEELi1ELb1EE5__getB8ue170006Ev, symObjAddr: 0x9820, symBinAddr: 0x10000B884, symSize: 0x14 }
  - { offsetInCU: 0xD933, offset: 0xD933, size: 0x8, addend: 0x0, symName: __ZNSt3__123__libcpp_numeric_limitsIlLb1EE3maxB8ue170006Ev, symObjAddr: 0x9834, symBinAddr: 0x10000B898, symSize: 0x8 }
  - { offsetInCU: 0xD947, offset: 0xD947, size: 0x8, addend: 0x0, symName: __ZNSt12length_errorC1B8ue170006EPKc, symObjAddr: 0x98A4, symBinAddr: 0x10000B908, symSize: 0x34 }
  - { offsetInCU: 0xD97F, offset: 0xD97F, size: 0x8, addend: 0x0, symName: __ZNSt12length_errorC2B8ue170006EPKc, symObjAddr: 0x98D8, symBinAddr: 0x10000B93C, symSize: 0x8C }
  - { offsetInCU: 0xD9B7, offset: 0xD9B7, size: 0x8, addend: 0x0, symName: __ZNSt3__114__split_bufferIP4CardRNS_9allocatorIS2_EEEC2EmmS5_, symObjAddr: 0x9B4C, symBinAddr: 0x10000BBB0, symSize: 0x520 }
  - { offsetInCU: 0xDA32, offset: 0xDA32, size: 0x8, addend: 0x0, symName: __ZNSt3__117__compressed_pairIPP4CardRNS_9allocatorIS2_EEEC1B8ue170006IDnS6_EEOT_OT0_, symObjAddr: 0xA06C, symBinAddr: 0x10000C0D0, symSize: 0x3C }
  - { offsetInCU: 0xDA8A, offset: 0xDA8A, size: 0x8, addend: 0x0, symName: __ZNSt3__114__split_bufferIP4CardRNS_9allocatorIS2_EEE7__allocB8ue170006Ev, symObjAddr: 0xA334, symBinAddr: 0x10000C398, symSize: 0x28 }
  - { offsetInCU: 0xDAB0, offset: 0xDAB0, size: 0x8, addend: 0x0, symName: __ZNSt3__114__split_bufferIP4CardRNS_9allocatorIS2_EEE9__end_capB8ue170006Ev, symObjAddr: 0xA35C, symBinAddr: 0x10000C3C0, symSize: 0x28 }
  - { offsetInCU: 0xDAD6, offset: 0xDAD6, size: 0x8, addend: 0x0, symName: __ZNSt3__117__compressed_pairIPP4CardRNS_9allocatorIS2_EEEC2B8ue170006IDnS6_EEOT_OT0_, symObjAddr: 0xA384, symBinAddr: 0x10000C3E8, symSize: 0x48 }
  - { offsetInCU: 0xDB2E, offset: 0xDB2E, size: 0x8, addend: 0x0, symName: __ZNSt3__122__compressed_pair_elemIRNS_9allocatorIP4CardEELi1ELb0EEC2B8ue170006IS5_vEEOT_, symObjAddr: 0xA3CC, symBinAddr: 0x10000C430, symSize: 0x70 }
  - { offsetInCU: 0xDB70, offset: 0xDB70, size: 0x8, addend: 0x0, symName: __ZNSt3__19allocatorIP4CardE8allocateB8ue170006Em, symObjAddr: 0xA43C, symBinAddr: 0x10000C4A0, symSize: 0x5C }
  - { offsetInCU: 0xDBA4, offset: 0xDBA4, size: 0x8, addend: 0x0, symName: __ZNSt3__117__compressed_pairIPP4CardRNS_9allocatorIS2_EEE6secondB8ue170006Ev, symObjAddr: 0xA5A0, symBinAddr: 0x10000C604, symSize: 0x28 }
  - { offsetInCU: 0xDBCA, offset: 0xDBCA, size: 0x8, addend: 0x0, symName: __ZNSt3__122__compressed_pair_elemIRNS_9allocatorIP4CardEELi1ELb0EE5__getB8ue170006Ev, symObjAddr: 0xA5C8, symBinAddr: 0x10000C62C, symSize: 0x60 }
  - { offsetInCU: 0xDBF0, offset: 0xDBF0, size: 0x8, addend: 0x0, symName: __ZNSt3__117__compressed_pairIPP4CardRNS_9allocatorIS2_EEE5firstB8ue170006Ev, symObjAddr: 0xA628, symBinAddr: 0x10000C68C, symSize: 0x24 }
  - { offsetInCU: 0xDC16, offset: 0xDC16, size: 0x8, addend: 0x0, symName: __ZNKSt3__16vectorIP4CardNS_9allocatorIS2_EEE17__annotate_deleteB8ue170006Ev, symObjAddr: 0xA64C, symBinAddr: 0x10000C6B0, symSize: 0xCC }
  - { offsetInCU: 0xDC3C, offset: 0xDC3C, size: 0x8, addend: 0x0, symName: __ZNSt3__116reverse_iteratorIPP4CardEC1B8ue170006ES3_, symObjAddr: 0xABC0, symBinAddr: 0x10000CC24, symSize: 0x34 }
  - { offsetInCU: 0xDC74, offset: 0xDC74, size: 0x8, addend: 0x0, symName: __ZNKSt3__116reverse_iteratorIPP4CardE4baseB8ue170006Ev, symObjAddr: 0xABF4, symBinAddr: 0x10000CC58, symSize: 0x64 }
  - { offsetInCU: 0xDC9A, offset: 0xDC9A, size: 0x8, addend: 0x0, symName: __ZNKSt3__16vectorIP4CardNS_9allocatorIS2_EEE14__annotate_newB8ue170006Em, symObjAddr: 0xAD8C, symBinAddr: 0x10000CDF0, symSize: 0xC0 }
  - { offsetInCU: 0xDCF2, offset: 0xDCF2, size: 0x8, addend: 0x0, symName: __ZNKSt3__111__move_loopINS_17_ClassicAlgPolicyEEclB8ue170006INS_16reverse_iteratorIPP4CardEES8_S8_EENS_4pairIT_T1_EESA_T0_SB_, symObjAddr: 0xC720, symBinAddr: 0x10000E784, symSize: 0x3A8 }
  - { offsetInCU: 0xDD6A, offset: 0xDD6A, size: 0x8, addend: 0x0, symName: __ZNSt3__119__unwrap_range_implINS_16reverse_iteratorIPP4CardEES5_E8__unwrapB8ue170006ES5_S5_, symObjAddr: 0xD5A8, symBinAddr: 0x10000F60C, symSize: 0x448 }
  - { offsetInCU: 0xDDA8, offset: 0xDDA8, size: 0x8, addend: 0x0, symName: __ZNSt3__14pairINS_16reverse_iteratorIPP4CardEES5_EC1B8ue170006IS5_S5_LPv0EEEOT_OT0_, symObjAddr: 0xD9F0, symBinAddr: 0x10000FA54, symSize: 0x3C }
  - { offsetInCU: 0xDE06, offset: 0xDE06, size: 0x8, addend: 0x0, symName: __ZNSt3__14pairINS_16reverse_iteratorIPP4CardEES5_EC2B8ue170006IS5_S5_LPv0EEEOT_OT0_, symObjAddr: 0xDA2C, symBinAddr: 0x10000FA90, symSize: 0x54 }
  - { offsetInCU: 0xDE64, offset: 0xDE64, size: 0x8, addend: 0x0, symName: __ZNSt3__18_IterOpsINS_17_ClassicAlgPolicyEE11__iter_moveB8ue170006IRNS_16reverse_iteratorIPP4CardEEEENS_9enable_ifIXsr12is_referenceIDTdeclsr3stdE7declvalIRT_EEEEE5valueEDTclsr3stdE4movedeclsr3stdE7declvalISC_EEEEE4typeEOSB_, symObjAddr: 0xDAC8, symBinAddr: 0x10000FB2C, symSize: 0x28 }
  - { offsetInCU: 0xDE90, offset: 0xDE90, size: 0x8, addend: 0x0, symName: __ZNKSt3__116reverse_iteratorIPP4CardEdeB8ue170006Ev, symObjAddr: 0xDAF0, symBinAddr: 0x10000FB54, symSize: 0x74 }
  - { offsetInCU: 0xDEC4, offset: 0xDEC4, size: 0x8, addend: 0x0, symName: __ZNSt3__116reverse_iteratorIPP4CardEppB8ue170006Ev, symObjAddr: 0xDB64, symBinAddr: 0x10000FBC8, symSize: 0x6C }
  - { offsetInCU: 0xDEEA, offset: 0xDEEA, size: 0x8, addend: 0x0, symName: __ZNSt3__18_IterOpsINS_17_ClassicAlgPolicyEE25__validate_iter_referenceB8ue170006IRNS_16reverse_iteratorIPP4CardEEEEvv, symObjAddr: 0xDBD0, symBinAddr: 0x10000FC34, symSize: 0x4 }
  - { offsetInCU: 0xDF08, offset: 0xDF08, size: 0x8, addend: 0x0, symName: __ZNSt3__118__unwrap_iter_implINS_16reverse_iteratorIPP4CardEELb0EE8__unwrapB8ue170006ES5_, symObjAddr: 0xDBD4, symBinAddr: 0x10000FC38, symSize: 0x274 }
  - { offsetInCU: 0xDF2F, offset: 0xDF2F, size: 0x8, addend: 0x0, symName: __ZNSt3__119__unwrap_range_implINS_16reverse_iteratorIPP4CardEES5_E8__rewrapB8ue170006ES5_S5_, symObjAddr: 0xDE48, symBinAddr: 0x10000FEAC, symSize: 0x3D4 }
  - { offsetInCU: 0xDF68, offset: 0xDF68, size: 0x8, addend: 0x0, symName: __ZNSt3__118__unwrap_iter_implINS_16reverse_iteratorIPP4CardEELb0EE8__rewrapB8ue170006ES5_S5_, symObjAddr: 0xE21C, symBinAddr: 0x100010280, symSize: 0x2E0 }
  - { offsetInCU: 0xDF9E, offset: 0xDF9E, size: 0x8, addend: 0x0, symName: __ZNSt3__116reverse_iteratorIPP4CardEC2B8ue170006ES3_, symObjAddr: 0xE4FC, symBinAddr: 0x100010560, symSize: 0xB8 }
  - { offsetInCU: 0xDFD6, offset: 0xDFD6, size: 0x8, addend: 0x0, symName: __ZNSt3__114__split_bufferIP4CardRNS_9allocatorIS2_EEED2Ev, symObjAddr: 0xE5B4, symBinAddr: 0x100010618, symSize: 0x104 }
  - { offsetInCU: 0xE002, offset: 0xE002, size: 0x8, addend: 0x0, symName: __ZNSt3__114__split_bufferIP4CardRNS_9allocatorIS2_EEE5clearB8ue170006Ev, symObjAddr: 0xE6B8, symBinAddr: 0x10001071C, symSize: 0x68 }
  - { offsetInCU: 0xE028, offset: 0xE028, size: 0x8, addend: 0x0, symName: __ZNSt3__116allocator_traitsINS_9allocatorIP4CardEEE10deallocateB8ue170006ERS4_PS3_m, symObjAddr: 0xE720, symBinAddr: 0x100010784, symSize: 0x34 }
  - { offsetInCU: 0xE06A, offset: 0xE06A, size: 0x8, addend: 0x0, symName: __ZNKSt3__114__split_bufferIP4CardRNS_9allocatorIS2_EEE8capacityB8ue170006Ev, symObjAddr: 0xE754, symBinAddr: 0x1000107B8, symSize: 0xBC }
  - { offsetInCU: 0xE090, offset: 0xE090, size: 0x8, addend: 0x0, symName: __ZNSt3__114__split_bufferIP4CardRNS_9allocatorIS2_EEE17__destruct_at_endB8ue170006EPS2_, symObjAddr: 0xE810, symBinAddr: 0x100010874, symSize: 0x2C }
  - { offsetInCU: 0xE0C4, offset: 0xE0C4, size: 0x8, addend: 0x0, symName: __ZNSt3__114__split_bufferIP4CardRNS_9allocatorIS2_EEE17__destruct_at_endB8ue170006EPS2_NS_17integral_constantIbLb0EEE, symObjAddr: 0xE83C, symBinAddr: 0x1000108A0, symSize: 0x10C }
  - { offsetInCU: 0xE105, offset: 0xE105, size: 0x8, addend: 0x0, symName: __ZNSt3__116allocator_traitsINS_9allocatorIP4CardEEE7destroyB8ue170006IS3_vvEEvRS4_PT_, symObjAddr: 0xE948, symBinAddr: 0x1000109AC, symSize: 0x28 }
  - { offsetInCU: 0xE13F, offset: 0xE13F, size: 0x8, addend: 0x0, symName: __ZNSt3__19allocatorIP4CardE10deallocateB8ue170006EPS2_m, symObjAddr: 0xE9A4, symBinAddr: 0x100010A08, symSize: 0x4C }
  - { offsetInCU: 0xE181, offset: 0xE181, size: 0x8, addend: 0x0, symName: __ZNKSt3__114__split_bufferIP4CardRNS_9allocatorIS2_EEE9__end_capB8ue170006Ev, symObjAddr: 0xEAF8, symBinAddr: 0x100010B5C, symSize: 0x28 }
  - { offsetInCU: 0xE1A7, offset: 0xE1A7, size: 0x8, addend: 0x0, symName: __ZNKSt3__117__compressed_pairIPP4CardRNS_9allocatorIS2_EEE5firstB8ue170006Ev, symObjAddr: 0xEB20, symBinAddr: 0x100010B84, symSize: 0x24 }
  - { offsetInCU: 0xE1CD, offset: 0xE1CD, size: 0x8, addend: 0x0, symName: __ZNSt3__16vectorIP4CardNS_9allocatorIS2_EEE11__make_iterB8ue170006EPS2_, symObjAddr: 0xEB44, symBinAddr: 0x100010BA8, symSize: 0x1FC }
  - { offsetInCU: 0xE204, offset: 0xE204, size: 0x8, addend: 0x0, symName: __ZNSt3__111__wrap_iterIPP4CardEC1B8ue170006ES3_, symObjAddr: 0xED40, symBinAddr: 0x100010DA4, symSize: 0x34 }
  - { offsetInCU: 0xE23C, offset: 0xE23C, size: 0x8, addend: 0x0, symName: __ZNSt3__111__wrap_iterIPP4CardEC2B8ue170006ES3_, symObjAddr: 0xED74, symBinAddr: 0x100010DD8, symSize: 0x70 }
  - { offsetInCU: 0xE274, offset: 0xE274, size: 0x8, addend: 0x0, symName: __ZNKSt3__111__wrap_iterIPP4CardE4baseB8ue170006Ev, symObjAddr: 0xEE2C, symBinAddr: 0x100010E90, symSize: 0x60 }
  - { offsetInCU: 0xE29A, offset: 0xE29A, size: 0x8, addend: 0x0, symName: __ZNSt3__16vectorIP4CardNS_9allocatorIS2_EEED2B8ue170006Ev, symObjAddr: 0xEE8C, symBinAddr: 0x100010EF0, symSize: 0x1F8 }
  - { offsetInCU: 0xE2C5, offset: 0xE2C5, size: 0x8, addend: 0x0, symName: __ZNSt3__16vectorIP4CardNS_9allocatorIS2_EEE16__destroy_vectorC1B8ue170006ERS5_, symObjAddr: 0xF084, symBinAddr: 0x1000110E8, symSize: 0x34 }
  - { offsetInCU: 0xE2FE, offset: 0xE2FE, size: 0x8, addend: 0x0, symName: __ZNSt3__16vectorIP4CardNS_9allocatorIS2_EEE16__destroy_vectorclB8ue170006Ev, symObjAddr: 0xF0B8, symBinAddr: 0x10001111C, symSize: 0x228 }
  - { offsetInCU: 0xE324, offset: 0xE324, size: 0x8, addend: 0x0, symName: __ZNSt3__16vectorIP4CardNS_9allocatorIS2_EEE16__destroy_vectorC2B8ue170006ERS5_, symObjAddr: 0xF2E0, symBinAddr: 0x100011344, symSize: 0x70 }
  - { offsetInCU: 0xE35D, offset: 0xE35D, size: 0x8, addend: 0x0, symName: __ZNSt3__16vectorIP4CardNS_9allocatorIS2_EEE7__clearB8ue170006Ev, symObjAddr: 0xF350, symBinAddr: 0x1000113B4, symSize: 0x64 }
  - { offsetInCU: 0xE383, offset: 0xE383, size: 0x8, addend: 0x0, symName: __ZNSt3__16vectorIP4CardNS_9allocatorIS2_EEE22__base_destruct_at_endB8ue170006EPS2_, symObjAddr: 0xF3B4, symBinAddr: 0x100011418, symSize: 0x114 }
  - { offsetInCU: 0xE3C7, offset: 0xE3C7, size: 0x8, addend: 0x0, symName: __ZNSt3__16vectorIP4CardNS_9allocatorIS2_EEE22__construct_one_at_endB8ue170006IJRKS2_EEEvDpOT_, symObjAddr: 0xF4C8, symBinAddr: 0x10001152C, symSize: 0x36C }
  - { offsetInCU: 0xE41C, offset: 0xE41C, size: 0x8, addend: 0x0, symName: __ZNSt3__16vectorIP4CardNS_9allocatorIS2_EEE21__push_back_slow_pathIRKS2_EEvOT_, symObjAddr: 0xF834, symBinAddr: 0x100011898, symSize: 0x3C0 }
  - { offsetInCU: 0xE481, offset: 0xE481, size: 0x8, addend: 0x0, symName: __ZNSt3__116allocator_traitsINS_9allocatorIP4CardEEE9constructB8ue170006IS3_JRKS3_EvvEEvRS4_PT_DpOT0_, symObjAddr: 0xFBF4, symBinAddr: 0x100011C58, symSize: 0x30 }
  - { offsetInCU: 0xE4D5, offset: 0xE4D5, size: 0x8, addend: 0x0, symName: __ZNKSt3__16vectorIP4CardNS_9allocatorIS2_EEE6cbeginB8ue170006Ev, symObjAddr: 0xFD24, symBinAddr: 0x100011D88, symSize: 0x234 }
  - { offsetInCU: 0xE4FC, offset: 0xE4FC, size: 0x8, addend: 0x0, symName: __ZNSt3__16vectorIP4CardNS_9allocatorIS2_EEE17__destruct_at_endB8ue170006EPS2_, symObjAddr: 0xFF58, symBinAddr: 0x100011FBC, symSize: 0x4C }
  - { offsetInCU: 0xE540, offset: 0xE540, size: 0x8, addend: 0x0, symName: __ZNKSt3__111__wrap_iterIPKP4CardE4baseB8ue170006Ev, symObjAddr: 0x10210, symBinAddr: 0x100012274, symSize: 0x60 }
  - { offsetInCU: 0xE566, offset: 0xE566, size: 0x8, addend: 0x0, symName: __ZNKSt3__16vectorIP4CardNS_9allocatorIS2_EEE5beginB8ue170006Ev, symObjAddr: 0x10270, symBinAddr: 0x1000122D4, symSize: 0x268 }
  - { offsetInCU: 0xE58F, offset: 0xE58F, size: 0x8, addend: 0x0, symName: __ZNKSt3__16vectorIP4CardNS_9allocatorIS2_EEE11__make_iterB8ue170006EPKS2_, symObjAddr: 0x104D8, symBinAddr: 0x10001253C, symSize: 0x1FC }
  - { offsetInCU: 0xE5C6, offset: 0xE5C6, size: 0x8, addend: 0x0, symName: __ZNSt3__111__wrap_iterIPKP4CardEC1B8ue170006ES4_, symObjAddr: 0x106D4, symBinAddr: 0x100012738, symSize: 0x34 }
  - { offsetInCU: 0xE5FE, offset: 0xE5FE, size: 0x8, addend: 0x0, symName: __ZNSt3__111__wrap_iterIPKP4CardEC2B8ue170006ES4_, symObjAddr: 0x10708, symBinAddr: 0x10001276C, symSize: 0x70 }
  - { offsetInCU: 0xE659, offset: 0xE659, size: 0x8, addend: 0x0, symName: __ZNKSt3__114__move_trivialclB8ue170006IP4CardS3_Li0EEENS_4pairIPT_PT0_EES6_S6_S8_, symObjAddr: 0x11398, symBinAddr: 0x1000133FC, symSize: 0x230 }
  - { offsetInCU: 0xE6C5, offset: 0xE6C5, size: 0x8, addend: 0x0, symName: __ZNSt3__119__unwrap_range_implIPP4CardS3_E8__unwrapB8ue170006ES3_S3_, symObjAddr: 0x1186C, symBinAddr: 0x1000138D0, symSize: 0x30C }
  - { offsetInCU: 0xE6FD, offset: 0xE6FD, size: 0x8, addend: 0x0, symName: __ZNSt3__14pairIPP4CardS3_EC1B8ue170006IS3_S3_LPv0EEEOT_OT0_, symObjAddr: 0x11B78, symBinAddr: 0x100013BDC, symSize: 0x3C }
  - { offsetInCU: 0xE75B, offset: 0xE75B, size: 0x8, addend: 0x0, symName: __ZNSt3__14pairIPP4CardS3_EC2B8ue170006IS3_S3_LPv0EEEOT_OT0_, symObjAddr: 0x11BB4, symBinAddr: 0x100013C18, symSize: 0x138 }
  - { offsetInCU: 0xE7B9, offset: 0xE7B9, size: 0x8, addend: 0x0, symName: __ZNSt3__14pairIPP4CardS3_EC1B8ue170006IRS3_S3_LPv0EEEOT_OT0_, symObjAddr: 0x12310, symBinAddr: 0x100014374, symSize: 0x3C }
  - { offsetInCU: 0xE817, offset: 0xE817, size: 0x8, addend: 0x0, symName: __ZNSt3__14pairIPP4CardS3_EC2B8ue170006IRS3_S3_LPv0EEEOT_OT0_, symObjAddr: 0x1234C, symBinAddr: 0x1000143B0, symSize: 0x138 }
  - { offsetInCU: 0xE875, offset: 0xE875, size: 0x8, addend: 0x0, symName: __ZNSt3__118__unwrap_iter_implIPP4CardLb1EE8__unwrapB8ue170006ES3_, symObjAddr: 0x12484, symBinAddr: 0x1000144E8, symSize: 0x24 }
  - { offsetInCU: 0xE898, offset: 0xE898, size: 0x8, addend: 0x0, symName: __ZNSt3__119__unwrap_range_implIPP4CardS3_E8__rewrapB8ue170006ES3_S3_, symObjAddr: 0x124A8, symBinAddr: 0x10001450C, symSize: 0x2C }
  - { offsetInCU: 0xE8C9, offset: 0xE8C9, size: 0x8, addend: 0x0, symName: __ZNSt3__118__unwrap_iter_implIPP4CardLb1EE8__rewrapB8ue170006ES3_S3_, symObjAddr: 0x124D4, symBinAddr: 0x100014538, symSize: 0x50 }
  - { offsetInCU: 0xE8FA, offset: 0xE8FA, size: 0x8, addend: 0x0, symName: __ZNSt3__111__wrap_iterIPP4CardEpLB8ue170006El, symObjAddr: 0x12524, symBinAddr: 0x100014588, symSize: 0x78 }
  - { offsetInCU: 0xE92E, offset: 0xE92E, size: 0x8, addend: 0x0, symName: __ZNSt3__111__wrap_iterIPKP4CardEC2B8ue170006IPS2_EERKNS0_IT_EEPNS_9enable_ifIXsr14is_convertibleIS8_S4_EE5valueEvE4typeE, symObjAddr: 0x1259C, symBinAddr: 0x100014600, symSize: 0x84 }
  - { offsetInCU: 0xE998, offset: 0xE998, size: 0x8, addend: 0x0, symName: __ZNKSt3__113basic_ostreamIcNS_11char_traitsIcEEE6sentrycvbB8ue170006Ev, symObjAddr: 0x12D64, symBinAddr: 0x100014DC8, symSize: 0x88 }
  - { offsetInCU: 0xE9BE, offset: 0xE9BE, size: 0x8, addend: 0x0, symName: __ZNSt3__119ostreambuf_iteratorIcNS_11char_traitsIcEEEC1B8ue170006ERNS_13basic_ostreamIcS2_EE, symObjAddr: 0x1354C, symBinAddr: 0x1000155B0, symSize: 0x34 }
  - { offsetInCU: 0xE9F6, offset: 0xE9F6, size: 0x8, addend: 0x0, symName: __ZNKSt3__18ios_base5flagsB8ue170006Ev, symObjAddr: 0x13580, symBinAddr: 0x1000155E4, symSize: 0x8C }
  - { offsetInCU: 0xEA1E, offset: 0xEA1E, size: 0x8, addend: 0x0, symName: __ZNKSt3__19basic_iosIcNS_11char_traitsIcEEE4fillB8ue170006Ev, symObjAddr: 0x1360C, symBinAddr: 0x100015670, symSize: 0x198 }
  - { offsetInCU: 0xEA46, offset: 0xEA46, size: 0x8, addend: 0x0, symName: __ZNKSt3__119ostreambuf_iteratorIcNS_11char_traitsIcEEE6failedB8ue170006Ev, symObjAddr: 0x137A4, symBinAddr: 0x100015808, symSize: 0x6C }
  - { offsetInCU: 0xEA6C, offset: 0xEA6C, size: 0x8, addend: 0x0, symName: __ZNSt3__19basic_iosIcNS_11char_traitsIcEEE8setstateB8ue170006Ej, symObjAddr: 0x13810, symBinAddr: 0x100015874, symSize: 0x2C }
  - { offsetInCU: 0xEAA1, offset: 0xEAA1, size: 0x8, addend: 0x0, symName: __ZNKSt3__18ios_base5widthB8ue170006Ev, symObjAddr: 0x1383C, symBinAddr: 0x1000158A0, symSize: 0x64 }
  - { offsetInCU: 0xEAC9, offset: 0xEAC9, size: 0x8, addend: 0x0, symName: __ZNSt3__115basic_streambufIcNS_11char_traitsIcEEE5sputnB8ue170006EPKcl, symObjAddr: 0x138A0, symBinAddr: 0x100015904, symSize: 0xC8 }
  - { offsetInCU: 0xEB0B, offset: 0xEB0B, size: 0x8, addend: 0x0, symName: __ZNSt3__112basic_stringIcNS_11char_traitsIcEENS_9allocatorIcEEEC1B8ue170006Emc, symObjAddr: 0x13968, symBinAddr: 0x1000159CC, symSize: 0x3C }
  - { offsetInCU: 0xEB53, offset: 0xEB53, size: 0x8, addend: 0x0, symName: __ZNSt3__112basic_stringIcNS_11char_traitsIcEENS_9allocatorIcEEE4dataB8ue170006Ev, symObjAddr: 0x139A4, symBinAddr: 0x100015A08, symSize: 0x28 }
  - { offsetInCU: 0xEB79, offset: 0xEB79, size: 0x8, addend: 0x0, symName: __ZNSt3__18ios_base5widthB8ue170006El, symObjAddr: 0x139CC, symBinAddr: 0x100015A30, symSize: 0xB8 }
  - { offsetInCU: 0xEBBF, offset: 0xEBBF, size: 0x8, addend: 0x0, symName: __ZNSt3__112basic_stringIcNS_11char_traitsIcEENS_9allocatorIcEEEC2B8ue170006Emc, symObjAddr: 0x13A84, symBinAddr: 0x100015AE8, symSize: 0x204 }
  - { offsetInCU: 0xEC0A, offset: 0xEC0A, size: 0x8, addend: 0x0, symName: __ZNSt3__112basic_stringIcNS_11char_traitsIcEENS_9allocatorIcEEE13__get_pointerB8ue170006Ev, symObjAddr: 0x13C9C, symBinAddr: 0x100015D00, symSize: 0x54 }
  - { offsetInCU: 0xEC30, offset: 0xEC30, size: 0x8, addend: 0x0, symName: __ZNKSt3__112basic_stringIcNS_11char_traitsIcEENS_9allocatorIcEEE9__is_longB8ue170006Ev, symObjAddr: 0x13CF0, symBinAddr: 0x100015D54, symSize: 0xA4 }
  - { offsetInCU: 0xEC56, offset: 0xEC56, size: 0x8, addend: 0x0, symName: __ZNSt3__112basic_stringIcNS_11char_traitsIcEENS_9allocatorIcEEE18__get_long_pointerB8ue170006Ev, symObjAddr: 0x13D94, symBinAddr: 0x100015DF8, symSize: 0x6C }
  - { offsetInCU: 0xEC7C, offset: 0xEC7C, size: 0x8, addend: 0x0, symName: __ZNSt3__112basic_stringIcNS_11char_traitsIcEENS_9allocatorIcEEE19__get_short_pointerB8ue170006Ev, symObjAddr: 0x13E00, symBinAddr: 0x100015E64, symSize: 0x28 }
  - { offsetInCU: 0xECA2, offset: 0xECA2, size: 0x8, addend: 0x0, symName: __ZNKSt3__117__compressed_pairINS_12basic_stringIcNS_11char_traitsIcEENS_9allocatorIcEEE5__repES5_E5firstB8ue170006Ev, symObjAddr: 0x13E28, symBinAddr: 0x100015E8C, symSize: 0x24 }
  - { offsetInCU: 0xECC8, offset: 0xECC8, size: 0x8, addend: 0x0, symName: __ZNKSt3__122__compressed_pair_elemINS_12basic_stringIcNS_11char_traitsIcEENS_9allocatorIcEEE5__repELi0ELb0EE5__getB8ue170006Ev, symObjAddr: 0x13E4C, symBinAddr: 0x100015EB0, symSize: 0x14 }
  - { offsetInCU: 0xECEE, offset: 0xECEE, size: 0x8, addend: 0x0, symName: __ZNSt3__117__compressed_pairINS_12basic_stringIcNS_11char_traitsIcEENS_9allocatorIcEEE5__repES5_E5firstB8ue170006Ev, symObjAddr: 0x13E60, symBinAddr: 0x100015EC4, symSize: 0x24 }
  - { offsetInCU: 0xED14, offset: 0xED14, size: 0x8, addend: 0x0, symName: __ZNSt3__122__compressed_pair_elemINS_12basic_stringIcNS_11char_traitsIcEENS_9allocatorIcEEE5__repELi0ELb0EE5__getB8ue170006Ev, symObjAddr: 0x13E84, symBinAddr: 0x100015EE8, symSize: 0x14 }
  - { offsetInCU: 0xED3A, offset: 0xED3A, size: 0x8, addend: 0x0, symName: __ZNSt3__114pointer_traitsIPcE10pointer_toB8ue170006ERc, symObjAddr: 0x13E98, symBinAddr: 0x100015EFC, symSize: 0x14 }
  - { offsetInCU: 0xED5D, offset: 0xED5D, size: 0x8, addend: 0x0, symName: __ZNSt3__119ostreambuf_iteratorIcNS_11char_traitsIcEEEC2B8ue170006ERNS_13basic_ostreamIcS2_EE, symObjAddr: 0x13EAC, symBinAddr: 0x100015F10, symSize: 0x10C }
  - { offsetInCU: 0xED95, offset: 0xED95, size: 0x8, addend: 0x0, symName: __ZNKSt3__19basic_iosIcNS_11char_traitsIcEEE5rdbufB8ue170006Ev, symObjAddr: 0x13FB8, symBinAddr: 0x10001601C, symSize: 0x24 }
  - { offsetInCU: 0xEDBD, offset: 0xEDBD, size: 0x8, addend: 0x0, symName: __ZNKSt3__18ios_base5rdbufB8ue170006Ev, symObjAddr: 0x13FDC, symBinAddr: 0x100016040, symSize: 0x64 }
  - { offsetInCU: 0xEDE3, offset: 0xEDE3, size: 0x8, addend: 0x0, symName: __ZNSt3__111char_traitsIcE11eq_int_typeB8ue170006Eii, symObjAddr: 0x14040, symBinAddr: 0x1000160A4, symSize: 0x28 }
  - { offsetInCU: 0xEE16, offset: 0xEE16, size: 0x8, addend: 0x0, symName: __ZNSt3__111char_traitsIcE3eofB8ue170006Ev, symObjAddr: 0x14068, symBinAddr: 0x1000160CC, symSize: 0x8 }
  - { offsetInCU: 0xEE2A, offset: 0xEE2A, size: 0x8, addend: 0x0, symName: __ZNKSt3__19basic_iosIcNS_11char_traitsIcEEE5widenB8ue170006Ec, symObjAddr: 0x14070, symBinAddr: 0x1000160D4, symSize: 0x2A4 }
  - { offsetInCU: 0xEE95, offset: 0xEE95, size: 0x8, addend: 0x0, symName: __ZNKSt3__15ctypeIcE5widenB8ue170006Ec, symObjAddr: 0x14340, symBinAddr: 0x1000163A4, symSize: 0xBC }
  - { offsetInCU: 0xEECA, offset: 0xEECA, size: 0x8, addend: 0x0, symName: __ZNSt3__18ios_base8setstateB8ue170006Ej, symObjAddr: 0x143FC, symBinAddr: 0x100016460, symSize: 0x9C }
  - { offsetInCU: 0xEF01, offset: 0xEF01, size: 0x8, addend: 0x0, symName: __ZNKSt3__112basic_stringIcNS_11char_traitsIcEENS_9allocatorIcEEE4dataB8ue170006Ev, symObjAddr: 0x14498, symBinAddr: 0x1000164FC, symSize: 0x28 }
  - { offsetInCU: 0xEF27, offset: 0xEF27, size: 0x8, addend: 0x0, symName: __ZNKSt3__112basic_stringIcNS_11char_traitsIcEENS_9allocatorIcEEE4sizeB8ue170006Ev, symObjAddr: 0x144C0, symBinAddr: 0x100016524, symSize: 0x54 }
  - { offsetInCU: 0xEF4D, offset: 0xEF4D, size: 0x8, addend: 0x0, symName: __ZNKSt3__112basic_stringIcNS_11char_traitsIcEENS_9allocatorIcEEE13__get_pointerB8ue170006Ev, symObjAddr: 0x14528, symBinAddr: 0x10001658C, symSize: 0x54 }
  - { offsetInCU: 0xEF73, offset: 0xEF73, size: 0x8, addend: 0x0, symName: __ZNKSt3__112basic_stringIcNS_11char_traitsIcEENS_9allocatorIcEEE18__get_long_pointerB8ue170006Ev, symObjAddr: 0x1457C, symBinAddr: 0x1000165E0, symSize: 0x6C }
  - { offsetInCU: 0xEF99, offset: 0xEF99, size: 0x8, addend: 0x0, symName: __ZNKSt3__112basic_stringIcNS_11char_traitsIcEENS_9allocatorIcEEE19__get_short_pointerB8ue170006Ev, symObjAddr: 0x145E8, symBinAddr: 0x10001664C, symSize: 0x28 }
  - { offsetInCU: 0xEFBF, offset: 0xEFBF, size: 0x8, addend: 0x0, symName: __ZNSt3__114pointer_traitsIPKcE10pointer_toB8ue170006ERS1_, symObjAddr: 0x14610, symBinAddr: 0x100016674, symSize: 0x14 }
  - { offsetInCU: 0xEFE2, offset: 0xEFE2, size: 0x8, addend: 0x0, symName: __ZNKSt3__112basic_stringIcNS_11char_traitsIcEENS_9allocatorIcEEE15__get_long_sizeB8ue170006Ev, symObjAddr: 0x14624, symBinAddr: 0x100016688, symSize: 0x70 }
  - { offsetInCU: 0xF008, offset: 0xF008, size: 0x8, addend: 0x0, symName: __ZNKSt3__112basic_stringIcNS_11char_traitsIcEENS_9allocatorIcEEE16__get_short_sizeB8ue170006Ev, symObjAddr: 0x14694, symBinAddr: 0x1000166F8, symSize: 0xA0 }
  - { offsetInCU: 0x3B, offset: 0xF158, size: 0x8, addend: 0x0, symName: _.str, symObjAddr: 0x2A20, symBinAddr: 0x100194900, symSize: 0x0 }
  - { offsetInCU: 0x6B, offset: 0xF188, size: 0x8, addend: 0x0, symName: _.str.1, symObjAddr: 0x2A60, symBinAddr: 0x100194940, symSize: 0x0 }
  - { offsetInCU: 0x88, offset: 0xF1A5, size: 0x8, addend: 0x0, symName: _.str.2, symObjAddr: 0x2AC0, symBinAddr: 0x1001949A0, symSize: 0x0 }
  - { offsetInCU: 0x99, offset: 0xF1B6, size: 0x8, addend: 0x0, symName: _.str.3, symObjAddr: 0x2B20, symBinAddr: 0x100194A00, symSize: 0x0 }
  - { offsetInCU: 0xB6, offset: 0xF1D3, size: 0x8, addend: 0x0, symName: _.str.4, symObjAddr: 0x2B60, symBinAddr: 0x100194A40, symSize: 0x0 }
  - { offsetInCU: 0xD3, offset: 0xF1F0, size: 0x8, addend: 0x0, symName: _.str.5, symObjAddr: 0x2BC0, symBinAddr: 0x100194AA0, symSize: 0x0 }
  - { offsetInCU: 0x6108, offset: 0x15225, size: 0x8, addend: 0x0, symName: __Z9testCardsv, symObjAddr: 0x0, symBinAddr: 0x1000168D4, symSize: 0x75C }
  - { offsetInCU: 0x3B, offset: 0x154E4, size: 0x8, addend: 0x0, symName: _.str, symObjAddr: 0x27AC0, symBinAddr: 0x100194B00, symSize: 0x0 }
  - { offsetInCU: 0x6B, offset: 0x15514, size: 0x8, addend: 0x0, symName: _.str.1, symObjAddr: 0x27AE0, symBinAddr: 0x100194B20, symSize: 0x0 }
  - { offsetInCU: 0x88, offset: 0x15531, size: 0x8, addend: 0x0, symName: _.str.2, symObjAddr: 0x27B00, symBinAddr: 0x100194B40, symSize: 0x0 }
  - { offsetInCU: 0xA5, offset: 0x1554E, size: 0x8, addend: 0x0, symName: _.str.3, symObjAddr: 0x27B20, symBinAddr: 0x100194B60, symSize: 0x0 }
  - { offsetInCU: 0xC2, offset: 0x1556B, size: 0x8, addend: 0x0, symName: _.str.4, symObjAddr: 0x27B40, symBinAddr: 0x100194B80, symSize: 0x0 }
  - { offsetInCU: 0xDF, offset: 0x15588, size: 0x8, addend: 0x0, symName: _.str.5, symObjAddr: 0x27B60, symBinAddr: 0x100194BA0, symSize: 0x0 }
  - { offsetInCU: 0xFC, offset: 0x155A5, size: 0x8, addend: 0x0, symName: _.str.6, symObjAddr: 0x27B80, symBinAddr: 0x100194BC0, symSize: 0x0 }
  - { offsetInCU: 0x119, offset: 0x155C2, size: 0x8, addend: 0x0, symName: _.str.7, symObjAddr: 0x27BA0, symBinAddr: 0x100194BE0, symSize: 0x0 }
  - { offsetInCU: 0x136, offset: 0x155DF, size: 0x8, addend: 0x0, symName: _.str.8, symObjAddr: 0x27BC0, symBinAddr: 0x100194C00, symSize: 0x0 }
  - { offsetInCU: 0x153, offset: 0x155FC, size: 0x8, addend: 0x0, symName: _.str.9, symObjAddr: 0x27C20, symBinAddr: 0x100194C60, symSize: 0x0 }
  - { offsetInCU: 0x164, offset: 0x1560D, size: 0x8, addend: 0x0, symName: _.str.10, symObjAddr: 0x27C40, symBinAddr: 0x100194C80, symSize: 0x0 }
  - { offsetInCU: 0x175, offset: 0x1561E, size: 0x8, addend: 0x0, symName: _.str.11, symObjAddr: 0x27C60, symBinAddr: 0x100194CA0, symSize: 0x0 }
  - { offsetInCU: 0x186, offset: 0x1562F, size: 0x8, addend: 0x0, symName: _.str.12, symObjAddr: 0x27C80, symBinAddr: 0x100194CC0, symSize: 0x0 }
  - { offsetInCU: 0x197, offset: 0x15640, size: 0x8, addend: 0x0, symName: _.str.13, symObjAddr: 0x27CA0, symBinAddr: 0x100194CE0, symSize: 0x0 }
  - { offsetInCU: 0x1A8, offset: 0x15651, size: 0x8, addend: 0x0, symName: _.str.14, symObjAddr: 0x27CC0, symBinAddr: 0x100194D00, symSize: 0x0 }
  - { offsetInCU: 0x1C5, offset: 0x1566E, size: 0x8, addend: 0x0, symName: _.str.15, symObjAddr: 0x27D20, symBinAddr: 0x100194D60, symSize: 0x0 }
  - { offsetInCU: 0x1E2, offset: 0x1568B, size: 0x8, addend: 0x0, symName: _.str.16, symObjAddr: 0x27D80, symBinAddr: 0x100194DC0, symSize: 0x0 }
  - { offsetInCU: 0x1FF, offset: 0x156A8, size: 0x8, addend: 0x0, symName: _.str.17, symObjAddr: 0x27DC0, symBinAddr: 0x100194E00, symSize: 0x0 }
  - { offsetInCU: 0x210, offset: 0x156B9, size: 0x8, addend: 0x0, symName: _.str.18, symObjAddr: 0x27DE0, symBinAddr: 0x100194E20, symSize: 0x0 }
  - { offsetInCU: 0x221, offset: 0x156CA, size: 0x8, addend: 0x0, symName: _.str.19, symObjAddr: 0x27E00, symBinAddr: 0x100194E40, symSize: 0x0 }
  - { offsetInCU: 0x23E, offset: 0x156E7, size: 0x8, addend: 0x0, symName: _.str.20, symObjAddr: 0x27E40, symBinAddr: 0x100194E80, symSize: 0x0 }
  - { offsetInCU: 0x25B, offset: 0x15704, size: 0x8, addend: 0x0, symName: _.str.21, symObjAddr: 0x27E80, symBinAddr: 0x100194EC0, symSize: 0x0 }
  - { offsetInCU: 0x278, offset: 0x15721, size: 0x8, addend: 0x0, symName: _.str.22, symObjAddr: 0x27EE0, symBinAddr: 0x100194F20, symSize: 0x0 }
  - { offsetInCU: 0x289, offset: 0x15732, size: 0x8, addend: 0x0, symName: _.str.23, symObjAddr: 0x27F00, symBinAddr: 0x100194F40, symSize: 0x0 }
  - { offsetInCU: 0x2A6, offset: 0x1574F, size: 0x8, addend: 0x0, symName: _.str.24, symObjAddr: 0x27F20, symBinAddr: 0x100194F60, symSize: 0x0 }
  - { offsetInCU: 0x2B7, offset: 0x15760, size: 0x8, addend: 0x0, symName: _.str.25, symObjAddr: 0x27F40, symBinAddr: 0x100194F80, symSize: 0x0 }
  - { offsetInCU: 0x2C8, offset: 0x15771, size: 0x8, addend: 0x0, symName: _.str.26, symObjAddr: 0x27F80, symBinAddr: 0x100194FC0, symSize: 0x0 }
  - { offsetInCU: 0x2E5, offset: 0x1578E, size: 0x8, addend: 0x0, symName: _.str.27, symObjAddr: 0x27FE0, symBinAddr: 0x100195020, symSize: 0x0 }
  - { offsetInCU: 0x302, offset: 0x157AB, size: 0x8, addend: 0x0, symName: _.str.28, symObjAddr: 0x28000, symBinAddr: 0x100195040, symSize: 0x0 }
  - { offsetInCU: 0x313, offset: 0x157BC, size: 0x8, addend: 0x0, symName: _.str.29, symObjAddr: 0x28020, symBinAddr: 0x100195060, symSize: 0x0 }
  - { offsetInCU: 0x330, offset: 0x157D9, size: 0x8, addend: 0x0, symName: _.str.30, symObjAddr: 0x28040, symBinAddr: 0x100195080, symSize: 0x0 }
  - { offsetInCU: 0x341, offset: 0x157EA, size: 0x8, addend: 0x0, symName: _.str.31, symObjAddr: 0x28060, symBinAddr: 0x1001950A0, symSize: 0x0 }
  - { offsetInCU: 0x352, offset: 0x157FB, size: 0x8, addend: 0x0, symName: _.str.32, symObjAddr: 0x280A0, symBinAddr: 0x1001950E0, symSize: 0x0 }
  - { offsetInCU: 0x363, offset: 0x1580C, size: 0x8, addend: 0x0, symName: _.str.33, symObjAddr: 0x280C0, symBinAddr: 0x100195100, symSize: 0x0 }
  - { offsetInCU: 0x374, offset: 0x1581D, size: 0x8, addend: 0x0, symName: _.str.34, symObjAddr: 0x280E0, symBinAddr: 0x100195120, symSize: 0x0 }
  - { offsetInCU: 0x385, offset: 0x1582E, size: 0x8, addend: 0x0, symName: _.str.35, symObjAddr: 0x28100, symBinAddr: 0x100195140, symSize: 0x0 }
  - { offsetInCU: 0x396, offset: 0x1583F, size: 0x8, addend: 0x0, symName: _.str.36, symObjAddr: 0x28120, symBinAddr: 0x100195160, symSize: 0x0 }
  - { offsetInCU: 0x3A7, offset: 0x15850, size: 0x8, addend: 0x0, symName: _.str.37, symObjAddr: 0x28140, symBinAddr: 0x100195180, symSize: 0x0 }
  - { offsetInCU: 0x3B8, offset: 0x15861, size: 0x8, addend: 0x0, symName: _.str.38, symObjAddr: 0x28160, symBinAddr: 0x1001951A0, symSize: 0x0 }
  - { offsetInCU: 0x3D5, offset: 0x1587E, size: 0x8, addend: 0x0, symName: _.str.39, symObjAddr: 0x28180, symBinAddr: 0x1001951C0, symSize: 0x0 }
  - { offsetInCU: 0x3F2, offset: 0x1589B, size: 0x8, addend: 0x0, symName: _.str.40, symObjAddr: 0x281C0, symBinAddr: 0x100195200, symSize: 0x0 }
  - { offsetInCU: 0x410, offset: 0x158B9, size: 0x8, addend: 0x0, symName: _.str.41, symObjAddr: 0x282C0, symBinAddr: 0x1001A36E0, symSize: 0x0 }
  - { offsetInCU: 0x42F, offset: 0x158D8, size: 0x8, addend: 0x0, symName: _.str.42, symObjAddr: 0x282A0, symBinAddr: 0x1001952E0, symSize: 0x0 }
  - { offsetInCU: 0x15376, offset: 0x2A81F, size: 0x8, addend: 0x0, symName: __ZNSt3__17advanceB8ue170006IPNS_12basic_stringIcNS_11char_traitsIcEENS_9allocatorIcEEEEllvEEvRT_T0_, symObjAddr: 0xEFAC, symBinAddr: 0x100025624, symSize: 0x38 }
  - { offsetInCU: 0x155F6, offset: 0x2AA9F, size: 0x8, addend: 0x0, symName: __ZNSt3__17advanceB8ue170006INS_16reverse_iteratorIPNS_12basic_stringIcNS_11char_traitsIcEENS_9allocatorIcEEEEEEllvEEvRT_T0_, symObjAddr: 0x102A8, symBinAddr: 0x100026920, symSize: 0x38 }
  - { offsetInCU: 0x17B66, offset: 0x2D00F, size: 0x8, addend: 0x0, symName: __ZNSt3__17getlineB8ue170006IcNS_11char_traitsIcEENS_9allocatorIcEEEERNS_13basic_istreamIT_T0_EES9_RNS_12basic_stringIS6_S7_T1_EES6_, symObjAddr: 0x750, symBinAddr: 0x100017818, symSize: 0x688 }
  - { offsetInCU: 0x17C42, offset: 0x2D0EB, size: 0x8, addend: 0x0, symName: __ZNSt3__1neB8ue170006IPP7CommandEEbRKNS_11__wrap_iterIT_EES8_, symObjAddr: 0x2F80, symBinAddr: 0x100019F80, symSize: 0x34 }
  - { offsetInCU: 0x17C85, offset: 0x2D12E, size: 0x8, addend: 0x0, symName: __ZNSt3__17getlineB8ue170006IcNS_11char_traitsIcEENS_9allocatorIcEEEERNS_13basic_istreamIT_T0_EES9_RNS_12basic_stringIS6_S7_T1_EE, symObjAddr: 0x3FB4, symBinAddr: 0x10001AFB4, symSize: 0xD8 }
  - { offsetInCU: 0x17CDD, offset: 0x2D186, size: 0x8, addend: 0x0, symName: __ZNSt3__1rsB8ue170006IcNS_11char_traitsIcEENS_9allocatorIcEEEERNS_13basic_istreamIT_T0_EES9_RNS_12basic_stringIS6_S7_T1_EE, symObjAddr: 0x6D90, symBinAddr: 0x10001DC90, symSize: 0x98C }
  - { offsetInCU: 0x17DB6, offset: 0x2D25F, size: 0x8, addend: 0x0, symName: __ZNSt3__1eqB8ue170006IcNS_11char_traitsIcEENS_9allocatorIcEEEEbRKNS_12basic_stringIT_T0_T1_EEPKS6_, symObjAddr: 0x771C, symBinAddr: 0x10001E61C, symSize: 0x2EC }
  - { offsetInCU: 0x17E10, offset: 0x2D2B9, size: 0x8, addend: 0x0, symName: __ZNSt3__1eqB8ue170006ERKNS_21__tree_const_iteratorINS_12basic_stringIcNS_11char_traitsIcEENS_9allocatorIcEEEEPNS_11__tree_nodeIS6_PvEElEESD_, symObjAddr: 0x7AE8, symBinAddr: 0x10001E9E8, symSize: 0xB8 }
  - { offsetInCU: 0x17E4D, offset: 0x2D2F6, size: 0x8, addend: 0x0, symName: __ZNSt3__1plB8ue170006IcNS_11char_traitsIcEENS_9allocatorIcEEEENS_12basic_stringIT_T0_T1_EEOS9_PKS6_, symObjAddr: 0x83B8, symBinAddr: 0x10001F2B8, symSize: 0x40 }
  - { offsetInCU: 0x17EA5, offset: 0x2D34E, size: 0x8, addend: 0x0, symName: __ZNSt3__1eqB8ue170006INS_9allocatorIcEEEEbRKNS_12basic_stringIcNS_11char_traitsIcEET_EES9_, symObjAddr: 0x83F8, symBinAddr: 0x10001F2F8, symSize: 0x234 }
  - { offsetInCU: 0x18789, offset: 0x2DC32, size: 0x8, addend: 0x0, symName: __ZNSt3__112__to_addressB8ue170006INS_12basic_stringIcNS_11char_traitsIcEENS_9allocatorIcEEEEEEPT_S8_, symObjAddr: 0xB64C, symBinAddr: 0x100022410, symSize: 0x14 }
  - { offsetInCU: 0x187E3, offset: 0x2DC8C, size: 0x8, addend: 0x0, symName: __ZNSt3__112construct_atB8ue170006INS_12basic_stringIcNS_11char_traitsIcEENS_9allocatorIcEEEEJRKS6_EPS6_EEPT_SB_DpOT0_, symObjAddr: 0xBB34, symBinAddr: 0x1000228F8, symSize: 0x3C }
  - { offsetInCU: 0x18853, offset: 0x2DCFC, size: 0x8, addend: 0x0, symName: __ZNSt3__119__allocate_at_leastB8ue170006INS_9allocatorINS_12basic_stringIcNS_11char_traitsIcEENS1_IcEEEEEEEENS_19__allocation_resultINS_16allocator_traitsIT_E7pointerEEERSA_m, symObjAddr: 0xD7B8, symBinAddr: 0x100023F38, symSize: 0x28C }
  - { offsetInCU: 0x18898, offset: 0x2DD41, size: 0x8, addend: 0x0, symName: __ZNSt3__142__uninitialized_allocator_move_if_noexceptB8ue170006INS_9allocatorINS_12basic_stringIcNS_11char_traitsIcEENS1_IcEEEEEENS_16reverse_iteratorIPS6_EESA_SA_EET2_RT_T0_T1_SB_, symObjAddr: 0xDE48, symBinAddr: 0x1000244C0, symSize: 0x544 }
  - { offsetInCU: 0x1894D, offset: 0x2DDF6, size: 0x8, addend: 0x0, symName: __ZNSt3__14swapB8ue170006IPNS_12basic_stringIcNS_11char_traitsIcEENS_9allocatorIcEEEEEENS_9enable_ifIXaasr21is_move_constructibleIT_EE5valuesr18is_move_assignableIS9_EE5valueEvE4typeERS9_SC_, symObjAddr: 0xE424, symBinAddr: 0x100024A9C, symSize: 0x134 }
  - { offsetInCU: 0x1899E, offset: 0x2DE47, size: 0x8, addend: 0x0, symName: __ZNSt3__122__make_exception_guardB8ue170006INS_29_AllocatorDestroyRangeReverseINS_9allocatorINS_12basic_stringIcNS_11char_traitsIcEENS2_IcEEEEEENS_16reverse_iteratorIPS7_EEEEEENS_28__exception_guard_exceptionsIT_EESE_, symObjAddr: 0xE634, symBinAddr: 0x100024CAC, symSize: 0x1F8 }
  - { offsetInCU: 0x189D5, offset: 0x2DE7E, size: 0x8, addend: 0x0, symName: __ZNSt3__1neB8ue170006IPNS_12basic_stringIcNS_11char_traitsIcEENS_9allocatorIcEEEES7_EEbRKNS_16reverse_iteratorIT_EERKNS8_IT0_EE, symObjAddr: 0xE870, symBinAddr: 0x100024EE8, symSize: 0x48 }
  - { offsetInCU: 0x18A21, offset: 0x2DECA, size: 0x8, addend: 0x0, symName: __ZNSt3__112__to_addressB8ue170006INS_16reverse_iteratorIPNS_12basic_stringIcNS_11char_traitsIcEENS_9allocatorIcEEEEEEvEEu7__decayIDTclsr19__to_address_helperIT_EE6__callclsr3stdE7declvalIRKSA_EEEEESC_, symObjAddr: 0xE8E8, symBinAddr: 0x100024F60, symSize: 0x24 }
  - { offsetInCU: 0x18A57, offset: 0x2DF00, size: 0x8, addend: 0x0, symName: __ZNSt3__112construct_atB8ue170006INS_12basic_stringIcNS_11char_traitsIcEENS_9allocatorIcEEEEJS6_EPS6_EEPT_S9_DpOT0_, symObjAddr: 0xEC80, symBinAddr: 0x1000252F8, symSize: 0x3C }
  - { offsetInCU: 0x18AF1, offset: 0x2DF9A, size: 0x8, addend: 0x0, symName: __ZNSt3__14prevB8ue170006IPNS_12basic_stringIcNS_11char_traitsIcEENS_9allocatorIcEEEEEENS_9enable_ifIXsr29__has_input_iterator_categoryIT_EE5valueES9_E4typeES9_NS_15iterator_traitsIS9_E15difference_typeE, symObjAddr: 0xED6C, symBinAddr: 0x1000253E4, symSize: 0x240 }
  - { offsetInCU: 0x18B39, offset: 0x2DFE2, size: 0x8, addend: 0x0, symName: __ZNSt3__121__convert_to_integralB8ue170006El, symObjAddr: 0xEFE4, symBinAddr: 0x10002565C, symSize: 0x14 }
  - { offsetInCU: 0x18B65, offset: 0x2E00E, size: 0x8, addend: 0x0, symName: __ZNSt3__19__advanceB8ue170006IPNS_12basic_stringIcNS_11char_traitsIcEENS_9allocatorIcEEEEEEvRT_NS_15iterator_traitsIS8_E15difference_typeENS_26random_access_iterator_tagE, symObjAddr: 0xEFF8, symBinAddr: 0x100025670, symSize: 0x80 }
  - { offsetInCU: 0x18BB0, offset: 0x2E059, size: 0x8, addend: 0x0, symName: __ZNSt3__119__allocator_destroyB8ue170006INS_9allocatorINS_12basic_stringIcNS_11char_traitsIcEENS1_IcEEEEEENS_16reverse_iteratorINS8_IPS6_EEEESB_EEvRT_T0_T1_, symObjAddr: 0xF4DC, symBinAddr: 0x100025B54, symSize: 0x70 }
  - { offsetInCU: 0x18C14, offset: 0x2E0BD, size: 0x8, addend: 0x0, symName: __ZNSt3__1neB8ue170006INS_16reverse_iteratorIPNS_12basic_stringIcNS_11char_traitsIcEENS_9allocatorIcEEEEEES9_EEbRKNS1_IT_EERKNS1_IT0_EE, symObjAddr: 0xF794, symBinAddr: 0x100025E0C, symSize: 0x2CC }
  - { offsetInCU: 0x18C62, offset: 0x2E10B, size: 0x8, addend: 0x0, symName: __ZNSt3__112__to_addressB8ue170006INS_16reverse_iteratorINS1_IPNS_12basic_stringIcNS_11char_traitsIcEENS_9allocatorIcEEEEEEEEvEEu7__decayIDTclsr19__to_address_helperIT_EE6__callclsr3stdE7declvalIRKSB_EEEEESD_, symObjAddr: 0xFA88, symBinAddr: 0x100026100, symSize: 0x24 }
  - { offsetInCU: 0x18C98, offset: 0x2E141, size: 0x8, addend: 0x0, symName: __ZNSt3__110destroy_atB8ue170006INS_12basic_stringIcNS_11char_traitsIcEENS_9allocatorIcEEEELi0EEEvPT_, symObjAddr: 0xFCE8, symBinAddr: 0x100026360, symSize: 0x24 }
  - { offsetInCU: 0x18CCF, offset: 0x2E178, size: 0x8, addend: 0x0, symName: __ZNSt3__112__destroy_atB8ue170006INS_12basic_stringIcNS_11char_traitsIcEENS_9allocatorIcEEEELi0EEEvPT_, symObjAddr: 0xFD0C, symBinAddr: 0x100026384, symSize: 0x24 }
  - { offsetInCU: 0x18D30, offset: 0x2E1D9, size: 0x8, addend: 0x0, symName: __ZNSt3__14prevB8ue170006INS_16reverse_iteratorIPNS_12basic_stringIcNS_11char_traitsIcEENS_9allocatorIcEEEEEEEENS_9enable_ifIXsr29__has_input_iterator_categoryIT_EE5valueESB_E4typeESB_NS_15iterator_traitsISB_E15difference_typeE, symObjAddr: 0x10014, symBinAddr: 0x10002668C, symSize: 0x294 }
  - { offsetInCU: 0x18D78, offset: 0x2E221, size: 0x8, addend: 0x0, symName: __ZNSt3__19__advanceB8ue170006INS_16reverse_iteratorIPNS_12basic_stringIcNS_11char_traitsIcEENS_9allocatorIcEEEEEEEEvRT_NS_15iterator_traitsISA_E15difference_typeENS_26random_access_iterator_tagE, symObjAddr: 0x102E0, symBinAddr: 0x100026958, symSize: 0x2C }
  - { offsetInCU: 0x18DC2, offset: 0x2E26B, size: 0x8, addend: 0x0, symName: __ZNSt3__1eqB8ue170006IPP7CommandEEbRKNS_11__wrap_iterIT_EES8_, symObjAddr: 0x11E98, symBinAddr: 0x100028194, symSize: 0x48 }
  - { offsetInCU: 0x18E05, offset: 0x2E2AE, size: 0x8, addend: 0x0, symName: __ZNSt3__112__to_addressB8ue170006IP7CommandEEPT_S4_, symObjAddr: 0x12760, symBinAddr: 0x100028A5C, symSize: 0x14 }
  - { offsetInCU: 0x18E5F, offset: 0x2E308, size: 0x8, addend: 0x0, symName: __ZNSt3__112construct_atB8ue170006IP7CommandJS2_EPS2_EEPT_S5_DpOT0_, symObjAddr: 0x12CD0, symBinAddr: 0x100028FCC, symSize: 0xB8 }
  - { offsetInCU: 0x18ECF, offset: 0x2E378, size: 0x8, addend: 0x0, symName: __ZNSt3__119__allocate_at_leastB8ue170006INS_9allocatorIP7CommandEEEENS_19__allocation_resultINS_16allocator_traitsIT_E7pointerEEERS7_m, symObjAddr: 0x14360, symBinAddr: 0x10002A65C, symSize: 0x28C }
  - { offsetInCU: 0x18F14, offset: 0x2E3BD, size: 0x8, addend: 0x0, symName: __ZNSt3__142__uninitialized_allocator_move_if_noexceptB8ue170006INS_9allocatorIP7CommandEENS_16reverse_iteratorIPS3_EES7_S3_vEET1_RT_T0_SB_S8_, symObjAddr: 0x148C8, symBinAddr: 0x10002ABC4, symSize: 0x4A8 }
  - { offsetInCU: 0x18F9E, offset: 0x2E447, size: 0x8, addend: 0x0, symName: __ZNSt3__14swapB8ue170006IPP7CommandEENS_9enable_ifIXaasr21is_move_constructibleIT_EE5valuesr18is_move_assignableIS5_EE5valueEvE4typeERS5_S8_, symObjAddr: 0x14E08, symBinAddr: 0x10002B104, symSize: 0x134 }
  - { offsetInCU: 0x18FEF, offset: 0x2E498, size: 0x8, addend: 0x0, symName: __ZNSt3__14moveB8ue170006INS_16reverse_iteratorIPP7CommandEES5_EET0_T_S7_S6_, symObjAddr: 0x14FFC, symBinAddr: 0x10002B2F8, symSize: 0x4B0 }
  - { offsetInCU: 0x19056, offset: 0x2E4FF, size: 0x8, addend: 0x0, symName: __ZNSt3__16__moveB8ue170006INS_17_ClassicAlgPolicyENS_16reverse_iteratorIPP7CommandEES6_S6_EENS_4pairIT0_T2_EES8_T1_S9_, symObjAddr: 0x154AC, symBinAddr: 0x10002B7A8, symSize: 0x424 }
  - { offsetInCU: 0x190CE, offset: 0x2E577, size: 0x8, addend: 0x0, symName: __ZNSt3__123__dispatch_copy_or_moveB8ue170006INS_17_ClassicAlgPolicyENS_11__move_loopIS1_EENS_14__move_trivialENS_16reverse_iteratorIPP7CommandEES9_S9_EENS_4pairIT2_T4_EESB_T3_SC_, symObjAddr: 0x158D0, symBinAddr: 0x10002BBCC, symSize: 0x424 }
  - { offsetInCU: 0x19158, offset: 0x2E601, size: 0x8, addend: 0x0, symName: __ZNSt3__121__unwrap_and_dispatchB8ue170006INS_10__overloadINS_11__move_loopINS_17_ClassicAlgPolicyEEENS_14__move_trivialEEENS_16reverse_iteratorIPP7CommandEESB_SB_Li0EEENS_4pairIT0_T2_EESD_T1_SE_, symObjAddr: 0x15CF4, symBinAddr: 0x10002BFF0, symSize: 0x880 }
  - { offsetInCU: 0x191FC, offset: 0x2E6A5, size: 0x8, addend: 0x0, symName: __ZNSt3__114__unwrap_rangeB8ue170006INS_16reverse_iteratorIPP7CommandEES5_EEDaT_T0_, symObjAddr: 0x16574, symBinAddr: 0x10002C870, symSize: 0x35C }
  - { offsetInCU: 0x19376, offset: 0x2E81F, size: 0x8, addend: 0x0, symName: __ZNSt3__113__unwrap_iterB8ue170006INS_16reverse_iteratorIPP7CommandEENS_18__unwrap_iter_implIS5_Lb0EEELi0EEEDTclsrT0_8__unwrapclsr3stdE7declvalIT_EEEES9_, symObjAddr: 0x16C78, symBinAddr: 0x10002CF74, symSize: 0x2EC }
  - { offsetInCU: 0x193BE, offset: 0x2E867, size: 0x8, addend: 0x0, symName: __ZNSt3__19make_pairB8ue170006INS_16reverse_iteratorIPP7CommandEES5_EENS_4pairINS_18__unwrap_ref_decayIT_E4typeENS7_IT0_E4typeEEEOS8_OSB_, symObjAddr: 0x16F64, symBinAddr: 0x10002D260, symSize: 0x38 }
  - { offsetInCU: 0x1940D, offset: 0x2E8B6, size: 0x8, addend: 0x0, symName: __ZNSt3__114__rewrap_rangeB8ue170006INS_16reverse_iteratorIPP7CommandEES5_S5_EET0_S6_T1_, symObjAddr: 0x16F9C, symBinAddr: 0x10002D298, symSize: 0x3D4 }
  - { offsetInCU: 0x1946A, offset: 0x2E913, size: 0x8, addend: 0x0, symName: __ZNSt3__113__rewrap_iterB8ue170006INS_16reverse_iteratorIPP7CommandEES5_NS_18__unwrap_iter_implIS5_Lb0EEEEET_S8_T0_, symObjAddr: 0x17370, symBinAddr: 0x10002D66C, symSize: 0x3E8 }
  - { offsetInCU: 0x19517, offset: 0x2E9C0, size: 0x8, addend: 0x0, symName: __ZNSt3__1neB8ue170006IPP7CommandS3_EEbRKNS_16reverse_iteratorIT_EERKNS4_IT0_EE, symObjAddr: 0x17C30, symBinAddr: 0x10002DF2C, symSize: 0x48 }
  - { offsetInCU: 0x19615, offset: 0x2EABE, size: 0x8, addend: 0x0, symName: __ZNSt3__110destroy_atB8ue170006IP7CommandLi0EEEvPT_, symObjAddr: 0x18B20, symBinAddr: 0x10002EE1C, symSize: 0x24 }
  - { offsetInCU: 0x1964D, offset: 0x2EAF6, size: 0x8, addend: 0x0, symName: __ZNSt3__112__destroy_atB8ue170006IP7CommandLi0EEEvPT_, symObjAddr: 0x18B44, symBinAddr: 0x10002EE40, symSize: 0x10 }
  - { offsetInCU: 0x19683, offset: 0x2EB2C, size: 0x8, addend: 0x0, symName: __ZNSt3__112construct_atB8ue170006IP7CommandJRKS2_EPS2_EEPT_S7_DpOT0_, symObjAddr: 0x19984, symBinAddr: 0x10002FC80, symSize: 0xB8 }
  - { offsetInCU: 0x196F3, offset: 0x2EB9C, size: 0x8, addend: 0x0, symName: __ZNSt3__1eqB8ue170006IcNS_11char_traitsIcEEEEbNS_17basic_string_viewIT_T0_EES6_, symObjAddr: 0x19A3C, symBinAddr: 0x10002FD38, symSize: 0x348 }
  - { offsetInCU: 0x1974A, offset: 0x2EBF3, size: 0x8, addend: 0x0, symName: __ZNSt3__128__char_traits_length_checkedB8ue170006INS_11char_traitsIcEEEEmPKNT_9char_typeE, symObjAddr: 0x1AA40, symBinAddr: 0x1000309C4, symSize: 0x24 }
  - { offsetInCU: 0x197B4, offset: 0x2EC5D, size: 0x8, addend: 0x0, symName: __ZNSt3__1neB8ue170006ERKNS_21__tree_const_iteratorINS_12basic_stringIcNS_11char_traitsIcEENS_9allocatorIcEEEEPNS_11__tree_nodeIS6_PvEElEESD_, symObjAddr: 0x1FA60, symBinAddr: 0x100033C80, symSize: 0x34 }
  - { offsetInCU: 0x197F1, offset: 0x2EC9A, size: 0x8, addend: 0x0, symName: __ZNSt3__1ltB8ue170006ENS_15strong_orderingENS_20_CmpUnspecifiedParamE, symObjAddr: 0x20F7C, symBinAddr: 0x10003519C, symSize: 0x274 }
  - { offsetInCU: 0x1982F, offset: 0x2ECD8, size: 0x8, addend: 0x0, symName: __ZNSt3__1ssB8ue170006IcNS_11char_traitsIcEENS_9allocatorIcEEEEDaRKNS_12basic_stringIT_T0_T1_EESC_, symObjAddr: 0x211F0, symBinAddr: 0x100035410, symSize: 0x3AC }
  - { offsetInCU: 0x198A5, offset: 0x2ED4E, size: 0x8, addend: 0x0, symName: __ZNSt3__1ssB8ue170006IcNS_11char_traitsIcEEEEDaNS_17basic_string_viewIT_T0_EES7_, symObjAddr: 0x215D0, symBinAddr: 0x1000357F0, symSize: 0x3E8 }
  - { offsetInCU: 0x198FD, offset: 0x2EDA6, size: 0x8, addend: 0x0, symName: __ZNSt3__127__tree_balance_after_insertB8ue170006IPNS_16__tree_node_baseIPvEEEEvT_S5_, symObjAddr: 0x219D0, symBinAddr: 0x100035BF0, symSize: 0x960 }
  - { offsetInCU: 0x19970, offset: 0x2EE19, size: 0x8, addend: 0x0, symName: __ZNSt3__120__tree_is_left_childB8ue170006IPNS_16__tree_node_baseIPvEEEEbT_, symObjAddr: 0x22394, symBinAddr: 0x1000365B4, symSize: 0xB8 }
  - { offsetInCU: 0x199A6, offset: 0x2EE4F, size: 0x8, addend: 0x0, symName: __ZNSt3__118__tree_left_rotateB8ue170006IPNS_16__tree_node_baseIPvEEEEvT_, symObjAddr: 0x2244C, symBinAddr: 0x10003666C, symSize: 0x374 }
  - { offsetInCU: 0x199E8, offset: 0x2EE91, size: 0x8, addend: 0x0, symName: __ZNSt3__119__tree_right_rotateB8ue170006IPNS_16__tree_node_baseIPvEEEEvT_, symObjAddr: 0x227C0, symBinAddr: 0x1000369E0, symSize: 0x354 }
  - { offsetInCU: 0x19A29, offset: 0x2EED2, size: 0x8, addend: 0x0, symName: __ZNSt3__111__tree_leafB8ue170006IPNS_16__tree_node_baseIPvEEEET_S5_, symObjAddr: 0x22F18, symBinAddr: 0x100037138, symSize: 0x164 }
  - { offsetInCU: 0x19A5E, offset: 0x2EF07, size: 0x8, addend: 0x0, symName: __ZNSt3__116__tree_next_iterB8ue170006IPNS_15__tree_end_nodeIPNS_16__tree_node_baseIPvEEEES5_EET_T0_, symObjAddr: 0x2307C, symBinAddr: 0x10003729C, symSize: 0x134 }
  - { offsetInCU: 0x19A9C, offset: 0x2EF45, size: 0x8, addend: 0x0, symName: __ZNSt3__110__tree_minB8ue170006IPNS_16__tree_node_baseIPvEEEET_S5_, symObjAddr: 0x231B0, symBinAddr: 0x1000373D0, symSize: 0xC4 }
  - { offsetInCU: 0x19AEF, offset: 0x2EF98, size: 0x8, addend: 0x0, symName: __ZNSt3__1neB8ue170006ERKNS_15__tree_iteratorINS_12basic_stringIcNS_11char_traitsIcEENS_9allocatorIcEEEEPNS_11__tree_nodeIS6_PvEElEESD_, symObjAddr: 0x254DC, symBinAddr: 0x1000396FC, symSize: 0x34 }
  - { offsetInCU: 0x19B2C, offset: 0x2EFD5, size: 0x8, addend: 0x0, symName: __ZNSt3__1eqB8ue170006ERKNS_15__tree_iteratorINS_12basic_stringIcNS_11char_traitsIcEENS_9allocatorIcEEEEPNS_11__tree_nodeIS6_PvEElEESD_, symObjAddr: 0x257E0, symBinAddr: 0x100039A00, symSize: 0xB8 }
  - { offsetInCU: 0x1C4CB, offset: 0x31974, size: 0x8, addend: 0x0, symName: __ZNSt3__16vectorINS_12basic_stringIcNS_11char_traitsIcEENS_9allocatorIcEEEENS4_IS6_EEE26__swap_out_circular_bufferERNS_14__split_bufferIS6_RS7_EE, symObjAddr: 0xC2CC, symBinAddr: 0x100023090, symSize: 0x56C }
  - { offsetInCU: 0x1C565, offset: 0x31A0E, size: 0x8, addend: 0x0, symName: __ZNSt3__16vectorIP7CommandNS_9allocatorIS2_EEE26__swap_out_circular_bufferERNS_14__split_bufferIS2_RS4_EE, symObjAddr: 0x134C8, symBinAddr: 0x1000297C4, symSize: 0x56C }
  - { offsetInCU: 0x1E64C, offset: 0x33AF5, size: 0x8, addend: 0x0, symName: __Z5splitRKNSt3__112basic_stringIcNS_11char_traitsIcEENS_9allocatorIcEEEEc, symObjAddr: 0x0, symBinAddr: 0x1000170C8, symSize: 0x528 }
  - { offsetInCU: 0x1E6BE, offset: 0x33B67, size: 0x8, addend: 0x0, symName: __ZNSt3__16vectorINS_12basic_stringIcNS_11char_traitsIcEENS_9allocatorIcEEEENS4_IS6_EEEC1B8ue170006Ev, symObjAddr: 0x528, symBinAddr: 0x1000175F0, symSize: 0x2C }
  - { offsetInCU: 0x1E710, offset: 0x33BB9, size: 0x8, addend: 0x0, symName: __ZNSt3__119basic_istringstreamIcNS_11char_traitsIcEENS_9allocatorIcEEEC1B8ue170006ERKNS_12basic_stringIcS2_S4_EEj, symObjAddr: 0x554, symBinAddr: 0x10001761C, symSize: 0x1D0 }
  - { offsetInCU: 0x1E758, offset: 0x33C01, size: 0x8, addend: 0x0, symName: __ZNSt3__112basic_stringIcNS_11char_traitsIcEENS_9allocatorIcEEEC1B8ue170006Ev, symObjAddr: 0x724, symBinAddr: 0x1000177EC, symSize: 0x2C }
  - { offsetInCU: 0x1E782, offset: 0x33C2B, size: 0x8, addend: 0x0, symName: __ZNKSt3__19basic_iosIcNS_11char_traitsIcEEEcvbB8ue170006Ev, symObjAddr: 0xDD8, symBinAddr: 0x100017EA0, symSize: 0x2C }
  - { offsetInCU: 0x1E7A8, offset: 0x33C51, size: 0x8, addend: 0x0, symName: __ZNSt3__16vectorINS_12basic_stringIcNS_11char_traitsIcEENS_9allocatorIcEEEENS4_IS6_EEE9push_backB8ue170006ERKS6_, symObjAddr: 0xE04, symBinAddr: 0x100017ECC, symSize: 0xE0 }
  - { offsetInCU: 0x1E7E4, offset: 0x33C8D, size: 0x8, addend: 0x0, symName: __ZNSt3__119basic_istringstreamIcNS_11char_traitsIcEENS_9allocatorIcEEED1Ev, symObjAddr: 0xEE4, symBinAddr: 0x100017FAC, symSize: 0x40 }
  - { offsetInCU: 0x1E811, offset: 0x33CBA, size: 0x8, addend: 0x0, symName: __ZNSt3__16vectorINS_12basic_stringIcNS_11char_traitsIcEENS_9allocatorIcEEEENS4_IS6_EEED1B8ue170006Ev, symObjAddr: 0xF24, symBinAddr: 0x100017FEC, symSize: 0x2C }
  - { offsetInCU: 0x1E83B, offset: 0x33CE4, size: 0x8, addend: 0x0, symName: __ZN7CommandC2ERKNSt3__112basic_stringIcNS0_11char_traitsIcEENS0_9allocatorIcEEEE, symObjAddr: 0xF50, symBinAddr: 0x100018018, symSize: 0x2D4 }
  - { offsetInCU: 0x1E87A, offset: 0x33D23, size: 0x8, addend: 0x0, symName: __ZN7CommandC1ERKNSt3__112basic_stringIcNS0_11char_traitsIcEENS0_9allocatorIcEEEE, symObjAddr: 0x1258, symBinAddr: 0x1000182EC, symSize: 0x34 }
  - { offsetInCU: 0x1E8B4, offset: 0x33D5D, size: 0x8, addend: 0x0, symName: __ZN7CommandC2ERKS_, symObjAddr: 0x128C, symBinAddr: 0x100018320, symSize: 0x3FC }
  - { offsetInCU: 0x1E8EE, offset: 0x33D97, size: 0x8, addend: 0x0, symName: __ZN7CommandC1ERKS_, symObjAddr: 0x1688, symBinAddr: 0x10001871C, symSize: 0x34 }
  - { offsetInCU: 0x1E928, offset: 0x33DD1, size: 0x8, addend: 0x0, symName: __ZN7CommandaSERKS_, symObjAddr: 0x16BC, symBinAddr: 0x100018750, symSize: 0x2B0 }
  - { offsetInCU: 0x1E95E, offset: 0x33E07, size: 0x8, addend: 0x0, symName: __ZN7CommandD2Ev, symObjAddr: 0x196C, symBinAddr: 0x100018A00, symSize: 0x1FC }
  - { offsetInCU: 0x1E98A, offset: 0x33E33, size: 0x8, addend: 0x0, symName: __ZN7CommandD1Ev, symObjAddr: 0x1B68, symBinAddr: 0x100018BFC, symSize: 0x2C }
  - { offsetInCU: 0x1E9B6, offset: 0x33E5F, size: 0x8, addend: 0x0, symName: __ZN7Command10saveEffectERKNSt3__112basic_stringIcNS0_11char_traitsIcEENS0_9allocatorIcEEEE, symObjAddr: 0x1B94, symBinAddr: 0x100018C28, symSize: 0xF8 }
  - { offsetInCU: 0x1E9EC, offset: 0x33E95, size: 0x8, addend: 0x0, symName: __ZN7Command8setValidEb, symObjAddr: 0x1C8C, symBinAddr: 0x100018D20, symSize: 0xEC }
  - { offsetInCU: 0x1EA22, offset: 0x33ECB, size: 0x8, addend: 0x0, symName: __ZNK7Command14getCommandTextEv, symObjAddr: 0x1D78, symBinAddr: 0x100018E0C, symSize: 0x78 }
  - { offsetInCU: 0x1EA4A, offset: 0x33EF3, size: 0x8, addend: 0x0, symName: __ZNK7Command8getValidEv, symObjAddr: 0x1DF0, symBinAddr: 0x100018E84, symSize: 0xC8 }
  - { offsetInCU: 0x1EA71, offset: 0x33F1A, size: 0x8, addend: 0x0, symName: __ZlsRNSt3__113basic_ostreamIcNS_11char_traitsIcEEEERK7Command, symObjAddr: 0x1EB8, symBinAddr: 0x100018F4C, symSize: 0xE8 }
  - { offsetInCU: 0x1EAAC, offset: 0x33F55, size: 0x8, addend: 0x0, symName: __ZN7Command11stringToLogEv, symObjAddr: 0x2034, symBinAddr: 0x100019034, symSize: 0x78 }
  - { offsetInCU: 0x1EAD4, offset: 0x33F7D, size: 0x8, addend: 0x0, symName: __ZThn16_N7Command11stringToLogEv, symObjAddr: 0x20AC, symBinAddr: 0x1000190AC, symSize: 0x20 }
  - { offsetInCU: 0x1EAEA, offset: 0x33F93, size: 0x8, addend: 0x0, symName: __ZN16CommandProcessorC2EP10GameEngine, symObjAddr: 0x20CC, symBinAddr: 0x1000190CC, symSize: 0x238 }
  - { offsetInCU: 0x1EB24, offset: 0x33FCD, size: 0x8, addend: 0x0, symName: __ZNSt3__13setINS_12basic_stringIcNS_11char_traitsIcEENS_9allocatorIcEEEENS_4lessIS6_EENS4_IS6_EEEC1B8ue170006Ev, symObjAddr: 0x2304, symBinAddr: 0x100019304, symSize: 0x2C }
  - { offsetInCU: 0x1EB4E, offset: 0x33FF7, size: 0x8, addend: 0x0, symName: __ZNSt3__16vectorIP7CommandNS_9allocatorIS2_EEEC1B8ue170006Ev, symObjAddr: 0x2330, symBinAddr: 0x100019330, symSize: 0x2C }
  - { offsetInCU: 0x1EB78, offset: 0x34021, size: 0x8, addend: 0x0, symName: __ZNSt3__13setINS_12basic_stringIcNS_11char_traitsIcEENS_9allocatorIcEEEENS_4lessIS6_EENS4_IS6_EEED1B8ue170006Ev, symObjAddr: 0x235C, symBinAddr: 0x10001935C, symSize: 0x2C }
  - { offsetInCU: 0x1EBA2, offset: 0x3404B, size: 0x8, addend: 0x0, symName: __ZN16CommandProcessorC1EP10GameEngine, symObjAddr: 0x2388, symBinAddr: 0x100019388, symSize: 0x34 }
  - { offsetInCU: 0x1EBDC, offset: 0x34085, size: 0x8, addend: 0x0, symName: __ZN16CommandProcessorC2ERKS_, symObjAddr: 0x23BC, symBinAddr: 0x1000193BC, symSize: 0x6F0 }
  - { offsetInCU: 0x1EC63, offset: 0x3410C, size: 0x8, addend: 0x0, symName: __ZNSt3__16vectorIP7CommandNS_9allocatorIS2_EEE5beginB8ue170006Ev, symObjAddr: 0x2AAC, symBinAddr: 0x100019AAC, symSize: 0x268 }
  - { offsetInCU: 0x1EC8C, offset: 0x34135, size: 0x8, addend: 0x0, symName: __ZNSt3__16vectorIP7CommandNS_9allocatorIS2_EEE3endB8ue170006Ev, symObjAddr: 0x2D14, symBinAddr: 0x100019D14, symSize: 0x26C }
  - { offsetInCU: 0x1ECB5, offset: 0x3415E, size: 0x8, addend: 0x0, symName: __ZNKSt3__111__wrap_iterIPP7CommandEdeB8ue170006Ev, symObjAddr: 0x2FB4, symBinAddr: 0x100019FB4, symSize: 0x60 }
  - { offsetInCU: 0x1ECDB, offset: 0x34184, size: 0x8, addend: 0x0, symName: __ZNSt3__16vectorIP7CommandNS_9allocatorIS2_EEE9push_backB8ue170006EOS2_, symObjAddr: 0x3014, symBinAddr: 0x10001A014, symSize: 0xE0 }
  - { offsetInCU: 0x1ED12, offset: 0x341BB, size: 0x8, addend: 0x0, symName: __ZNSt3__111__wrap_iterIPP7CommandEppB8ue170006Ev, symObjAddr: 0x30F4, symBinAddr: 0x10001A0F4, symSize: 0x68 }
  - { offsetInCU: 0x1ED38, offset: 0x341E1, size: 0x8, addend: 0x0, symName: __ZN16CommandProcessorC1ERKS_, symObjAddr: 0x315C, symBinAddr: 0x10001A15C, symSize: 0x34 }
  - { offsetInCU: 0x1ED72, offset: 0x3421B, size: 0x8, addend: 0x0, symName: __ZN16CommandProcessoraSERKS_, symObjAddr: 0x3190, symBinAddr: 0x10001A190, symSize: 0x7C8 }
  - { offsetInCU: 0x1EE51, offset: 0x342FA, size: 0x8, addend: 0x0, symName: __ZNSt3__16vectorIP7CommandNS_9allocatorIS2_EEE5clearB8ue170006Ev, symObjAddr: 0x3958, symBinAddr: 0x10001A958, symSize: 0x44 }
  - { offsetInCU: 0x1EE86, offset: 0x3432F, size: 0x8, addend: 0x0, symName: __ZNSt3__13setINS_12basic_stringIcNS_11char_traitsIcEENS_9allocatorIcEEEENS_4lessIS6_EENS4_IS6_EEEaSB8ue170006ERKSA_, symObjAddr: 0x399C, symBinAddr: 0x10001A99C, symSize: 0x34 }
  - { offsetInCU: 0x1EEBB, offset: 0x34364, size: 0x8, addend: 0x0, symName: __ZN16CommandProcessorD2Ev, symObjAddr: 0x39D0, symBinAddr: 0x10001A9D0, symSize: 0x4A0 }
  - { offsetInCU: 0x1EF43, offset: 0x343EC, size: 0x8, addend: 0x0, symName: __ZNSt3__16vectorIP7CommandNS_9allocatorIS2_EEED1B8ue170006Ev, symObjAddr: 0x3E70, symBinAddr: 0x10001AE70, symSize: 0x2C }
  - { offsetInCU: 0x1EF6D, offset: 0x34416, size: 0x8, addend: 0x0, symName: __ZN16CommandProcessorD1Ev, symObjAddr: 0x3E9C, symBinAddr: 0x10001AE9C, symSize: 0x2C }
  - { offsetInCU: 0x1EF99, offset: 0x34442, size: 0x8, addend: 0x0, symName: __ZN16CommandProcessorD0Ev, symObjAddr: 0x3EC8, symBinAddr: 0x10001AEC8, symSize: 0x30 }
  - { offsetInCU: 0x1EFC5, offset: 0x3446E, size: 0x8, addend: 0x0, symName: __ZN16CommandProcessor11readCommandEv, symObjAddr: 0x3EF8, symBinAddr: 0x10001AEF8, symSize: 0xBC }
  - { offsetInCU: 0x1EFFC, offset: 0x344A5, size: 0x8, addend: 0x0, symName: __ZN16CommandProcessor11saveCommandEP7Command, symObjAddr: 0x408C, symBinAddr: 0x10001B08C, symSize: 0x2AC }
  - { offsetInCU: 0x1F037, offset: 0x344E0, size: 0x8, addend: 0x0, symName: __ZNSt3__16vectorIP7CommandNS_9allocatorIS2_EEE9push_backB8ue170006ERKS2_, symObjAddr: 0x4338, symBinAddr: 0x10001B338, symSize: 0xE0 }
  - { offsetInCU: 0x1F06E, offset: 0x34517, size: 0x8, addend: 0x0, symName: __ZN16CommandProcessor10getCommandEv, symObjAddr: 0x4418, symBinAddr: 0x10001B418, symSize: 0x44C }
  - { offsetInCU: 0x1F0D6, offset: 0x3457F, size: 0x8, addend: 0x0, symName: __ZN16CommandProcessor8validateEP7Command, symObjAddr: 0x4864, symBinAddr: 0x10001B864, symSize: 0x242C }
  - { offsetInCU: 0x1F1F2, offset: 0x3469B, size: 0x8, addend: 0x0, symName: __ZNKSt3__112basic_stringIcNS_11char_traitsIcEENS_9allocatorIcEEE5emptyB8ue170006Ev, symObjAddr: 0x7A08, symBinAddr: 0x10001E908, symSize: 0x30 }
  - { offsetInCU: 0x1F218, offset: 0x346C1, size: 0x8, addend: 0x0, symName: __ZNKSt3__16vectorINS_12basic_stringIcNS_11char_traitsIcEENS_9allocatorIcEEEENS4_IS6_EEE4sizeB8ue170006Ev, symObjAddr: 0x7A38, symBinAddr: 0x10001E938, symSize: 0xB0 }
  - { offsetInCU: 0x1F23E, offset: 0x346E7, size: 0x8, addend: 0x0, symName: __ZNSt3__13setINS_12basic_stringIcNS_11char_traitsIcEENS_9allocatorIcEEEENS_4lessIS6_EENS4_IS6_EEE4findB8ue170006ERKS6_, symObjAddr: 0x7BA0, symBinAddr: 0x10001EAA0, symSize: 0x2BC }
  - { offsetInCU: 0x1F275, offset: 0x3471E, size: 0x8, addend: 0x0, symName: __ZNSt3__13setINS_12basic_stringIcNS_11char_traitsIcEENS_9allocatorIcEEEENS_4lessIS6_EENS4_IS6_EEE3endB8ue170006Ev, symObjAddr: 0x7E5C, symBinAddr: 0x10001ED5C, symSize: 0x2B4 }
  - { offsetInCU: 0x1F29C, offset: 0x34745, size: 0x8, addend: 0x0, symName: __ZNSt3__13setINS_12basic_stringIcNS_11char_traitsIcEENS_9allocatorIcEEEENS_4lessIS6_EENS4_IS6_EEE6insertB8ue170006ERKS6_, symObjAddr: 0x8110, symBinAddr: 0x10001F010, symSize: 0x2A8 }
  - { offsetInCU: 0x1F2D3, offset: 0x3477C, size: 0x8, addend: 0x0, symName: __ZNK16CommandProcessor15getCurrentStateEv, symObjAddr: 0x862C, symBinAddr: 0x10001F52C, symSize: 0x17C }
  - { offsetInCU: 0x1F2FA, offset: 0x347A3, size: 0x8, addend: 0x0, symName: __ZlsRNSt3__113basic_ostreamIcNS_11char_traitsIcEEEERK16CommandProcessor, symObjAddr: 0x87C8, symBinAddr: 0x10001F6C8, symSize: 0x508 }
  - { offsetInCU: 0x1F38B, offset: 0x34834, size: 0x8, addend: 0x0, symName: __ZN16CommandProcessor11stringToLogEv, symObjAddr: 0x8CD0, symBinAddr: 0x10001FBD0, symSize: 0x118 }
  - { offsetInCU: 0x1F3B3, offset: 0x3485C, size: 0x8, addend: 0x0, symName: __ZNKSt3__16vectorIP7CommandNS_9allocatorIS2_EEE5emptyB8ue170006Ev, symObjAddr: 0x8DE8, symBinAddr: 0x10001FCE8, symSize: 0xB0 }
  - { offsetInCU: 0x1F3D9, offset: 0x34882, size: 0x8, addend: 0x0, symName: __ZNSt3__16vectorIP7CommandNS_9allocatorIS2_EEE4backB8ue170006Ev, symObjAddr: 0x8E98, symBinAddr: 0x10001FD98, symSize: 0x68 }
  - { offsetInCU: 0x1F3FF, offset: 0x348A8, size: 0x8, addend: 0x0, symName: __ZThn16_N16CommandProcessor11stringToLogEv, symObjAddr: 0x8F00, symBinAddr: 0x10001FE00, symSize: 0x20 }
  - { offsetInCU: 0x1F568, offset: 0x34A11, size: 0x8, addend: 0x0, symName: __ZN17FileCommandReaderC2ERKNSt3__112basic_stringIcNS0_11char_traitsIcEENS0_9allocatorIcEEEE, symObjAddr: 0x8F20, symBinAddr: 0x10001FE20, symSize: 0x188 }
  - { offsetInCU: 0x1F5A2, offset: 0x34A4B, size: 0x8, addend: 0x0, symName: __ZNSt3__114basic_ifstreamIcNS_11char_traitsIcEEEC1ERKNS_12basic_stringIcS2_NS_9allocatorIcEEEEj, symObjAddr: 0x90A8, symBinAddr: 0x10001FFA8, symSize: 0x2AC }
  - { offsetInCU: 0x1F5EC, offset: 0x34A95, size: 0x8, addend: 0x0, symName: __ZNKSt3__114basic_ifstreamIcNS_11char_traitsIcEEE7is_openEv, symObjAddr: 0x9354, symBinAddr: 0x100020254, symSize: 0x2C }
  - { offsetInCU: 0x1F614, offset: 0x34ABD, size: 0x8, addend: 0x0, symName: __ZN17FileCommandReaderC1ERKNSt3__112basic_stringIcNS0_11char_traitsIcEENS0_9allocatorIcEEEE, symObjAddr: 0x9380, symBinAddr: 0x100020280, symSize: 0x34 }
  - { offsetInCU: 0x1F64E, offset: 0x34AF7, size: 0x8, addend: 0x0, symName: __ZN17FileCommandReaderD2Ev, symObjAddr: 0x93B4, symBinAddr: 0x1000202B4, symSize: 0x1B4 }
  - { offsetInCU: 0x1F67A, offset: 0x34B23, size: 0x8, addend: 0x0, symName: __ZNSt3__114basic_ifstreamIcNS_11char_traitsIcEEE5closeEv, symObjAddr: 0x9574, symBinAddr: 0x100020468, symSize: 0xD4 }
  - { offsetInCU: 0x1F6A2, offset: 0x34B4B, size: 0x8, addend: 0x0, symName: __ZN17FileCommandReaderD1Ev, symObjAddr: 0x9648, symBinAddr: 0x10002053C, symSize: 0x2C }
  - { offsetInCU: 0x1F6CE, offset: 0x34B77, size: 0x8, addend: 0x0, symName: __ZN17FileCommandReader19readCommandFromFileEv, symObjAddr: 0x9674, symBinAddr: 0x100020568, symSize: 0x430 }
  - { offsetInCU: 0x1F70B, offset: 0x34BB4, size: 0x8, addend: 0x0, symName: __ZNSt3__112basic_stringIcNS_11char_traitsIcEENS_9allocatorIcEEEC1B8ue170006EOS5_, symObjAddr: 0x9AA4, symBinAddr: 0x100020998, symSize: 0x34 }
  - { offsetInCU: 0x1F744, offset: 0x34BED, size: 0x8, addend: 0x0, symName: __ZNK17FileCommandReader3eofEv, symObjAddr: 0x9AD8, symBinAddr: 0x1000209CC, symSize: 0x140 }
  - { offsetInCU: 0x1F76D, offset: 0x34C16, size: 0x8, addend: 0x0, symName: __ZNKSt3__19basic_iosIcNS_11char_traitsIcEEE3eofB8ue170006Ev, symObjAddr: 0x9C18, symBinAddr: 0x100020B0C, symSize: 0x28 }
  - { offsetInCU: 0x1F847, offset: 0x34CF0, size: 0x8, addend: 0x0, symName: __ZN27FileCommandProcessorAdapterC2ERKNSt3__112basic_stringIcNS0_11char_traitsIcEENS0_9allocatorIcEEEEP10GameEngine, symObjAddr: 0x9C40, symBinAddr: 0x100020B34, symSize: 0x178 }
  - { offsetInCU: 0x1F892, offset: 0x34D3B, size: 0x8, addend: 0x0, symName: __ZN27FileCommandProcessorAdapterC1ERKNSt3__112basic_stringIcNS0_11char_traitsIcEENS0_9allocatorIcEEEEP10GameEngine, symObjAddr: 0x9DB8, symBinAddr: 0x100020CAC, symSize: 0x3C }
  - { offsetInCU: 0x1F8DD, offset: 0x34D86, size: 0x8, addend: 0x0, symName: __ZN27FileCommandProcessorAdapterD2Ev, symObjAddr: 0x9DF4, symBinAddr: 0x100020CE8, symSize: 0x130 }
  - { offsetInCU: 0x1F90A, offset: 0x34DB3, size: 0x8, addend: 0x0, symName: __ZN27FileCommandProcessorAdapterD1Ev, symObjAddr: 0x9F24, symBinAddr: 0x100020E18, symSize: 0x2C }
  - { offsetInCU: 0x1F937, offset: 0x34DE0, size: 0x8, addend: 0x0, symName: __ZN27FileCommandProcessorAdapterD0Ev, symObjAddr: 0x9F50, symBinAddr: 0x100020E44, symSize: 0x30 }
  - { offsetInCU: 0x1F964, offset: 0x34E0D, size: 0x8, addend: 0x0, symName: __ZN27FileCommandProcessorAdapter10getCommandEv, symObjAddr: 0x9F80, symBinAddr: 0x100020E74, symSize: 0x510 }
  - { offsetInCU: 0x1F9D1, offset: 0x34E7A, size: 0x8, addend: 0x0, symName: __ZNSt3__16vectorINS_12basic_stringIcNS_11char_traitsIcEENS_9allocatorIcEEEENS4_IS6_EEEC2B8ue170006Ev, symObjAddr: 0xA490, symBinAddr: 0x100021384, symSize: 0x2E8 }
  - { offsetInCU: 0x1FA06, offset: 0x34EAF, size: 0x8, addend: 0x0, symName: __ZNSt3__117__compressed_pairIPNS_12basic_stringIcNS_11char_traitsIcEENS_9allocatorIcEEEENS4_IS6_EEEC1B8ue170006IDnNS_18__default_init_tagEEEOT_OT0_, symObjAddr: 0xA778, symBinAddr: 0x10002166C, symSize: 0x3C }
  - { offsetInCU: 0x1FA5E, offset: 0x34F07, size: 0x8, addend: 0x0, symName: __ZNSt3__117__compressed_pairIPNS_12basic_stringIcNS_11char_traitsIcEENS_9allocatorIcEEEENS4_IS6_EEEC2B8ue170006IDnNS_18__default_init_tagEEEOT_OT0_, symObjAddr: 0xA7B4, symBinAddr: 0x1000216A8, symSize: 0x40 }
  - { offsetInCU: 0x1FAB6, offset: 0x34F5F, size: 0x8, addend: 0x0, symName: __ZNSt3__122__compressed_pair_elemIPNS_12basic_stringIcNS_11char_traitsIcEENS_9allocatorIcEEEELi0ELb0EEC2B8ue170006IDnvEEOT_, symObjAddr: 0xA7F4, symBinAddr: 0x1000216E8, symSize: 0x64 }
  - { offsetInCU: 0x1FAF8, offset: 0x34FA1, size: 0x8, addend: 0x0, symName: __ZNSt3__122__compressed_pair_elemINS_9allocatorINS_12basic_stringIcNS_11char_traitsIcEENS1_IcEEEEEELi1ELb1EEC2B8ue170006ENS_18__default_init_tagE, symObjAddr: 0xA858, symBinAddr: 0x10002174C, symSize: 0x2C }
  - { offsetInCU: 0x1FB2D, offset: 0x34FD6, size: 0x8, addend: 0x0, symName: __ZNSt3__19allocatorINS_12basic_stringIcNS_11char_traitsIcEENS0_IcEEEEEC2B8ue170006Ev, symObjAddr: 0xA884, symBinAddr: 0x100021778, symSize: 0x2C }
  - { offsetInCU: 0x1FB57, offset: 0x35000, size: 0x8, addend: 0x0, symName: __ZNSt3__116__non_trivial_ifILb1ENS_9allocatorINS_12basic_stringIcNS_11char_traitsIcEENS1_IcEEEEEEEC2B8ue170006Ev, symObjAddr: 0xA8B0, symBinAddr: 0x1000217A4, symSize: 0x14 }
  - { offsetInCU: 0x1FB81, offset: 0x3502A, size: 0x8, addend: 0x0, symName: __ZNSt3__112basic_stringIcNS_11char_traitsIcEENS_9allocatorIcEEEC2B8ue170006Ev, symObjAddr: 0xA8C4, symBinAddr: 0x1000217B8, symSize: 0x20C }
  - { offsetInCU: 0x1FBAC, offset: 0x35055, size: 0x8, addend: 0x0, symName: __ZNSt3__112basic_stringIcNS_11char_traitsIcEENS_9allocatorIcEEE14__default_initB8ue170006Ev, symObjAddr: 0xAB0C, symBinAddr: 0x1000219C4, symSize: 0x22C }
  - { offsetInCU: 0x1FBD3, offset: 0x3507C, size: 0x8, addend: 0x0, symName: __ZNSt3__16vectorINS_12basic_stringIcNS_11char_traitsIcEENS_9allocatorIcEEEENS4_IS6_EEE9__end_capB8ue170006Ev, symObjAddr: 0xAE2C, symBinAddr: 0x100021BF0, symSize: 0x28 }
  - { offsetInCU: 0x1FBF9, offset: 0x350A2, size: 0x8, addend: 0x0, symName: __ZNSt3__16vectorINS_12basic_stringIcNS_11char_traitsIcEENS_9allocatorIcEEEENS4_IS6_EEE22__construct_one_at_endB8ue170006IJRKS6_EEEvDpOT_, symObjAddr: 0xAE54, symBinAddr: 0x100021C18, symSize: 0x36C }
  - { offsetInCU: 0x1FC4E, offset: 0x350F7, size: 0x8, addend: 0x0, symName: __ZNSt3__16vectorINS_12basic_stringIcNS_11char_traitsIcEENS_9allocatorIcEEEENS4_IS6_EEE21__push_back_slow_pathIRKS6_EEvOT_, symObjAddr: 0xB1C0, symBinAddr: 0x100021F84, symSize: 0x3C0 }
  - { offsetInCU: 0x1FCB3, offset: 0x3515C, size: 0x8, addend: 0x0, symName: __ZNSt3__117__compressed_pairIPNS_12basic_stringIcNS_11char_traitsIcEENS_9allocatorIcEEEENS4_IS6_EEE5firstB8ue170006Ev, symObjAddr: 0xB580, symBinAddr: 0x100022344, symSize: 0x24 }
  - { offsetInCU: 0x1FCD9, offset: 0x35182, size: 0x8, addend: 0x0, symName: __ZNSt3__122__compressed_pair_elemIPNS_12basic_stringIcNS_11char_traitsIcEENS_9allocatorIcEEEELi0ELb0EE5__getB8ue170006Ev, symObjAddr: 0xB5A4, symBinAddr: 0x100022368, symSize: 0x14 }
  - { offsetInCU: 0x1FD18, offset: 0x351C1, size: 0x8, addend: 0x0, symName: __ZNSt3__16vectorINS_12basic_stringIcNS_11char_traitsIcEENS_9allocatorIcEEEENS4_IS6_EEE21_ConstructTransactionC1B8ue170006ERS8_m, symObjAddr: 0xB5B8, symBinAddr: 0x10002237C, symSize: 0x3C }
  - { offsetInCU: 0x1FD60, offset: 0x35209, size: 0x8, addend: 0x0, symName: __ZNSt3__116allocator_traitsINS_9allocatorINS_12basic_stringIcNS_11char_traitsIcEENS1_IcEEEEEEE9constructB8ue170006IS6_JRKS6_EvvEEvRS7_PT_DpOT0_, symObjAddr: 0xB5F4, symBinAddr: 0x1000223B8, symSize: 0x30 }
  - { offsetInCU: 0x1FDB4, offset: 0x3525D, size: 0x8, addend: 0x0, symName: __ZNSt3__16vectorINS_12basic_stringIcNS_11char_traitsIcEENS_9allocatorIcEEEENS4_IS6_EEE7__allocB8ue170006Ev, symObjAddr: 0xB624, symBinAddr: 0x1000223E8, symSize: 0x28 }
  - { offsetInCU: 0x1FDDA, offset: 0x35283, size: 0x8, addend: 0x0, symName: __ZNSt3__16vectorINS_12basic_stringIcNS_11char_traitsIcEENS_9allocatorIcEEEENS4_IS6_EEE21_ConstructTransactionD1B8ue170006Ev, symObjAddr: 0xB660, symBinAddr: 0x100022424, symSize: 0x2C }
  - { offsetInCU: 0x1FE04, offset: 0x352AD, size: 0x8, addend: 0x0, symName: __ZNSt3__16vectorINS_12basic_stringIcNS_11char_traitsIcEENS_9allocatorIcEEEENS4_IS6_EEE21_ConstructTransactionC2B8ue170006ERS8_m, symObjAddr: 0xB68C, symBinAddr: 0x100022450, symSize: 0x1D8 }
  - { offsetInCU: 0x1FE4C, offset: 0x352F5, size: 0x8, addend: 0x0, symName: __ZNKSt3__16vectorINS_12basic_stringIcNS_11char_traitsIcEENS_9allocatorIcEEEENS4_IS6_EEE19__annotate_increaseB8ue170006Em, symObjAddr: 0xB864, symBinAddr: 0x100022628, symSize: 0xF8 }
  - { offsetInCU: 0x1FE81, offset: 0x3532A, size: 0x8, addend: 0x0, symName: __ZNKSt3__16vectorINS_12basic_stringIcNS_11char_traitsIcEENS_9allocatorIcEEEENS4_IS6_EEE31__annotate_contiguous_containerEPKvSA_SA_SA_, symObjAddr: 0xB95C, symBinAddr: 0x100022720, symSize: 0x58 }
  - { offsetInCU: 0x1FEE3, offset: 0x3538C, size: 0x8, addend: 0x0, symName: __ZNKSt3__16vectorINS_12basic_stringIcNS_11char_traitsIcEENS_9allocatorIcEEEENS4_IS6_EEE4dataB8ue170006Ev, symObjAddr: 0xB9B4, symBinAddr: 0x100022778, symSize: 0x64 }
  - { offsetInCU: 0x1FF09, offset: 0x353B2, size: 0x8, addend: 0x0, symName: __ZNKSt3__16vectorINS_12basic_stringIcNS_11char_traitsIcEENS_9allocatorIcEEEENS4_IS6_EEE8capacityB8ue170006Ev, symObjAddr: 0xBA18, symBinAddr: 0x1000227DC, symSize: 0xBC }
  - { offsetInCU: 0x1FF2F, offset: 0x353D8, size: 0x8, addend: 0x0, symName: __ZNKSt3__16vectorINS_12basic_stringIcNS_11char_traitsIcEENS_9allocatorIcEEEENS4_IS6_EEE9__end_capB8ue170006Ev, symObjAddr: 0xBAD4, symBinAddr: 0x100022898, symSize: 0x28 }
  - { offsetInCU: 0x1FF55, offset: 0x353FE, size: 0x8, addend: 0x0, symName: __ZNKSt3__117__compressed_pairIPNS_12basic_stringIcNS_11char_traitsIcEENS_9allocatorIcEEEENS4_IS6_EEE5firstB8ue170006Ev, symObjAddr: 0xBAFC, symBinAddr: 0x1000228C0, symSize: 0x24 }
  - { offsetInCU: 0x1FF7B, offset: 0x35424, size: 0x8, addend: 0x0, symName: __ZNKSt3__122__compressed_pair_elemIPNS_12basic_stringIcNS_11char_traitsIcEENS_9allocatorIcEEEELi0ELb0EE5__getB8ue170006Ev, symObjAddr: 0xBB20, symBinAddr: 0x1000228E4, symSize: 0x14 }
  - { offsetInCU: 0x1FFA1, offset: 0x3544A, size: 0x8, addend: 0x0, symName: __ZNSt3__117__compressed_pairIPNS_12basic_stringIcNS_11char_traitsIcEENS_9allocatorIcEEEENS4_IS6_EEE6secondB8ue170006Ev, symObjAddr: 0xBB70, symBinAddr: 0x100022934, symSize: 0x24 }
  - { offsetInCU: 0x1FFC7, offset: 0x35470, size: 0x8, addend: 0x0, symName: __ZNSt3__122__compressed_pair_elemINS_9allocatorINS_12basic_stringIcNS_11char_traitsIcEENS1_IcEEEEEELi1ELb1EE5__getB8ue170006Ev, symObjAddr: 0xBB94, symBinAddr: 0x100022958, symSize: 0x14 }
  - { offsetInCU: 0x1FFED, offset: 0x35496, size: 0x8, addend: 0x0, symName: __ZNSt3__16vectorINS_12basic_stringIcNS_11char_traitsIcEENS_9allocatorIcEEEENS4_IS6_EEE21_ConstructTransactionD2B8ue170006Ev, symObjAddr: 0xBBA8, symBinAddr: 0x10002296C, symSize: 0x278 }
  - { offsetInCU: 0x20017, offset: 0x354C0, size: 0x8, addend: 0x0, symName: __ZNKSt3__16vectorINS_12basic_stringIcNS_11char_traitsIcEENS_9allocatorIcEEEENS4_IS6_EEE17__annotate_shrinkB8ue170006Em, symObjAddr: 0xBE20, symBinAddr: 0x100022BE4, symSize: 0xE4 }
  - { offsetInCU: 0x2004C, offset: 0x354F5, size: 0x8, addend: 0x0, symName: __ZNKSt3__16vectorINS_12basic_stringIcNS_11char_traitsIcEENS_9allocatorIcEEEENS4_IS6_EEE11__recommendB8ue170006Em, symObjAddr: 0xBF04, symBinAddr: 0x100022CC8, symSize: 0x384 }
  - { offsetInCU: 0x200A8, offset: 0x35551, size: 0x8, addend: 0x0, symName: __ZNSt3__114__split_bufferINS_12basic_stringIcNS_11char_traitsIcEENS_9allocatorIcEEEERNS4_IS6_EEEC1EmmS8_, symObjAddr: 0xC288, symBinAddr: 0x10002304C, symSize: 0x44 }
  - { offsetInCU: 0x200FE, offset: 0x355A7, size: 0x8, addend: 0x0, symName: __ZNSt3__114__split_bufferINS_12basic_stringIcNS_11char_traitsIcEENS_9allocatorIcEEEERNS4_IS6_EEED1Ev, symObjAddr: 0xC838, symBinAddr: 0x1000235FC, symSize: 0x2C }
  - { offsetInCU: 0x2012A, offset: 0x355D3, size: 0x8, addend: 0x0, symName: __ZNKSt3__16vectorINS_12basic_stringIcNS_11char_traitsIcEENS_9allocatorIcEEEENS4_IS6_EEE8max_sizeEv, symObjAddr: 0xC864, symBinAddr: 0x100023628, symSize: 0x2FC }
  - { offsetInCU: 0x20153, offset: 0x355FC, size: 0x8, addend: 0x0, symName: __ZNKSt3__16vectorINS_12basic_stringIcNS_11char_traitsIcEENS_9allocatorIcEEEENS4_IS6_EEE20__throw_length_errorB8ue170006Ev, symObjAddr: 0xCB60, symBinAddr: 0x100023924, symSize: 0x20 }
  - { offsetInCU: 0x20183, offset: 0x3562C, size: 0x8, addend: 0x0, symName: __ZNSt3__116allocator_traitsINS_9allocatorINS_12basic_stringIcNS_11char_traitsIcEENS1_IcEEEEEEE8max_sizeB8ue170006IS7_vvEEmRKS7_, symObjAddr: 0xCBD8, symBinAddr: 0x100023944, symSize: 0x28 }
  - { offsetInCU: 0x201AE, offset: 0x35657, size: 0x8, addend: 0x0, symName: __ZNKSt3__16vectorINS_12basic_stringIcNS_11char_traitsIcEENS_9allocatorIcEEEENS4_IS6_EEE7__allocB8ue170006Ev, symObjAddr: 0xCC00, symBinAddr: 0x10002396C, symSize: 0x28 }
  - { offsetInCU: 0x201D4, offset: 0x3567D, size: 0x8, addend: 0x0, symName: __ZNKSt3__117__compressed_pairIPNS_12basic_stringIcNS_11char_traitsIcEENS_9allocatorIcEEEENS4_IS6_EEE6secondB8ue170006Ev, symObjAddr: 0xCEFC, symBinAddr: 0x100023994, symSize: 0x24 }
  - { offsetInCU: 0x201FA, offset: 0x356A3, size: 0x8, addend: 0x0, symName: __ZNKSt3__122__compressed_pair_elemINS_9allocatorINS_12basic_stringIcNS_11char_traitsIcEENS1_IcEEEEEELi1ELb1EE5__getB8ue170006Ev, symObjAddr: 0xCF20, symBinAddr: 0x1000239B8, symSize: 0x14 }
  - { offsetInCU: 0x20220, offset: 0x356C9, size: 0x8, addend: 0x0, symName: __ZNSt3__114__split_bufferINS_12basic_stringIcNS_11char_traitsIcEENS_9allocatorIcEEEERNS4_IS6_EEEC2EmmS8_, symObjAddr: 0xD24C, symBinAddr: 0x1000239CC, symSize: 0x530 }
  - { offsetInCU: 0x2029B, offset: 0x35744, size: 0x8, addend: 0x0, symName: __ZNSt3__117__compressed_pairIPNS_12basic_stringIcNS_11char_traitsIcEENS_9allocatorIcEEEERNS4_IS6_EEEC1B8ue170006IDnS9_EEOT_OT0_, symObjAddr: 0xD77C, symBinAddr: 0x100023EFC, symSize: 0x3C }
  - { offsetInCU: 0x202F3, offset: 0x3579C, size: 0x8, addend: 0x0, symName: __ZNSt3__114__split_bufferINS_12basic_stringIcNS_11char_traitsIcEENS_9allocatorIcEEEERNS4_IS6_EEE7__allocB8ue170006Ev, symObjAddr: 0xDA44, symBinAddr: 0x1000241C4, symSize: 0x28 }
  - { offsetInCU: 0x20319, offset: 0x357C2, size: 0x8, addend: 0x0, symName: __ZNSt3__114__split_bufferINS_12basic_stringIcNS_11char_traitsIcEENS_9allocatorIcEEEERNS4_IS6_EEE9__end_capB8ue170006Ev, symObjAddr: 0xDA6C, symBinAddr: 0x1000241EC, symSize: 0x28 }
  - { offsetInCU: 0x2033F, offset: 0x357E8, size: 0x8, addend: 0x0, symName: __ZNSt3__117__compressed_pairIPNS_12basic_stringIcNS_11char_traitsIcEENS_9allocatorIcEEEERNS4_IS6_EEEC2B8ue170006IDnS9_EEOT_OT0_, symObjAddr: 0xDA94, symBinAddr: 0x100024214, symSize: 0x48 }
  - { offsetInCU: 0x20397, offset: 0x35840, size: 0x8, addend: 0x0, symName: __ZNSt3__122__compressed_pair_elemIRNS_9allocatorINS_12basic_stringIcNS_11char_traitsIcEENS1_IcEEEEEELi1ELb0EEC2B8ue170006IS8_vEEOT_, symObjAddr: 0xDADC, symBinAddr: 0x10002425C, symSize: 0x70 }
  - { offsetInCU: 0x203D9, offset: 0x35882, size: 0x8, addend: 0x0, symName: __ZNSt3__19allocatorINS_12basic_stringIcNS_11char_traitsIcEENS0_IcEEEEE8allocateB8ue170006Em, symObjAddr: 0xDB4C, symBinAddr: 0x1000242CC, symSize: 0x60 }
  - { offsetInCU: 0x2040D, offset: 0x358B6, size: 0x8, addend: 0x0, symName: __ZNSt3__117__compressed_pairIPNS_12basic_stringIcNS_11char_traitsIcEENS_9allocatorIcEEEERNS4_IS6_EEE6secondB8ue170006Ev, symObjAddr: 0xDCB4, symBinAddr: 0x10002432C, symSize: 0x28 }
  - { offsetInCU: 0x20433, offset: 0x358DC, size: 0x8, addend: 0x0, symName: __ZNSt3__122__compressed_pair_elemIRNS_9allocatorINS_12basic_stringIcNS_11char_traitsIcEENS1_IcEEEEEELi1ELb0EE5__getB8ue170006Ev, symObjAddr: 0xDCDC, symBinAddr: 0x100024354, symSize: 0x60 }
  - { offsetInCU: 0x20459, offset: 0x35902, size: 0x8, addend: 0x0, symName: __ZNSt3__117__compressed_pairIPNS_12basic_stringIcNS_11char_traitsIcEENS_9allocatorIcEEEERNS4_IS6_EEE5firstB8ue170006Ev, symObjAddr: 0xDD3C, symBinAddr: 0x1000243B4, symSize: 0x24 }
  - { offsetInCU: 0x2047F, offset: 0x35928, size: 0x8, addend: 0x0, symName: __ZNKSt3__16vectorINS_12basic_stringIcNS_11char_traitsIcEENS_9allocatorIcEEEENS4_IS6_EEE17__annotate_deleteB8ue170006Ev, symObjAddr: 0xDD60, symBinAddr: 0x1000243D8, symSize: 0xE8 }
  - { offsetInCU: 0x204A5, offset: 0x3594E, size: 0x8, addend: 0x0, symName: __ZNSt3__116reverse_iteratorIPNS_12basic_stringIcNS_11char_traitsIcEENS_9allocatorIcEEEEEC1B8ue170006ES7_, symObjAddr: 0xE38C, symBinAddr: 0x100024A04, symSize: 0x34 }
  - { offsetInCU: 0x204DD, offset: 0x35986, size: 0x8, addend: 0x0, symName: __ZNKSt3__116reverse_iteratorIPNS_12basic_stringIcNS_11char_traitsIcEENS_9allocatorIcEEEEE4baseB8ue170006Ev, symObjAddr: 0xE3C0, symBinAddr: 0x100024A38, symSize: 0x64 }
  - { offsetInCU: 0x20503, offset: 0x359AC, size: 0x8, addend: 0x0, symName: __ZNKSt3__16vectorINS_12basic_stringIcNS_11char_traitsIcEENS_9allocatorIcEEEENS4_IS6_EEE14__annotate_newB8ue170006Em, symObjAddr: 0xE558, symBinAddr: 0x100024BD0, symSize: 0xDC }
  - { offsetInCU: 0x20538, offset: 0x359E1, size: 0x8, addend: 0x0, symName: __ZNSt3__129_AllocatorDestroyRangeReverseINS_9allocatorINS_12basic_stringIcNS_11char_traitsIcEENS1_IcEEEEEENS_16reverse_iteratorIPS6_EEEC1B8ue170006ERS7_RSA_SD_, symObjAddr: 0xE82C, symBinAddr: 0x100024EA4, symSize: 0x44 }
  - { offsetInCU: 0x20594, offset: 0x35A3D, size: 0x8, addend: 0x0, symName: __ZNSt3__116allocator_traitsINS_9allocatorINS_12basic_stringIcNS_11char_traitsIcEENS1_IcEEEEEEE9constructB8ue170006IS6_JS6_EvvEEvRS7_PT_DpOT0_, symObjAddr: 0xE8B8, symBinAddr: 0x100024F30, symSize: 0x30 }
  - { offsetInCU: 0x205E8, offset: 0x35A91, size: 0x8, addend: 0x0, symName: __ZNKSt3__116reverse_iteratorIPNS_12basic_stringIcNS_11char_traitsIcEENS_9allocatorIcEEEEEdeB8ue170006Ev, symObjAddr: 0xE90C, symBinAddr: 0x100024F84, symSize: 0x74 }
  - { offsetInCU: 0x2061C, offset: 0x35AC5, size: 0x8, addend: 0x0, symName: __ZNSt3__116reverse_iteratorIPNS_12basic_stringIcNS_11char_traitsIcEENS_9allocatorIcEEEEEppB8ue170006Ev, symObjAddr: 0xE980, symBinAddr: 0x100024FF8, symSize: 0x6C }
  - { offsetInCU: 0x20642, offset: 0x35AEB, size: 0x8, addend: 0x0, symName: __ZNSt3__128__exception_guard_exceptionsINS_29_AllocatorDestroyRangeReverseINS_9allocatorINS_12basic_stringIcNS_11char_traitsIcEENS2_IcEEEEEENS_16reverse_iteratorIPS7_EEEEE10__completeB8ue170006Ev, symObjAddr: 0xE9EC, symBinAddr: 0x100025064, symSize: 0x8C }
  - { offsetInCU: 0x20668, offset: 0x35B11, size: 0x8, addend: 0x0, symName: __ZNSt3__128__exception_guard_exceptionsINS_29_AllocatorDestroyRangeReverseINS_9allocatorINS_12basic_stringIcNS_11char_traitsIcEENS2_IcEEEEEENS_16reverse_iteratorIPS7_EEEEED1B8ue170006Ev, symObjAddr: 0xEA78, symBinAddr: 0x1000250F0, symSize: 0x2C }
  - { offsetInCU: 0x20692, offset: 0x35B3B, size: 0x8, addend: 0x0, symName: __ZNSt3__128__exception_guard_exceptionsINS_29_AllocatorDestroyRangeReverseINS_9allocatorINS_12basic_stringIcNS_11char_traitsIcEENS2_IcEEEEEENS_16reverse_iteratorIPS7_EEEEEC1B8ue170006ESC_, symObjAddr: 0xEAA4, symBinAddr: 0x10002511C, symSize: 0x34 }
  - { offsetInCU: 0x206CB, offset: 0x35B74, size: 0x8, addend: 0x0, symName: __ZNSt3__128__exception_guard_exceptionsINS_29_AllocatorDestroyRangeReverseINS_9allocatorINS_12basic_stringIcNS_11char_traitsIcEENS2_IcEEEEEENS_16reverse_iteratorIPS7_EEEEEC2B8ue170006ESC_, symObjAddr: 0xEAD8, symBinAddr: 0x100025150, symSize: 0xA4 }
  - { offsetInCU: 0x20704, offset: 0x35BAD, size: 0x8, addend: 0x0, symName: __ZNSt3__129_AllocatorDestroyRangeReverseINS_9allocatorINS_12basic_stringIcNS_11char_traitsIcEENS1_IcEEEEEENS_16reverse_iteratorIPS6_EEEC2B8ue170006ERS7_RSA_SD_, symObjAddr: 0xEB7C, symBinAddr: 0x1000251F4, symSize: 0x104 }
  - { offsetInCU: 0x20760, offset: 0x35C09, size: 0x8, addend: 0x0, symName: __ZNSt3__119__to_address_helperINS_16reverse_iteratorIPNS_12basic_stringIcNS_11char_traitsIcEENS_9allocatorIcEEEEEEvE6__callB8ue170006ERKS9_, symObjAddr: 0xECBC, symBinAddr: 0x100025334, symSize: 0x44 }
  - { offsetInCU: 0x20783, offset: 0x35C2C, size: 0x8, addend: 0x0, symName: __ZNKSt3__116reverse_iteratorIPNS_12basic_stringIcNS_11char_traitsIcEENS_9allocatorIcEEEEEptB8ue170006Ev, symObjAddr: 0xED00, symBinAddr: 0x100025378, symSize: 0x6C }
  - { offsetInCU: 0x207A9, offset: 0x35C52, size: 0x8, addend: 0x0, symName: __ZNSt3__128__exception_guard_exceptionsINS_29_AllocatorDestroyRangeReverseINS_9allocatorINS_12basic_stringIcNS_11char_traitsIcEENS2_IcEEEEEENS_16reverse_iteratorIPS7_EEEEED2B8ue170006Ev, symObjAddr: 0xF078, symBinAddr: 0x1000256F0, symSize: 0xBC }
  - { offsetInCU: 0x207D3, offset: 0x35C7C, size: 0x8, addend: 0x0, symName: __ZNKSt3__129_AllocatorDestroyRangeReverseINS_9allocatorINS_12basic_stringIcNS_11char_traitsIcEENS1_IcEEEEEENS_16reverse_iteratorIPS6_EEEclB8ue170006Ev, symObjAddr: 0xF134, symBinAddr: 0x1000257AC, symSize: 0x3A8 }
  - { offsetInCU: 0x207FA, offset: 0x35CA3, size: 0x8, addend: 0x0, symName: __ZNSt3__116reverse_iteratorINS0_IPNS_12basic_stringIcNS_11char_traitsIcEENS_9allocatorIcEEEEEEEC1B8ue170006ES8_, symObjAddr: 0xF54C, symBinAddr: 0x100025BC4, symSize: 0x248 }
  - { offsetInCU: 0x20837, offset: 0x35CE0, size: 0x8, addend: 0x0, symName: __ZNSt3__116allocator_traitsINS_9allocatorINS_12basic_stringIcNS_11char_traitsIcEENS1_IcEEEEEEE7destroyB8ue170006IS6_vvEEvRS7_PT_, symObjAddr: 0xFA60, symBinAddr: 0x1000260D8, symSize: 0x28 }
  - { offsetInCU: 0x20871, offset: 0x35D1A, size: 0x8, addend: 0x0, symName: __ZNSt3__116reverse_iteratorINS0_IPNS_12basic_stringIcNS_11char_traitsIcEENS_9allocatorIcEEEEEEEppB8ue170006Ev, symObjAddr: 0xFAAC, symBinAddr: 0x100026124, symSize: 0x30 }
  - { offsetInCU: 0x20897, offset: 0x35D40, size: 0x8, addend: 0x0, symName: __ZNKSt3__116reverse_iteratorINS0_IPNS_12basic_stringIcNS_11char_traitsIcEENS_9allocatorIcEEEEEEE4baseB8ue170006Ev, symObjAddr: 0xFADC, symBinAddr: 0x100026154, symSize: 0x20C }
  - { offsetInCU: 0x208C3, offset: 0x35D6C, size: 0x8, addend: 0x0, symName: __ZNSt3__119__to_address_helperINS_16reverse_iteratorINS1_IPNS_12basic_stringIcNS_11char_traitsIcEENS_9allocatorIcEEEEEEEEvE6__callB8ue170006ERKSA_, symObjAddr: 0xFD30, symBinAddr: 0x1000263A8, symSize: 0x44 }
  - { offsetInCU: 0x208E6, offset: 0x35D8F, size: 0x8, addend: 0x0, symName: __ZNKSt3__116reverse_iteratorINS0_IPNS_12basic_stringIcNS_11char_traitsIcEENS_9allocatorIcEEEEEEEptB8ue170006Ev, symObjAddr: 0xFD74, symBinAddr: 0x1000263EC, symSize: 0x2A0 }
  - { offsetInCU: 0x2090D, offset: 0x35DB6, size: 0x8, addend: 0x0, symName: __ZNSt3__116reverse_iteratorIPNS_12basic_stringIcNS_11char_traitsIcEENS_9allocatorIcEEEEEpLB8ue170006El, symObjAddr: 0x1030C, symBinAddr: 0x100026984, symSize: 0x84 }
  - { offsetInCU: 0x20941, offset: 0x35DEA, size: 0x8, addend: 0x0, symName: __ZNSt3__116reverse_iteratorIPNS_12basic_stringIcNS_11char_traitsIcEENS_9allocatorIcEEEEEmmB8ue170006Ev, symObjAddr: 0x10390, symBinAddr: 0x100026A08, symSize: 0x6C }
  - { offsetInCU: 0x20967, offset: 0x35E10, size: 0x8, addend: 0x0, symName: __ZNSt3__116reverse_iteratorINS0_IPNS_12basic_stringIcNS_11char_traitsIcEENS_9allocatorIcEEEEEEEC2B8ue170006ES8_, symObjAddr: 0x103FC, symBinAddr: 0x100026A74, symSize: 0x22C }
  - { offsetInCU: 0x209A4, offset: 0x35E4D, size: 0x8, addend: 0x0, symName: __ZNSt3__116reverse_iteratorIPNS_12basic_stringIcNS_11char_traitsIcEENS_9allocatorIcEEEEEC2B8ue170006ES7_, symObjAddr: 0x10628, symBinAddr: 0x100026CA0, symSize: 0xB8 }
  - { offsetInCU: 0x209DC, offset: 0x35E85, size: 0x8, addend: 0x0, symName: __ZNSt3__114__split_bufferINS_12basic_stringIcNS_11char_traitsIcEENS_9allocatorIcEEEERNS4_IS6_EEED2Ev, symObjAddr: 0x106E0, symBinAddr: 0x100026D58, symSize: 0x104 }
  - { offsetInCU: 0x20A08, offset: 0x35EB1, size: 0x8, addend: 0x0, symName: __ZNSt3__114__split_bufferINS_12basic_stringIcNS_11char_traitsIcEENS_9allocatorIcEEEERNS4_IS6_EEE5clearB8ue170006Ev, symObjAddr: 0x107E4, symBinAddr: 0x100026E5C, symSize: 0x68 }
  - { offsetInCU: 0x20A2E, offset: 0x35ED7, size: 0x8, addend: 0x0, symName: __ZNSt3__116allocator_traitsINS_9allocatorINS_12basic_stringIcNS_11char_traitsIcEENS1_IcEEEEEEE10deallocateB8ue170006ERS7_PS6_m, symObjAddr: 0x1084C, symBinAddr: 0x100026EC4, symSize: 0x34 }
  - { offsetInCU: 0x20A70, offset: 0x35F19, size: 0x8, addend: 0x0, symName: __ZNKSt3__114__split_bufferINS_12basic_stringIcNS_11char_traitsIcEENS_9allocatorIcEEEERNS4_IS6_EEE8capacityB8ue170006Ev, symObjAddr: 0x10880, symBinAddr: 0x100026EF8, symSize: 0xBC }
  - { offsetInCU: 0x20A96, offset: 0x35F3F, size: 0x8, addend: 0x0, symName: __ZNSt3__114__split_bufferINS_12basic_stringIcNS_11char_traitsIcEENS_9allocatorIcEEEERNS4_IS6_EEE17__destruct_at_endB8ue170006EPS6_, symObjAddr: 0x1093C, symBinAddr: 0x100026FB4, symSize: 0x2C }
  - { offsetInCU: 0x20ACA, offset: 0x35F73, size: 0x8, addend: 0x0, symName: __ZNSt3__114__split_bufferINS_12basic_stringIcNS_11char_traitsIcEENS_9allocatorIcEEEERNS4_IS6_EEE17__destruct_at_endB8ue170006EPS6_NS_17integral_constantIbLb0EEE, symObjAddr: 0x10968, symBinAddr: 0x100026FE0, symSize: 0x10C }
  - { offsetInCU: 0x20B0B, offset: 0x35FB4, size: 0x8, addend: 0x0, symName: __ZNSt3__19allocatorINS_12basic_stringIcNS_11char_traitsIcEENS0_IcEEEEE10deallocateB8ue170006EPS5_m, symObjAddr: 0x10A74, symBinAddr: 0x1000270EC, symSize: 0x50 }
  - { offsetInCU: 0x20B4D, offset: 0x35FF6, size: 0x8, addend: 0x0, symName: __ZNKSt3__114__split_bufferINS_12basic_stringIcNS_11char_traitsIcEENS_9allocatorIcEEEERNS4_IS6_EEE9__end_capB8ue170006Ev, symObjAddr: 0x10BCC, symBinAddr: 0x10002713C, symSize: 0x28 }
  - { offsetInCU: 0x20B73, offset: 0x3601C, size: 0x8, addend: 0x0, symName: __ZNKSt3__117__compressed_pairIPNS_12basic_stringIcNS_11char_traitsIcEENS_9allocatorIcEEEERNS4_IS6_EEE5firstB8ue170006Ev, symObjAddr: 0x10BF4, symBinAddr: 0x100027164, symSize: 0x24 }
  - { offsetInCU: 0x20B99, offset: 0x36042, size: 0x8, addend: 0x0, symName: __ZNSt3__119basic_istringstreamIcNS_11char_traitsIcEENS_9allocatorIcEEED2Ev, symObjAddr: 0x10C18, symBinAddr: 0x100027188, symSize: 0x198 }
  - { offsetInCU: 0x20BD3, offset: 0x3607C, size: 0x8, addend: 0x0, symName: __ZTv0_n24_NSt3__119basic_istringstreamIcNS_11char_traitsIcEENS_9allocatorIcEEED1Ev, symObjAddr: 0x10DB0, symBinAddr: 0x100027320, symSize: 0xB0 }
  - { offsetInCU: 0x20BEF, offset: 0x36098, size: 0x8, addend: 0x0, symName: __ZNSt3__115basic_stringbufIcNS_11char_traitsIcEENS_9allocatorIcEEED1Ev, symObjAddr: 0x10E60, symBinAddr: 0x1000273D0, symSize: 0x2C }
  - { offsetInCU: 0x20C1C, offset: 0x360C5, size: 0x8, addend: 0x0, symName: __ZNSt3__115basic_stringbufIcNS_11char_traitsIcEENS_9allocatorIcEEED2Ev, symObjAddr: 0x10E8C, symBinAddr: 0x1000273FC, symSize: 0x88 }
  - { offsetInCU: 0x20C49, offset: 0x360F2, size: 0x8, addend: 0x0, symName: __ZNSt3__16vectorINS_12basic_stringIcNS_11char_traitsIcEENS_9allocatorIcEEEENS4_IS6_EEED2B8ue170006Ev, symObjAddr: 0x10F14, symBinAddr: 0x100027484, symSize: 0x1F8 }
  - { offsetInCU: 0x20C74, offset: 0x3611D, size: 0x8, addend: 0x0, symName: __ZNSt3__16vectorINS_12basic_stringIcNS_11char_traitsIcEENS_9allocatorIcEEEENS4_IS6_EEE16__destroy_vectorC1B8ue170006ERS8_, symObjAddr: 0x1110C, symBinAddr: 0x10002767C, symSize: 0x34 }
  - { offsetInCU: 0x20CAD, offset: 0x36156, size: 0x8, addend: 0x0, symName: __ZNSt3__16vectorINS_12basic_stringIcNS_11char_traitsIcEENS_9allocatorIcEEEENS4_IS6_EEE16__destroy_vectorclB8ue170006Ev, symObjAddr: 0x11140, symBinAddr: 0x1000276B0, symSize: 0x228 }
  - { offsetInCU: 0x20CD3, offset: 0x3617C, size: 0x8, addend: 0x0, symName: __ZNSt3__16vectorINS_12basic_stringIcNS_11char_traitsIcEENS_9allocatorIcEEEENS4_IS6_EEE16__destroy_vectorC2B8ue170006ERS8_, symObjAddr: 0x11368, symBinAddr: 0x1000278D8, symSize: 0x70 }
  - { offsetInCU: 0x20D0C, offset: 0x361B5, size: 0x8, addend: 0x0, symName: __ZNSt3__16vectorINS_12basic_stringIcNS_11char_traitsIcEENS_9allocatorIcEEEENS4_IS6_EEE7__clearB8ue170006Ev, symObjAddr: 0x113D8, symBinAddr: 0x100027948, symSize: 0x64 }
  - { offsetInCU: 0x20D32, offset: 0x361DB, size: 0x8, addend: 0x0, symName: __ZNSt3__16vectorINS_12basic_stringIcNS_11char_traitsIcEENS_9allocatorIcEEEENS4_IS6_EEE22__base_destruct_at_endB8ue170006EPS6_, symObjAddr: 0x1143C, symBinAddr: 0x1000279AC, symSize: 0x114 }
  - { offsetInCU: 0x20D76, offset: 0x3621F, size: 0x8, addend: 0x0, symName: __ZNSt3__16vectorIP7CommandNS_9allocatorIS2_EEEC2B8ue170006Ev, symObjAddr: 0x117C4, symBinAddr: 0x100027AC0, symSize: 0x2E8 }
  - { offsetInCU: 0x20DA1, offset: 0x3624A, size: 0x8, addend: 0x0, symName: __ZNSt3__117__compressed_pairIPP7CommandNS_9allocatorIS2_EEEC1B8ue170006IDnNS_18__default_init_tagEEEOT_OT0_, symObjAddr: 0x11AAC, symBinAddr: 0x100027DA8, symSize: 0x3C }
  - { offsetInCU: 0x20DF9, offset: 0x362A2, size: 0x8, addend: 0x0, symName: __ZNSt3__117__compressed_pairIPP7CommandNS_9allocatorIS2_EEEC2B8ue170006IDnNS_18__default_init_tagEEEOT_OT0_, symObjAddr: 0x11AE8, symBinAddr: 0x100027DE4, symSize: 0x40 }
  - { offsetInCU: 0x20E51, offset: 0x362FA, size: 0x8, addend: 0x0, symName: __ZNSt3__122__compressed_pair_elemIPP7CommandLi0ELb0EEC2B8ue170006IDnvEEOT_, symObjAddr: 0x11B28, symBinAddr: 0x100027E24, symSize: 0x64 }
  - { offsetInCU: 0x20E93, offset: 0x3633C, size: 0x8, addend: 0x0, symName: __ZNSt3__122__compressed_pair_elemINS_9allocatorIP7CommandEELi1ELb1EEC2B8ue170006ENS_18__default_init_tagE, symObjAddr: 0x11B8C, symBinAddr: 0x100027E88, symSize: 0x2C }
  - { offsetInCU: 0x20EC8, offset: 0x36371, size: 0x8, addend: 0x0, symName: __ZNSt3__19allocatorIP7CommandEC2B8ue170006Ev, symObjAddr: 0x11BB8, symBinAddr: 0x100027EB4, symSize: 0x2C }
  - { offsetInCU: 0x20EF2, offset: 0x3639B, size: 0x8, addend: 0x0, symName: __ZNSt3__116__non_trivial_ifILb1ENS_9allocatorIP7CommandEEEC2B8ue170006Ev, symObjAddr: 0x11BE4, symBinAddr: 0x100027EE0, symSize: 0x14 }
  - { offsetInCU: 0x20F1C, offset: 0x363C5, size: 0x8, addend: 0x0, symName: __ZNSt3__16vectorIP7CommandNS_9allocatorIS2_EEE11__make_iterB8ue170006EPS2_, symObjAddr: 0x11BF8, symBinAddr: 0x100027EF4, symSize: 0x1FC }
  - { offsetInCU: 0x20F53, offset: 0x363FC, size: 0x8, addend: 0x0, symName: __ZNSt3__111__wrap_iterIPP7CommandEC1B8ue170006ES3_, symObjAddr: 0x11DF4, symBinAddr: 0x1000280F0, symSize: 0x34 }
  - { offsetInCU: 0x20F8B, offset: 0x36434, size: 0x8, addend: 0x0, symName: __ZNSt3__111__wrap_iterIPP7CommandEC2B8ue170006ES3_, symObjAddr: 0x11E28, symBinAddr: 0x100028124, symSize: 0x70 }
  - { offsetInCU: 0x20FC3, offset: 0x3646C, size: 0x8, addend: 0x0, symName: __ZNKSt3__111__wrap_iterIPP7CommandE4baseB8ue170006Ev, symObjAddr: 0x11EE0, symBinAddr: 0x1000281DC, symSize: 0x60 }
  - { offsetInCU: 0x20FE9, offset: 0x36492, size: 0x8, addend: 0x0, symName: __ZNSt3__16vectorIP7CommandNS_9allocatorIS2_EEE9__end_capB8ue170006Ev, symObjAddr: 0x11F40, symBinAddr: 0x10002823C, symSize: 0x28 }
  - { offsetInCU: 0x21014, offset: 0x364BD, size: 0x8, addend: 0x0, symName: __ZNSt3__16vectorIP7CommandNS_9allocatorIS2_EEE22__construct_one_at_endB8ue170006IJS2_EEEvDpOT_, symObjAddr: 0x11F68, symBinAddr: 0x100028264, symSize: 0x36C }
  - { offsetInCU: 0x21069, offset: 0x36512, size: 0x8, addend: 0x0, symName: __ZNSt3__16vectorIP7CommandNS_9allocatorIS2_EEE21__push_back_slow_pathIS2_EEvOT_, symObjAddr: 0x122D4, symBinAddr: 0x1000285D0, symSize: 0x3C0 }
  - { offsetInCU: 0x210CE, offset: 0x36577, size: 0x8, addend: 0x0, symName: __ZNSt3__117__compressed_pairIPP7CommandNS_9allocatorIS2_EEE5firstB8ue170006Ev, symObjAddr: 0x12694, symBinAddr: 0x100028990, symSize: 0x24 }
  - { offsetInCU: 0x210F4, offset: 0x3659D, size: 0x8, addend: 0x0, symName: __ZNSt3__122__compressed_pair_elemIPP7CommandLi0ELb0EE5__getB8ue170006Ev, symObjAddr: 0x126B8, symBinAddr: 0x1000289B4, symSize: 0x14 }
  - { offsetInCU: 0x21133, offset: 0x365DC, size: 0x8, addend: 0x0, symName: __ZNSt3__16vectorIP7CommandNS_9allocatorIS2_EEE21_ConstructTransactionC1B8ue170006ERS5_m, symObjAddr: 0x126CC, symBinAddr: 0x1000289C8, symSize: 0x3C }
  - { offsetInCU: 0x2117B, offset: 0x36624, size: 0x8, addend: 0x0, symName: __ZNSt3__116allocator_traitsINS_9allocatorIP7CommandEEE9constructB8ue170006IS3_JS3_EvvEEvRS4_PT_DpOT0_, symObjAddr: 0x12708, symBinAddr: 0x100028A04, symSize: 0x30 }
  - { offsetInCU: 0x211CF, offset: 0x36678, size: 0x8, addend: 0x0, symName: __ZNSt3__16vectorIP7CommandNS_9allocatorIS2_EEE7__allocB8ue170006Ev, symObjAddr: 0x12738, symBinAddr: 0x100028A34, symSize: 0x28 }
  - { offsetInCU: 0x211F5, offset: 0x3669E, size: 0x8, addend: 0x0, symName: __ZNSt3__16vectorIP7CommandNS_9allocatorIS2_EEE21_ConstructTransactionD1B8ue170006Ev, symObjAddr: 0x12774, symBinAddr: 0x100028A70, symSize: 0x2C }
  - { offsetInCU: 0x2121F, offset: 0x366C8, size: 0x8, addend: 0x0, symName: __ZNSt3__16vectorIP7CommandNS_9allocatorIS2_EEE21_ConstructTransactionC2B8ue170006ERS5_m, symObjAddr: 0x127A0, symBinAddr: 0x100028A9C, symSize: 0x1D0 }
  - { offsetInCU: 0x21267, offset: 0x36710, size: 0x8, addend: 0x0, symName: __ZNKSt3__16vectorIP7CommandNS_9allocatorIS2_EEE19__annotate_increaseB8ue170006Em, symObjAddr: 0x12970, symBinAddr: 0x100028C6C, symSize: 0xD8 }
  - { offsetInCU: 0x2129C, offset: 0x36745, size: 0x8, addend: 0x0, symName: __ZNKSt3__16vectorIP7CommandNS_9allocatorIS2_EEE31__annotate_contiguous_containerEPKvS7_S7_S7_, symObjAddr: 0x12A48, symBinAddr: 0x100028D44, symSize: 0x58 }
  - { offsetInCU: 0x212FE, offset: 0x367A7, size: 0x8, addend: 0x0, symName: __ZNKSt3__16vectorIP7CommandNS_9allocatorIS2_EEE4dataB8ue170006Ev, symObjAddr: 0x12AA0, symBinAddr: 0x100028D9C, symSize: 0x64 }
  - { offsetInCU: 0x21324, offset: 0x367CD, size: 0x8, addend: 0x0, symName: __ZNKSt3__16vectorIP7CommandNS_9allocatorIS2_EEE8capacityB8ue170006Ev, symObjAddr: 0x12B04, symBinAddr: 0x100028E00, symSize: 0xBC }
  - { offsetInCU: 0x2134A, offset: 0x367F3, size: 0x8, addend: 0x0, symName: __ZNKSt3__16vectorIP7CommandNS_9allocatorIS2_EEE4sizeB8ue170006Ev, symObjAddr: 0x12BC0, symBinAddr: 0x100028EBC, symSize: 0xB0 }
  - { offsetInCU: 0x21370, offset: 0x36819, size: 0x8, addend: 0x0, symName: __ZNKSt3__16vectorIP7CommandNS_9allocatorIS2_EEE9__end_capB8ue170006Ev, symObjAddr: 0x12C70, symBinAddr: 0x100028F6C, symSize: 0x28 }
  - { offsetInCU: 0x21396, offset: 0x3683F, size: 0x8, addend: 0x0, symName: __ZNKSt3__117__compressed_pairIPP7CommandNS_9allocatorIS2_EEE5firstB8ue170006Ev, symObjAddr: 0x12C98, symBinAddr: 0x100028F94, symSize: 0x24 }
  - { offsetInCU: 0x213BC, offset: 0x36865, size: 0x8, addend: 0x0, symName: __ZNKSt3__122__compressed_pair_elemIPP7CommandLi0ELb0EE5__getB8ue170006Ev, symObjAddr: 0x12CBC, symBinAddr: 0x100028FB8, symSize: 0x14 }
  - { offsetInCU: 0x213E2, offset: 0x3688B, size: 0x8, addend: 0x0, symName: __ZNSt3__117__compressed_pairIPP7CommandNS_9allocatorIS2_EEE6secondB8ue170006Ev, symObjAddr: 0x12D88, symBinAddr: 0x100029084, symSize: 0x24 }
  - { offsetInCU: 0x21408, offset: 0x368B1, size: 0x8, addend: 0x0, symName: __ZNSt3__122__compressed_pair_elemINS_9allocatorIP7CommandEELi1ELb1EE5__getB8ue170006Ev, symObjAddr: 0x12DAC, symBinAddr: 0x1000290A8, symSize: 0x14 }
  - { offsetInCU: 0x2142E, offset: 0x368D7, size: 0x8, addend: 0x0, symName: __ZNSt3__16vectorIP7CommandNS_9allocatorIS2_EEE21_ConstructTransactionD2B8ue170006Ev, symObjAddr: 0x12DC0, symBinAddr: 0x1000290BC, symSize: 0x278 }
  - { offsetInCU: 0x21458, offset: 0x36901, size: 0x8, addend: 0x0, symName: __ZNKSt3__16vectorIP7CommandNS_9allocatorIS2_EEE17__annotate_shrinkB8ue170006Em, symObjAddr: 0x13038, symBinAddr: 0x100029334, symSize: 0xC8 }
  - { offsetInCU: 0x2148D, offset: 0x36936, size: 0x8, addend: 0x0, symName: __ZNKSt3__16vectorIP7CommandNS_9allocatorIS2_EEE11__recommendB8ue170006Em, symObjAddr: 0x13100, symBinAddr: 0x1000293FC, symSize: 0x384 }
  - { offsetInCU: 0x214E9, offset: 0x36992, size: 0x8, addend: 0x0, symName: __ZNSt3__114__split_bufferIP7CommandRNS_9allocatorIS2_EEEC1EmmS5_, symObjAddr: 0x13484, symBinAddr: 0x100029780, symSize: 0x44 }
  - { offsetInCU: 0x2153F, offset: 0x369E8, size: 0x8, addend: 0x0, symName: __ZNSt3__114__split_bufferIP7CommandRNS_9allocatorIS2_EEED1Ev, symObjAddr: 0x13A34, symBinAddr: 0x100029D30, symSize: 0x2C }
  - { offsetInCU: 0x2156B, offset: 0x36A14, size: 0x8, addend: 0x0, symName: __ZNKSt3__16vectorIP7CommandNS_9allocatorIS2_EEE8max_sizeEv, symObjAddr: 0x13A60, symBinAddr: 0x100029D5C, symSize: 0x2FC }
  - { offsetInCU: 0x21594, offset: 0x36A3D, size: 0x8, addend: 0x0, symName: __ZNKSt3__16vectorIP7CommandNS_9allocatorIS2_EEE20__throw_length_errorB8ue170006Ev, symObjAddr: 0x13D5C, symBinAddr: 0x10002A058, symSize: 0x20 }
  - { offsetInCU: 0x215C4, offset: 0x36A6D, size: 0x8, addend: 0x0, symName: __ZNSt3__116allocator_traitsINS_9allocatorIP7CommandEEE8max_sizeB8ue170006IS4_vvEEmRKS4_, symObjAddr: 0x13D7C, symBinAddr: 0x10002A078, symSize: 0x28 }
  - { offsetInCU: 0x215EF, offset: 0x36A98, size: 0x8, addend: 0x0, symName: __ZNKSt3__16vectorIP7CommandNS_9allocatorIS2_EEE7__allocB8ue170006Ev, symObjAddr: 0x13DA4, symBinAddr: 0x10002A0A0, symSize: 0x28 }
  - { offsetInCU: 0x21615, offset: 0x36ABE, size: 0x8, addend: 0x0, symName: __ZNKSt3__117__compressed_pairIPP7CommandNS_9allocatorIS2_EEE6secondB8ue170006Ev, symObjAddr: 0x13DCC, symBinAddr: 0x10002A0C8, symSize: 0x24 }
  - { offsetInCU: 0x2163B, offset: 0x36AE4, size: 0x8, addend: 0x0, symName: __ZNKSt3__122__compressed_pair_elemINS_9allocatorIP7CommandEELi1ELb1EE5__getB8ue170006Ev, symObjAddr: 0x13DF0, symBinAddr: 0x10002A0EC, symSize: 0x14 }
  - { offsetInCU: 0x21661, offset: 0x36B0A, size: 0x8, addend: 0x0, symName: __ZNSt3__114__split_bufferIP7CommandRNS_9allocatorIS2_EEEC2EmmS5_, symObjAddr: 0x13E04, symBinAddr: 0x10002A100, symSize: 0x520 }
  - { offsetInCU: 0x216DC, offset: 0x36B85, size: 0x8, addend: 0x0, symName: __ZNSt3__117__compressed_pairIPP7CommandRNS_9allocatorIS2_EEEC1B8ue170006IDnS6_EEOT_OT0_, symObjAddr: 0x14324, symBinAddr: 0x10002A620, symSize: 0x3C }
  - { offsetInCU: 0x21734, offset: 0x36BDD, size: 0x8, addend: 0x0, symName: __ZNSt3__114__split_bufferIP7CommandRNS_9allocatorIS2_EEE7__allocB8ue170006Ev, symObjAddr: 0x145EC, symBinAddr: 0x10002A8E8, symSize: 0x28 }
  - { offsetInCU: 0x2175A, offset: 0x36C03, size: 0x8, addend: 0x0, symName: __ZNSt3__114__split_bufferIP7CommandRNS_9allocatorIS2_EEE9__end_capB8ue170006Ev, symObjAddr: 0x14614, symBinAddr: 0x10002A910, symSize: 0x28 }
  - { offsetInCU: 0x21780, offset: 0x36C29, size: 0x8, addend: 0x0, symName: __ZNSt3__117__compressed_pairIPP7CommandRNS_9allocatorIS2_EEEC2B8ue170006IDnS6_EEOT_OT0_, symObjAddr: 0x1463C, symBinAddr: 0x10002A938, symSize: 0x48 }
  - { offsetInCU: 0x217D8, offset: 0x36C81, size: 0x8, addend: 0x0, symName: __ZNSt3__122__compressed_pair_elemIRNS_9allocatorIP7CommandEELi1ELb0EEC2B8ue170006IS5_vEEOT_, symObjAddr: 0x14684, symBinAddr: 0x10002A980, symSize: 0x70 }
  - { offsetInCU: 0x2181A, offset: 0x36CC3, size: 0x8, addend: 0x0, symName: __ZNSt3__19allocatorIP7CommandE8allocateB8ue170006Em, symObjAddr: 0x146F4, symBinAddr: 0x10002A9F0, symSize: 0x5C }
  - { offsetInCU: 0x2184E, offset: 0x36CF7, size: 0x8, addend: 0x0, symName: __ZNSt3__117__compressed_pairIPP7CommandRNS_9allocatorIS2_EEE6secondB8ue170006Ev, symObjAddr: 0x14750, symBinAddr: 0x10002AA4C, symSize: 0x28 }
  - { offsetInCU: 0x21874, offset: 0x36D1D, size: 0x8, addend: 0x0, symName: __ZNSt3__122__compressed_pair_elemIRNS_9allocatorIP7CommandEELi1ELb0EE5__getB8ue170006Ev, symObjAddr: 0x14778, symBinAddr: 0x10002AA74, symSize: 0x60 }
  - { offsetInCU: 0x2189A, offset: 0x36D43, size: 0x8, addend: 0x0, symName: __ZNSt3__117__compressed_pairIPP7CommandRNS_9allocatorIS2_EEE5firstB8ue170006Ev, symObjAddr: 0x147D8, symBinAddr: 0x10002AAD4, symSize: 0x24 }
  - { offsetInCU: 0x218C0, offset: 0x36D69, size: 0x8, addend: 0x0, symName: __ZNKSt3__16vectorIP7CommandNS_9allocatorIS2_EEE17__annotate_deleteB8ue170006Ev, symObjAddr: 0x147FC, symBinAddr: 0x10002AAF8, symSize: 0xCC }
  - { offsetInCU: 0x218E6, offset: 0x36D8F, size: 0x8, addend: 0x0, symName: __ZNSt3__116reverse_iteratorIPP7CommandEC1B8ue170006ES3_, symObjAddr: 0x14D70, symBinAddr: 0x10002B06C, symSize: 0x34 }
  - { offsetInCU: 0x2191E, offset: 0x36DC7, size: 0x8, addend: 0x0, symName: __ZNKSt3__116reverse_iteratorIPP7CommandE4baseB8ue170006Ev, symObjAddr: 0x14DA4, symBinAddr: 0x10002B0A0, symSize: 0x64 }
  - { offsetInCU: 0x21944, offset: 0x36DED, size: 0x8, addend: 0x0, symName: __ZNKSt3__16vectorIP7CommandNS_9allocatorIS2_EEE14__annotate_newB8ue170006Em, symObjAddr: 0x14F3C, symBinAddr: 0x10002B238, symSize: 0xC0 }
  - { offsetInCU: 0x2199C, offset: 0x36E45, size: 0x8, addend: 0x0, symName: __ZNKSt3__111__move_loopINS_17_ClassicAlgPolicyEEclB8ue170006INS_16reverse_iteratorIPP7CommandEES8_S8_EENS_4pairIT_T1_EESA_T0_SB_, symObjAddr: 0x168D0, symBinAddr: 0x10002CBCC, symSize: 0x3A8 }
  - { offsetInCU: 0x21A14, offset: 0x36EBD, size: 0x8, addend: 0x0, symName: __ZNSt3__119__unwrap_range_implINS_16reverse_iteratorIPP7CommandEES5_E8__unwrapB8ue170006ES5_S5_, symObjAddr: 0x17758, symBinAddr: 0x10002DA54, symSize: 0x448 }
  - { offsetInCU: 0x21A52, offset: 0x36EFB, size: 0x8, addend: 0x0, symName: __ZNSt3__14pairINS_16reverse_iteratorIPP7CommandEES5_EC1B8ue170006IS5_S5_LPv0EEEOT_OT0_, symObjAddr: 0x17BA0, symBinAddr: 0x10002DE9C, symSize: 0x3C }
  - { offsetInCU: 0x21AB0, offset: 0x36F59, size: 0x8, addend: 0x0, symName: __ZNSt3__14pairINS_16reverse_iteratorIPP7CommandEES5_EC2B8ue170006IS5_S5_LPv0EEEOT_OT0_, symObjAddr: 0x17BDC, symBinAddr: 0x10002DED8, symSize: 0x54 }
  - { offsetInCU: 0x21B0E, offset: 0x36FB7, size: 0x8, addend: 0x0, symName: __ZNSt3__18_IterOpsINS_17_ClassicAlgPolicyEE11__iter_moveB8ue170006IRNS_16reverse_iteratorIPP7CommandEEEENS_9enable_ifIXsr12is_referenceIDTdeclsr3stdE7declvalIRT_EEEEE5valueEDTclsr3stdE4movedeclsr3stdE7declvalISC_EEEEE4typeEOSB_, symObjAddr: 0x17C78, symBinAddr: 0x10002DF74, symSize: 0x28 }
  - { offsetInCU: 0x21B3A, offset: 0x36FE3, size: 0x8, addend: 0x0, symName: __ZNKSt3__116reverse_iteratorIPP7CommandEdeB8ue170006Ev, symObjAddr: 0x17CA0, symBinAddr: 0x10002DF9C, symSize: 0x74 }
  - { offsetInCU: 0x21B6E, offset: 0x37017, size: 0x8, addend: 0x0, symName: __ZNSt3__116reverse_iteratorIPP7CommandEppB8ue170006Ev, symObjAddr: 0x17D14, symBinAddr: 0x10002E010, symSize: 0x6C }
  - { offsetInCU: 0x21B94, offset: 0x3703D, size: 0x8, addend: 0x0, symName: __ZNSt3__18_IterOpsINS_17_ClassicAlgPolicyEE25__validate_iter_referenceB8ue170006IRNS_16reverse_iteratorIPP7CommandEEEEvv, symObjAddr: 0x17D80, symBinAddr: 0x10002E07C, symSize: 0x4 }
  - { offsetInCU: 0x21BB2, offset: 0x3705B, size: 0x8, addend: 0x0, symName: __ZNSt3__118__unwrap_iter_implINS_16reverse_iteratorIPP7CommandEELb0EE8__unwrapB8ue170006ES5_, symObjAddr: 0x17D84, symBinAddr: 0x10002E080, symSize: 0x274 }
  - { offsetInCU: 0x21BD9, offset: 0x37082, size: 0x8, addend: 0x0, symName: __ZNSt3__119__unwrap_range_implINS_16reverse_iteratorIPP7CommandEES5_E8__rewrapB8ue170006ES5_S5_, symObjAddr: 0x17FF8, symBinAddr: 0x10002E2F4, symSize: 0x3D4 }
  - { offsetInCU: 0x21C12, offset: 0x370BB, size: 0x8, addend: 0x0, symName: __ZNSt3__118__unwrap_iter_implINS_16reverse_iteratorIPP7CommandEELb0EE8__rewrapB8ue170006ES5_S5_, symObjAddr: 0x183CC, symBinAddr: 0x10002E6C8, symSize: 0x2E0 }
  - { offsetInCU: 0x21C48, offset: 0x370F1, size: 0x8, addend: 0x0, symName: __ZNSt3__116reverse_iteratorIPP7CommandEC2B8ue170006ES3_, symObjAddr: 0x186AC, symBinAddr: 0x10002E9A8, symSize: 0xB8 }
  - { offsetInCU: 0x21C80, offset: 0x37129, size: 0x8, addend: 0x0, symName: __ZNSt3__114__split_bufferIP7CommandRNS_9allocatorIS2_EEED2Ev, symObjAddr: 0x18764, symBinAddr: 0x10002EA60, symSize: 0x104 }
  - { offsetInCU: 0x21CAC, offset: 0x37155, size: 0x8, addend: 0x0, symName: __ZNSt3__114__split_bufferIP7CommandRNS_9allocatorIS2_EEE5clearB8ue170006Ev, symObjAddr: 0x18868, symBinAddr: 0x10002EB64, symSize: 0x68 }
  - { offsetInCU: 0x21CD2, offset: 0x3717B, size: 0x8, addend: 0x0, symName: __ZNSt3__116allocator_traitsINS_9allocatorIP7CommandEEE10deallocateB8ue170006ERS4_PS3_m, symObjAddr: 0x188D0, symBinAddr: 0x10002EBCC, symSize: 0x34 }
  - { offsetInCU: 0x21D14, offset: 0x371BD, size: 0x8, addend: 0x0, symName: __ZNKSt3__114__split_bufferIP7CommandRNS_9allocatorIS2_EEE8capacityB8ue170006Ev, symObjAddr: 0x18904, symBinAddr: 0x10002EC00, symSize: 0xBC }
  - { offsetInCU: 0x21D3A, offset: 0x371E3, size: 0x8, addend: 0x0, symName: __ZNSt3__114__split_bufferIP7CommandRNS_9allocatorIS2_EEE17__destruct_at_endB8ue170006EPS2_, symObjAddr: 0x189C0, symBinAddr: 0x10002ECBC, symSize: 0x2C }
  - { offsetInCU: 0x21D6E, offset: 0x37217, size: 0x8, addend: 0x0, symName: __ZNSt3__114__split_bufferIP7CommandRNS_9allocatorIS2_EEE17__destruct_at_endB8ue170006EPS2_NS_17integral_constantIbLb0EEE, symObjAddr: 0x189EC, symBinAddr: 0x10002ECE8, symSize: 0x10C }
  - { offsetInCU: 0x21DAF, offset: 0x37258, size: 0x8, addend: 0x0, symName: __ZNSt3__116allocator_traitsINS_9allocatorIP7CommandEEE7destroyB8ue170006IS3_vvEEvRS4_PT_, symObjAddr: 0x18AF8, symBinAddr: 0x10002EDF4, symSize: 0x28 }
  - { offsetInCU: 0x21DE9, offset: 0x37292, size: 0x8, addend: 0x0, symName: __ZNSt3__19allocatorIP7CommandE10deallocateB8ue170006EPS2_m, symObjAddr: 0x18B54, symBinAddr: 0x10002EE50, symSize: 0x4C }
  - { offsetInCU: 0x21E2B, offset: 0x372D4, size: 0x8, addend: 0x0, symName: __ZNKSt3__114__split_bufferIP7CommandRNS_9allocatorIS2_EEE9__end_capB8ue170006Ev, symObjAddr: 0x18BA0, symBinAddr: 0x10002EE9C, symSize: 0x28 }
  - { offsetInCU: 0x21E51, offset: 0x372FA, size: 0x8, addend: 0x0, symName: __ZNKSt3__117__compressed_pairIPP7CommandRNS_9allocatorIS2_EEE5firstB8ue170006Ev, symObjAddr: 0x18BC8, symBinAddr: 0x10002EEC4, symSize: 0x24 }
  - { offsetInCU: 0x21E77, offset: 0x37320, size: 0x8, addend: 0x0, symName: __ZNSt3__16vectorIP7CommandNS_9allocatorIS2_EEE7__clearB8ue170006Ev, symObjAddr: 0x18BEC, symBinAddr: 0x10002EEE8, symSize: 0x64 }
  - { offsetInCU: 0x21E9D, offset: 0x37346, size: 0x8, addend: 0x0, symName: __ZNSt3__16vectorIP7CommandNS_9allocatorIS2_EEE22__base_destruct_at_endB8ue170006EPS2_, symObjAddr: 0x18C50, symBinAddr: 0x10002EF4C, symSize: 0x114 }
  - { offsetInCU: 0x21EE1, offset: 0x3738A, size: 0x8, addend: 0x0, symName: __ZNSt3__16vectorIP7CommandNS_9allocatorIS2_EEED2B8ue170006Ev, symObjAddr: 0x18D64, symBinAddr: 0x10002F060, symSize: 0x1F8 }
  - { offsetInCU: 0x21F0C, offset: 0x373B5, size: 0x8, addend: 0x0, symName: __ZNSt3__16vectorIP7CommandNS_9allocatorIS2_EEE16__destroy_vectorC1B8ue170006ERS5_, symObjAddr: 0x18F5C, symBinAddr: 0x10002F258, symSize: 0x34 }
  - { offsetInCU: 0x21F45, offset: 0x373EE, size: 0x8, addend: 0x0, symName: __ZNSt3__16vectorIP7CommandNS_9allocatorIS2_EEE16__destroy_vectorclB8ue170006Ev, symObjAddr: 0x18F90, symBinAddr: 0x10002F28C, symSize: 0x228 }
  - { offsetInCU: 0x21F6B, offset: 0x37414, size: 0x8, addend: 0x0, symName: __ZNSt3__16vectorIP7CommandNS_9allocatorIS2_EEE16__destroy_vectorC2B8ue170006ERS5_, symObjAddr: 0x191B8, symBinAddr: 0x10002F4B4, symSize: 0x70 }
  - { offsetInCU: 0x21FA9, offset: 0x37452, size: 0x8, addend: 0x0, symName: __ZNSt3__16vectorIP7CommandNS_9allocatorIS2_EEE22__construct_one_at_endB8ue170006IJRKS2_EEEvDpOT_, symObjAddr: 0x19228, symBinAddr: 0x10002F524, symSize: 0x36C }
  - { offsetInCU: 0x21FFE, offset: 0x374A7, size: 0x8, addend: 0x0, symName: __ZNSt3__16vectorIP7CommandNS_9allocatorIS2_EEE21__push_back_slow_pathIRKS2_EEvOT_, symObjAddr: 0x19594, symBinAddr: 0x10002F890, symSize: 0x3C0 }
  - { offsetInCU: 0x22063, offset: 0x3750C, size: 0x8, addend: 0x0, symName: __ZNSt3__116allocator_traitsINS_9allocatorIP7CommandEEE9constructB8ue170006IS3_JRKS3_EvvEEvRS4_PT_DpOT0_, symObjAddr: 0x19954, symBinAddr: 0x10002FC50, symSize: 0x30 }
  - { offsetInCU: 0x220B7, offset: 0x37560, size: 0x8, addend: 0x0, symName: __ZNKSt3__112basic_stringIcNS_11char_traitsIcEENS_9allocatorIcEEEcvNS_17basic_string_viewIcS2_EEB8ue170006Ev, symObjAddr: 0x19D84, symBinAddr: 0x100030080, symSize: 0x228 }
  - { offsetInCU: 0x220DE, offset: 0x37587, size: 0x8, addend: 0x0, symName: __ZNSt3__117basic_string_viewIcNS_11char_traitsIcEEEC1B8ue170006EPKc, symObjAddr: 0x19FAC, symBinAddr: 0x1000302A8, symSize: 0x34 }
  - { offsetInCU: 0x22117, offset: 0x375C0, size: 0x8, addend: 0x0, symName: __ZNKSt3__117basic_string_viewIcNS_11char_traitsIcEEE4sizeB8ue170006Ev, symObjAddr: 0x19FE0, symBinAddr: 0x1000302DC, symSize: 0x64 }
  - { offsetInCU: 0x2213D, offset: 0x375E6, size: 0x8, addend: 0x0, symName: __ZNKSt3__117basic_string_viewIcNS_11char_traitsIcEEE7compareES3_, symObjAddr: 0x1A044, symBinAddr: 0x100030340, symSize: 0x434 }
  - { offsetInCU: 0x22197, offset: 0x37640, size: 0x8, addend: 0x0, symName: __ZNSt3__111char_traitsIcE7compareB8ue170006EPKcS3_m, symObjAddr: 0x1A478, symBinAddr: 0x100030774, symSize: 0x34 }
  - { offsetInCU: 0x221D6, offset: 0x3767F, size: 0x8, addend: 0x0, symName: __ZNKSt3__117basic_string_viewIcNS_11char_traitsIcEEE4dataB8ue170006Ev, symObjAddr: 0x1A4AC, symBinAddr: 0x1000307A8, symSize: 0x60 }
  - { offsetInCU: 0x221FC, offset: 0x376A5, size: 0x8, addend: 0x0, symName: __ZNSt3__117basic_string_viewIcNS_11char_traitsIcEEEC1B8ue170006EPKcm, symObjAddr: 0x1A588, symBinAddr: 0x100030808, symSize: 0x3C }
  - { offsetInCU: 0x22244, offset: 0x376ED, size: 0x8, addend: 0x0, symName: __ZNSt3__117basic_string_viewIcNS_11char_traitsIcEEEC2B8ue170006EPKcm, symObjAddr: 0x1A8C0, symBinAddr: 0x100030844, symSize: 0xBC }
  - { offsetInCU: 0x2228C, offset: 0x37735, size: 0x8, addend: 0x0, symName: __ZNSt3__117basic_string_viewIcNS_11char_traitsIcEEEC2B8ue170006EPKc, symObjAddr: 0x1A97C, symBinAddr: 0x100030900, symSize: 0xC4 }
  - { offsetInCU: 0x222C5, offset: 0x3776E, size: 0x8, addend: 0x0, symName: __ZNSt3__112basic_stringIcNS_11char_traitsIcEENS_9allocatorIcEEEC2B8ue170006EOS5_, symObjAddr: 0x1AA64, symBinAddr: 0x1000309E8, symSize: 0x40 }
  - { offsetInCU: 0x222FE, offset: 0x377A7, size: 0x8, addend: 0x0, symName: __ZNSt3__19basic_iosIcNS_11char_traitsIcEEEC2B8ue170006Ev, symObjAddr: 0x1AAA4, symBinAddr: 0x100030A28, symSize: 0x84 }
  - { offsetInCU: 0x22328, offset: 0x377D1, size: 0x8, addend: 0x0, symName: __ZNSt3__113basic_istreamIcNS_11char_traitsIcEEEC2B8ue170006EPNS_15basic_streambufIcS2_EE, symObjAddr: 0x1AB28, symBinAddr: 0x100030AAC, symSize: 0x20C }
  - { offsetInCU: 0x2236D, offset: 0x37816, size: 0x8, addend: 0x0, symName: __ZNSt3__115basic_stringbufIcNS_11char_traitsIcEENS_9allocatorIcEEEC1B8ue170006ERKNS_12basic_stringIcS2_S4_EEj, symObjAddr: 0x1AD34, symBinAddr: 0x100030CB8, symSize: 0x3C }
  - { offsetInCU: 0x223B5, offset: 0x3785E, size: 0x8, addend: 0x0, symName: __ZNSt3__18ios_baseC2B8ue170006Ev, symObjAddr: 0x1AD70, symBinAddr: 0x100030CF4, symSize: 0x74 }
  - { offsetInCU: 0x223DF, offset: 0x37888, size: 0x8, addend: 0x0, symName: __ZNSt3__19basic_iosIcNS_11char_traitsIcEEE4initB8ue170006EPNS_15basic_streambufIcS2_EE, symObjAddr: 0x1ADE4, symBinAddr: 0x100030D68, symSize: 0xEC }
  - { offsetInCU: 0x22416, offset: 0x378BF, size: 0x8, addend: 0x0, symName: __ZNSt3__115basic_stringbufIcNS_11char_traitsIcEENS_9allocatorIcEEEC2B8ue170006ERKNS_12basic_stringIcS2_S4_EEj, symObjAddr: 0x1AED8, symBinAddr: 0x100030E54, symSize: 0x398 }
  - { offsetInCU: 0x22461, offset: 0x3790A, size: 0x8, addend: 0x0, symName: __ZNKSt3__112basic_stringIcNS_11char_traitsIcEENS_9allocatorIcEEE13get_allocatorB8ue170006Ev, symObjAddr: 0x1B270, symBinAddr: 0x1000311EC, symSize: 0x24 }
  - { offsetInCU: 0x22487, offset: 0x37930, size: 0x8, addend: 0x0, symName: __ZNSt3__112basic_stringIcNS_11char_traitsIcEENS_9allocatorIcEEEC1B8ue170006ERKS4_, symObjAddr: 0x1B294, symBinAddr: 0x100031210, symSize: 0x34 }
  - { offsetInCU: 0x224C0, offset: 0x37969, size: 0x8, addend: 0x0, symName: __ZNKSt3__112basic_stringIcNS_11char_traitsIcEENS_9allocatorIcEEE7__allocB8ue170006Ev, symObjAddr: 0x1B2C8, symBinAddr: 0x100031244, symSize: 0x24 }
  - { offsetInCU: 0x224E6, offset: 0x3798F, size: 0x8, addend: 0x0, symName: __ZNKSt3__117__compressed_pairINS_12basic_stringIcNS_11char_traitsIcEENS_9allocatorIcEEE5__repES5_E6secondB8ue170006Ev, symObjAddr: 0x1B2EC, symBinAddr: 0x100031268, symSize: 0x24 }
  - { offsetInCU: 0x2250C, offset: 0x379B5, size: 0x8, addend: 0x0, symName: __ZNKSt3__122__compressed_pair_elemINS_9allocatorIcEELi1ELb1EE5__getB8ue170006Ev, symObjAddr: 0x1B310, symBinAddr: 0x10003128C, symSize: 0x14 }
  - { offsetInCU: 0x22532, offset: 0x379DB, size: 0x8, addend: 0x0, symName: __ZNSt3__112basic_stringIcNS_11char_traitsIcEENS_9allocatorIcEEEC2B8ue170006ERKS4_, symObjAddr: 0x1B324, symBinAddr: 0x1000312A0, symSize: 0x1FC }
  - { offsetInCU: 0x2256D, offset: 0x37A16, size: 0x8, addend: 0x0, symName: __ZNSt3__117__compressed_pairINS_12basic_stringIcNS_11char_traitsIcEENS_9allocatorIcEEE5__repES5_EC1B8ue170006INS_18__default_init_tagERKS5_EEOT_OT0_, symObjAddr: 0x1B520, symBinAddr: 0x10003149C, symSize: 0x3C }
  - { offsetInCU: 0x225C5, offset: 0x37A6E, size: 0x8, addend: 0x0, symName: __ZNSt3__117__compressed_pairINS_12basic_stringIcNS_11char_traitsIcEENS_9allocatorIcEEE5__repES5_EC2B8ue170006INS_18__default_init_tagERKS5_EEOT_OT0_, symObjAddr: 0x1B55C, symBinAddr: 0x1000314D8, symSize: 0x40 }
  - { offsetInCU: 0x2261D, offset: 0x37AC6, size: 0x8, addend: 0x0, symName: __ZNSt3__122__compressed_pair_elemINS_9allocatorIcEELi1ELb1EEC2B8ue170006IRKS2_vEEOT_, symObjAddr: 0x1B59C, symBinAddr: 0x100031518, symSize: 0x18 }
  - { offsetInCU: 0x2267D, offset: 0x37B26, size: 0x8, addend: 0x0, symName: __ZNKSt3__113basic_istreamIcNS_11char_traitsIcEEE6sentrycvbB8ue170006Ev, symObjAddr: 0x1B5B4, symBinAddr: 0x100031530, symSize: 0x88 }
  - { offsetInCU: 0x226A3, offset: 0x37B4C, size: 0x8, addend: 0x0, symName: __ZNSt3__112basic_stringIcNS_11char_traitsIcEENS_9allocatorIcEEE5clearB8ue170006Ev, symObjAddr: 0x1B63C, symBinAddr: 0x1000315B8, symSize: 0x30C }
  - { offsetInCU: 0x226CC, offset: 0x37B75, size: 0x8, addend: 0x0, symName: __ZNSt3__115basic_streambufIcNS_11char_traitsIcEEE6sbumpcB8ue170006Ev, symObjAddr: 0x1B96C, symBinAddr: 0x1000318C4, symSize: 0x1EC }
  - { offsetInCU: 0x226F2, offset: 0x37B9B, size: 0x8, addend: 0x0, symName: __ZNSt3__111char_traitsIcE12to_char_typeB8ue170006Ei, symObjAddr: 0x1BB80, symBinAddr: 0x100031AB0, symSize: 0x18 }
  - { offsetInCU: 0x22715, offset: 0x37BBE, size: 0x8, addend: 0x0, symName: __ZNSt3__111char_traitsIcE2eqEcc, symObjAddr: 0x1BB98, symBinAddr: 0x100031AC8, symSize: 0x28 }
  - { offsetInCU: 0x22746, offset: 0x37BEF, size: 0x8, addend: 0x0, symName: __ZNKSt3__112basic_stringIcNS_11char_traitsIcEENS_9allocatorIcEEE8max_sizeB8ue170006Ev, symObjAddr: 0x1BBC0, symBinAddr: 0x100031AF0, symSize: 0xBC }
  - { offsetInCU: 0x22798, offset: 0x37C41, size: 0x8, addend: 0x0, symName: __ZNSt3__18ios_base18__setstate_nothrowB8ue170006Ej, symObjAddr: 0x1BC7C, symBinAddr: 0x100031BAC, symSize: 0x178 }
  - { offsetInCU: 0x227CD, offset: 0x37C76, size: 0x8, addend: 0x0, symName: __ZNKSt3__19basic_iosIcNS_11char_traitsIcEEE10exceptionsB8ue170006Ev, symObjAddr: 0x1BDF4, symBinAddr: 0x100031D24, symSize: 0x24 }
  - { offsetInCU: 0x227F3, offset: 0x37C9C, size: 0x8, addend: 0x0, symName: __ZNSt3__111char_traitsIcE6assignB8ue170006ERcRKc, symObjAddr: 0x1BE44, symBinAddr: 0x100031D48, symSize: 0xF4 }
  - { offsetInCU: 0x22824, offset: 0x37CCD, size: 0x8, addend: 0x0, symName: __ZNSt3__112basic_stringIcNS_11char_traitsIcEENS_9allocatorIcEEE15__set_long_sizeB8ue170006Em, symObjAddr: 0x1BFA4, symBinAddr: 0x100031E3C, symSize: 0x80 }
  - { offsetInCU: 0x22859, offset: 0x37D02, size: 0x8, addend: 0x0, symName: __ZNSt3__112basic_stringIcNS_11char_traitsIcEENS_9allocatorIcEEE16__set_short_sizeB8ue170006Em, symObjAddr: 0x1C04C, symBinAddr: 0x100031EBC, symSize: 0x130 }
  - { offsetInCU: 0x2288E, offset: 0x37D37, size: 0x8, addend: 0x0, symName: __ZNSt3__111char_traitsIcE11to_int_typeB8ue170006Ec, symObjAddr: 0x1C1F4, symBinAddr: 0x100031FEC, symSize: 0x14 }
  - { offsetInCU: 0x228BC, offset: 0x37D65, size: 0x8, addend: 0x0, symName: __ZNSt3__116allocator_traitsINS_9allocatorIcEEE8max_sizeB8ue170006IS2_vvEEmRKS2_, symObjAddr: 0x1C208, symBinAddr: 0x100032000, symSize: 0x28 }
  - { offsetInCU: 0x228E7, offset: 0x37D90, size: 0x8, addend: 0x0, symName: __ZNKSt3__18ios_base10exceptionsB8ue170006Ev, symObjAddr: 0x1C230, symBinAddr: 0x100032028, symSize: 0x8C }
  - { offsetInCU: 0x2290F, offset: 0x37DB8, size: 0x8, addend: 0x0, symName: __ZNKSt3__19basic_iosIcNS_11char_traitsIcEEE4failB8ue170006Ev, symObjAddr: 0x1C358, symBinAddr: 0x1000320B4, symSize: 0x28 }
  - { offsetInCU: 0x22935, offset: 0x37DDE, size: 0x8, addend: 0x0, symName: __ZNKSt3__18ios_base4failB8ue170006Ev, symObjAddr: 0x1C380, symBinAddr: 0x1000320DC, symSize: 0x9C }
  - { offsetInCU: 0x22980, offset: 0x37E29, size: 0x8, addend: 0x0, symName: __ZNSt3__13setINS_12basic_stringIcNS_11char_traitsIcEENS_9allocatorIcEEEENS_4lessIS6_EENS4_IS6_EEEC2B8ue170006Ev, symObjAddr: 0x1DF58, symBinAddr: 0x100032178, symSize: 0x1D8 }
  - { offsetInCU: 0x229AB, offset: 0x37E54, size: 0x8, addend: 0x0, symName: __ZNSt3__16__treeINS_12basic_stringIcNS_11char_traitsIcEENS_9allocatorIcEEEENS_4lessIS6_EENS4_IS6_EEEC1ERKS8_, symObjAddr: 0x1E130, symBinAddr: 0x100032350, symSize: 0x34 }
  - { offsetInCU: 0x229E6, offset: 0x37E8F, size: 0x8, addend: 0x0, symName: __ZNSt3__16__treeINS_12basic_stringIcNS_11char_traitsIcEENS_9allocatorIcEEEENS_4lessIS6_EENS4_IS6_EEEC2ERKS8_, symObjAddr: 0x1E164, symBinAddr: 0x100032384, symSize: 0x2CC }
  - { offsetInCU: 0x22A23, offset: 0x37ECC, size: 0x8, addend: 0x0, symName: __ZNSt3__117__compressed_pairINS_15__tree_end_nodeIPNS_16__tree_node_baseIPvEEEENS_9allocatorINS_11__tree_nodeINS_12basic_stringIcNS_11char_traitsIcEENS7_IcEEEES3_EEEEEC1B8ue170006ILb1EvEEv, symObjAddr: 0x1E430, symBinAddr: 0x100032650, symSize: 0x2C }
  - { offsetInCU: 0x22A5D, offset: 0x37F06, size: 0x8, addend: 0x0, symName: __ZNSt3__117__compressed_pairImNS_4lessINS_12basic_stringIcNS_11char_traitsIcEENS_9allocatorIcEEEEEEEC1B8ue170006IiRKS8_EEOT_OT0_, symObjAddr: 0x1E45C, symBinAddr: 0x10003267C, symSize: 0x3C }
  - { offsetInCU: 0x22AB5, offset: 0x37F5E, size: 0x8, addend: 0x0, symName: __ZNSt3__16__treeINS_12basic_stringIcNS_11char_traitsIcEENS_9allocatorIcEEEENS_4lessIS6_EENS4_IS6_EEE10__end_nodeB8ue170006Ev, symObjAddr: 0x1E498, symBinAddr: 0x1000326B8, symSize: 0x2C }
  - { offsetInCU: 0x22ADB, offset: 0x37F84, size: 0x8, addend: 0x0, symName: __ZNSt3__16__treeINS_12basic_stringIcNS_11char_traitsIcEENS_9allocatorIcEEEENS_4lessIS6_EENS4_IS6_EEE12__begin_nodeB8ue170006Ev, symObjAddr: 0x1E4C4, symBinAddr: 0x1000326E4, symSize: 0x14 }
  - { offsetInCU: 0x22B01, offset: 0x37FAA, size: 0x8, addend: 0x0, symName: __ZNSt3__117__compressed_pairINS_15__tree_end_nodeIPNS_16__tree_node_baseIPvEEEENS_9allocatorINS_11__tree_nodeINS_12basic_stringIcNS_11char_traitsIcEENS7_IcEEEES3_EEEEEC2B8ue170006ILb1EvEEv, symObjAddr: 0x1E4D8, symBinAddr: 0x1000326F8, symSize: 0x34 }
  - { offsetInCU: 0x22B36, offset: 0x37FDF, size: 0x8, addend: 0x0, symName: __ZNSt3__122__compressed_pair_elemINS_15__tree_end_nodeIPNS_16__tree_node_baseIPvEEEELi0ELb0EEC2B8ue170006ENS_16__value_init_tagE, symObjAddr: 0x1E50C, symBinAddr: 0x10003272C, symSize: 0x2C }
  - { offsetInCU: 0x22B6B, offset: 0x38014, size: 0x8, addend: 0x0, symName: __ZNSt3__122__compressed_pair_elemINS_9allocatorINS_11__tree_nodeINS_12basic_stringIcNS_11char_traitsIcEENS1_IcEEEEPvEEEELi1ELb1EEC2B8ue170006ENS_16__value_init_tagE, symObjAddr: 0x1E538, symBinAddr: 0x100032758, symSize: 0x2C }
  - { offsetInCU: 0x22BA0, offset: 0x38049, size: 0x8, addend: 0x0, symName: __ZNSt3__115__tree_end_nodeIPNS_16__tree_node_baseIPvEEEC1B8ue170006Ev, symObjAddr: 0x1E564, symBinAddr: 0x100032784, symSize: 0x2C }
  - { offsetInCU: 0x22BCA, offset: 0x38073, size: 0x8, addend: 0x0, symName: __ZNSt3__115__tree_end_nodeIPNS_16__tree_node_baseIPvEEEC2B8ue170006Ev, symObjAddr: 0x1E590, symBinAddr: 0x1000327B0, symSize: 0x60 }
  - { offsetInCU: 0x22BF4, offset: 0x3809D, size: 0x8, addend: 0x0, symName: __ZNSt3__19allocatorINS_11__tree_nodeINS_12basic_stringIcNS_11char_traitsIcEENS0_IcEEEEPvEEEC2B8ue170006Ev, symObjAddr: 0x1E5F0, symBinAddr: 0x100032810, symSize: 0x2C }
  - { offsetInCU: 0x22C1E, offset: 0x380C7, size: 0x8, addend: 0x0, symName: __ZNSt3__116__non_trivial_ifILb1ENS_9allocatorINS_11__tree_nodeINS_12basic_stringIcNS_11char_traitsIcEENS1_IcEEEEPvEEEEEC2B8ue170006Ev, symObjAddr: 0x1E61C, symBinAddr: 0x10003283C, symSize: 0x14 }
  - { offsetInCU: 0x22C48, offset: 0x380F1, size: 0x8, addend: 0x0, symName: __ZNSt3__117__compressed_pairImNS_4lessINS_12basic_stringIcNS_11char_traitsIcEENS_9allocatorIcEEEEEEEC2B8ue170006IiRKS8_EEOT_OT0_, symObjAddr: 0x1E630, symBinAddr: 0x100032850, symSize: 0x44 }
  - { offsetInCU: 0x22CA0, offset: 0x38149, size: 0x8, addend: 0x0, symName: __ZNSt3__122__compressed_pair_elemImLi0ELb0EEC2B8ue170006IivEEOT_, symObjAddr: 0x1E674, symBinAddr: 0x100032894, symSize: 0xD8 }
  - { offsetInCU: 0x22CE2, offset: 0x3818B, size: 0x8, addend: 0x0, symName: __ZNSt3__122__compressed_pair_elemINS_4lessINS_12basic_stringIcNS_11char_traitsIcEENS_9allocatorIcEEEEEELi1ELb1EEC2B8ue170006IRKS8_vEEOT_, symObjAddr: 0x1E74C, symBinAddr: 0x10003296C, symSize: 0x18 }
  - { offsetInCU: 0x22D24, offset: 0x381CD, size: 0x8, addend: 0x0, symName: __ZNSt3__114pointer_traitsIPNS_15__tree_end_nodeIPNS_16__tree_node_baseIPvEEEEE10pointer_toB8ue170006ERS6_, symObjAddr: 0x1E764, symBinAddr: 0x100032984, symSize: 0x14 }
  - { offsetInCU: 0x22D47, offset: 0x381F0, size: 0x8, addend: 0x0, symName: __ZNSt3__117__compressed_pairINS_15__tree_end_nodeIPNS_16__tree_node_baseIPvEEEENS_9allocatorINS_11__tree_nodeINS_12basic_stringIcNS_11char_traitsIcEENS7_IcEEEES3_EEEEE5firstB8ue170006Ev, symObjAddr: 0x1E778, symBinAddr: 0x100032998, symSize: 0x24 }
  - { offsetInCU: 0x22D6D, offset: 0x38216, size: 0x8, addend: 0x0, symName: __ZNSt3__122__compressed_pair_elemINS_15__tree_end_nodeIPNS_16__tree_node_baseIPvEEEELi0ELb0EE5__getB8ue170006Ev, symObjAddr: 0x1E79C, symBinAddr: 0x1000329BC, symSize: 0x14 }
  - { offsetInCU: 0x22D93, offset: 0x3823C, size: 0x8, addend: 0x0, symName: __ZNSt3__13setINS_12basic_stringIcNS_11char_traitsIcEENS_9allocatorIcEEEENS_4lessIS6_EENS4_IS6_EEED2B8ue170006Ev, symObjAddr: 0x1E7B0, symBinAddr: 0x1000329D0, symSize: 0x2C }
  - { offsetInCU: 0x22DBD, offset: 0x38266, size: 0x8, addend: 0x0, symName: __ZNSt3__16__treeINS_12basic_stringIcNS_11char_traitsIcEENS_9allocatorIcEEEENS_4lessIS6_EENS4_IS6_EEED1Ev, symObjAddr: 0x1E7DC, symBinAddr: 0x1000329FC, symSize: 0x2C }
  - { offsetInCU: 0x22DE9, offset: 0x38292, size: 0x8, addend: 0x0, symName: __ZNSt3__16__treeINS_12basic_stringIcNS_11char_traitsIcEENS_9allocatorIcEEEENS_4lessIS6_EENS4_IS6_EEED2Ev, symObjAddr: 0x1E808, symBinAddr: 0x100032A28, symSize: 0x38 }
  - { offsetInCU: 0x22E15, offset: 0x382BE, size: 0x8, addend: 0x0, symName: __ZNSt3__16__treeINS_12basic_stringIcNS_11char_traitsIcEENS_9allocatorIcEEEENS_4lessIS6_EENS4_IS6_EEE7destroyEPNS_11__tree_nodeIS6_PvEE, symObjAddr: 0x1E840, symBinAddr: 0x100032A60, symSize: 0x134 }
  - { offsetInCU: 0x22E61, offset: 0x3830A, size: 0x8, addend: 0x0, symName: __ZNKSt3__16__treeINS_12basic_stringIcNS_11char_traitsIcEENS_9allocatorIcEEEENS_4lessIS6_EENS4_IS6_EEE6__rootB8ue170006Ev, symObjAddr: 0x1E974, symBinAddr: 0x100032B94, symSize: 0x6C }
  - { offsetInCU: 0x22E87, offset: 0x38330, size: 0x8, addend: 0x0, symName: __ZNSt3__16__treeINS_12basic_stringIcNS_11char_traitsIcEENS_9allocatorIcEEEENS_4lessIS6_EENS4_IS6_EEE12__node_allocB8ue170006Ev, symObjAddr: 0x1E9E0, symBinAddr: 0x100032C00, symSize: 0x28 }
  - { offsetInCU: 0x22EAD, offset: 0x38356, size: 0x8, addend: 0x0, symName: __ZNSt3__116allocator_traitsINS_9allocatorINS_11__tree_nodeINS_12basic_stringIcNS_11char_traitsIcEENS1_IcEEEEPvEEEEE7destroyB8ue170006IS7_vvEEvRSA_PT_, symObjAddr: 0x1EA08, symBinAddr: 0x100032C28, symSize: 0x28 }
  - { offsetInCU: 0x22EE7, offset: 0x38390, size: 0x8, addend: 0x0, symName: __ZNSt3__122__tree_key_value_typesINS_12basic_stringIcNS_11char_traitsIcEENS_9allocatorIcEEEEE9__get_ptrB8ue170006ERS6_, symObjAddr: 0x1EA30, symBinAddr: 0x100032C50, symSize: 0x14 }
  - { offsetInCU: 0x22F0B, offset: 0x383B4, size: 0x8, addend: 0x0, symName: __ZNSt3__116allocator_traitsINS_9allocatorINS_11__tree_nodeINS_12basic_stringIcNS_11char_traitsIcEENS1_IcEEEEPvEEEEE10deallocateB8ue170006ERSA_PS9_m, symObjAddr: 0x1EA44, symBinAddr: 0x100032C64, symSize: 0x34 }
  - { offsetInCU: 0x22F4D, offset: 0x383F6, size: 0x8, addend: 0x0, symName: __ZNSt3__117__compressed_pairINS_15__tree_end_nodeIPNS_16__tree_node_baseIPvEEEENS_9allocatorINS_11__tree_nodeINS_12basic_stringIcNS_11char_traitsIcEENS7_IcEEEES3_EEEEE6secondB8ue170006Ev, symObjAddr: 0x1EA78, symBinAddr: 0x100032C98, symSize: 0x24 }
  - { offsetInCU: 0x22F73, offset: 0x3841C, size: 0x8, addend: 0x0, symName: __ZNSt3__122__compressed_pair_elemINS_9allocatorINS_11__tree_nodeINS_12basic_stringIcNS_11char_traitsIcEENS1_IcEEEEPvEEEELi1ELb1EE5__getB8ue170006Ev, symObjAddr: 0x1EA9C, symBinAddr: 0x100032CBC, symSize: 0x14 }
  - { offsetInCU: 0x22F99, offset: 0x38442, size: 0x8, addend: 0x0, symName: __ZNSt3__19allocatorINS_11__tree_nodeINS_12basic_stringIcNS_11char_traitsIcEENS0_IcEEEEPvEEE10deallocateB8ue170006EPS8_m, symObjAddr: 0x1EAB0, symBinAddr: 0x100032CD0, symSize: 0x50 }
  - { offsetInCU: 0x22FDB, offset: 0x38484, size: 0x8, addend: 0x0, symName: __ZNKSt3__16__treeINS_12basic_stringIcNS_11char_traitsIcEENS_9allocatorIcEEEENS_4lessIS6_EENS4_IS6_EEE10__end_nodeB8ue170006Ev, symObjAddr: 0x1EB00, symBinAddr: 0x100032D20, symSize: 0x2C }
  - { offsetInCU: 0x23001, offset: 0x384AA, size: 0x8, addend: 0x0, symName: __ZNKSt3__117__compressed_pairINS_15__tree_end_nodeIPNS_16__tree_node_baseIPvEEEENS_9allocatorINS_11__tree_nodeINS_12basic_stringIcNS_11char_traitsIcEENS7_IcEEEES3_EEEEE5firstB8ue170006Ev, symObjAddr: 0x1EB2C, symBinAddr: 0x100032D4C, symSize: 0x24 }
  - { offsetInCU: 0x23027, offset: 0x384D0, size: 0x8, addend: 0x0, symName: __ZNKSt3__122__compressed_pair_elemINS_15__tree_end_nodeIPNS_16__tree_node_baseIPvEEEELi0ELb0EE5__getB8ue170006Ev, symObjAddr: 0x1EB50, symBinAddr: 0x100032D70, symSize: 0x14 }
  - { offsetInCU: 0x2304D, offset: 0x384F6, size: 0x8, addend: 0x0, symName: __ZNSt3__16__treeINS_12basic_stringIcNS_11char_traitsIcEENS_9allocatorIcEEEENS_4lessIS6_EENS4_IS6_EEEaSERKSA_, symObjAddr: 0x1EB64, symBinAddr: 0x100032D84, symSize: 0x344 }
  - { offsetInCU: 0x23086, offset: 0x3852F, size: 0x8, addend: 0x0, symName: __ZNKSt3__16__treeINS_12basic_stringIcNS_11char_traitsIcEENS_9allocatorIcEEEENS_4lessIS6_EENS4_IS6_EEE10value_compB8ue170006Ev, symObjAddr: 0x1EEA8, symBinAddr: 0x1000330C8, symSize: 0x28 }
  - { offsetInCU: 0x230AC, offset: 0x38555, size: 0x8, addend: 0x0, symName: __ZNSt3__16__treeINS_12basic_stringIcNS_11char_traitsIcEENS_9allocatorIcEEEENS_4lessIS6_EENS4_IS6_EEE10value_compB8ue170006Ev, symObjAddr: 0x1EED0, symBinAddr: 0x1000330F0, symSize: 0x28 }
  - { offsetInCU: 0x230D2, offset: 0x3857B, size: 0x8, addend: 0x0, symName: __ZNSt3__16__treeINS_12basic_stringIcNS_11char_traitsIcEENS_9allocatorIcEEEENS_4lessIS6_EENS4_IS6_EEE19__copy_assign_allocB8ue170006ERKSA_, symObjAddr: 0x1EEF8, symBinAddr: 0x100033118, symSize: 0x2C }
  - { offsetInCU: 0x23107, offset: 0x385B0, size: 0x8, addend: 0x0, symName: __ZNSt3__16__treeINS_12basic_stringIcNS_11char_traitsIcEENS_9allocatorIcEEEENS_4lessIS6_EENS4_IS6_EEE14__assign_multiINS_21__tree_const_iteratorIS6_PNS_11__tree_nodeIS6_PvEElEEEEvT_SI_, symObjAddr: 0x1EF24, symBinAddr: 0x100033144, symSize: 0x5BC }
  - { offsetInCU: 0x23178, offset: 0x38621, size: 0x8, addend: 0x0, symName: __ZNKSt3__16__treeINS_12basic_stringIcNS_11char_traitsIcEENS_9allocatorIcEEEENS_4lessIS6_EENS4_IS6_EEE5beginB8ue170006Ev, symObjAddr: 0x1F4E0, symBinAddr: 0x100033700, symSize: 0x238 }
  - { offsetInCU: 0x2319F, offset: 0x38648, size: 0x8, addend: 0x0, symName: __ZNKSt3__16__treeINS_12basic_stringIcNS_11char_traitsIcEENS_9allocatorIcEEEENS_4lessIS6_EENS4_IS6_EEE3endB8ue170006Ev, symObjAddr: 0x1F718, symBinAddr: 0x100033938, symSize: 0x204 }
  - { offsetInCU: 0x231C6, offset: 0x3866F, size: 0x8, addend: 0x0, symName: __ZNKSt3__117__compressed_pairImNS_4lessINS_12basic_stringIcNS_11char_traitsIcEENS_9allocatorIcEEEEEEE6secondB8ue170006Ev, symObjAddr: 0x1F91C, symBinAddr: 0x100033B3C, symSize: 0x24 }
  - { offsetInCU: 0x231EC, offset: 0x38695, size: 0x8, addend: 0x0, symName: __ZNKSt3__122__compressed_pair_elemINS_4lessINS_12basic_stringIcNS_11char_traitsIcEENS_9allocatorIcEEEEEELi1ELb1EE5__getB8ue170006Ev, symObjAddr: 0x1F940, symBinAddr: 0x100033B60, symSize: 0x14 }
  - { offsetInCU: 0x23212, offset: 0x386BB, size: 0x8, addend: 0x0, symName: __ZNSt3__117__compressed_pairImNS_4lessINS_12basic_stringIcNS_11char_traitsIcEENS_9allocatorIcEEEEEEE6secondB8ue170006Ev, symObjAddr: 0x1F954, symBinAddr: 0x100033B74, symSize: 0x24 }
  - { offsetInCU: 0x23238, offset: 0x386E1, size: 0x8, addend: 0x0, symName: __ZNSt3__122__compressed_pair_elemINS_4lessINS_12basic_stringIcNS_11char_traitsIcEENS_9allocatorIcEEEEEELi1ELb1EE5__getB8ue170006Ev, symObjAddr: 0x1F978, symBinAddr: 0x100033B98, symSize: 0x14 }
  - { offsetInCU: 0x2325E, offset: 0x38707, size: 0x8, addend: 0x0, symName: __ZNSt3__16__treeINS_12basic_stringIcNS_11char_traitsIcEENS_9allocatorIcEEEENS_4lessIS6_EENS4_IS6_EEE19__copy_assign_allocB8ue170006ERKSA_NS_17integral_constantIbLb0EEE, symObjAddr: 0x1F98C, symBinAddr: 0x100033BAC, symSize: 0x14 }
  - { offsetInCU: 0x2329A, offset: 0x38743, size: 0x8, addend: 0x0, symName: __ZNSt3__16__treeINS_12basic_stringIcNS_11char_traitsIcEENS_9allocatorIcEEEENS_4lessIS6_EENS4_IS6_EEE4sizeB8ue170006Ev, symObjAddr: 0x1F9A0, symBinAddr: 0x100033BC0, symSize: 0x28 }
  - { offsetInCU: 0x232DE, offset: 0x38787, size: 0x8, addend: 0x0, symName: __ZNSt3__16__treeINS_12basic_stringIcNS_11char_traitsIcEENS_9allocatorIcEEEENS_4lessIS6_EENS4_IS6_EEE18_DetachedTreeCacheC1B8ue170006EPSA_, symObjAddr: 0x1F9C8, symBinAddr: 0x100033BE8, symSize: 0x34 }
  - { offsetInCU: 0x23317, offset: 0x387C0, size: 0x8, addend: 0x0, symName: __ZNKSt3__16__treeINS_12basic_stringIcNS_11char_traitsIcEENS_9allocatorIcEEEENS_4lessIS6_EENS4_IS6_EEE18_DetachedTreeCache5__getB8ue170006Ev, symObjAddr: 0x1F9FC, symBinAddr: 0x100033C1C, symSize: 0x64 }
  - { offsetInCU: 0x2333D, offset: 0x387E6, size: 0x8, addend: 0x0, symName: __ZNKSt3__121__tree_const_iteratorINS_12basic_stringIcNS_11char_traitsIcEENS_9allocatorIcEEEEPNS_11__tree_nodeIS6_PvEElEdeB8ue170006Ev, symObjAddr: 0x1FA94, symBinAddr: 0x100033CB4, symSize: 0x28 }
  - { offsetInCU: 0x23363, offset: 0x3880C, size: 0x8, addend: 0x0, symName: __ZNSt3__16__treeINS_12basic_stringIcNS_11char_traitsIcEENS_9allocatorIcEEEENS_4lessIS6_EENS4_IS6_EEE19__node_insert_multiEPNS_11__tree_nodeIS6_PvEE, symObjAddr: 0x1FABC, symBinAddr: 0x100033CDC, symSize: 0x2B8 }
  - { offsetInCU: 0x233BF, offset: 0x38868, size: 0x8, addend: 0x0, symName: __ZNSt3__16__treeINS_12basic_stringIcNS_11char_traitsIcEENS_9allocatorIcEEEENS_4lessIS6_EENS4_IS6_EEE18_DetachedTreeCache9__advanceB8ue170006Ev, symObjAddr: 0x1FD74, symBinAddr: 0x100033F94, symSize: 0x178 }
  - { offsetInCU: 0x233E5, offset: 0x3888E, size: 0x8, addend: 0x0, symName: __ZNSt3__121__tree_const_iteratorINS_12basic_stringIcNS_11char_traitsIcEENS_9allocatorIcEEEEPNS_11__tree_nodeIS6_PvEElEppB8ue170006Ev, symObjAddr: 0x1FEEC, symBinAddr: 0x10003410C, symSize: 0xA8 }
  - { offsetInCU: 0x2340B, offset: 0x388B4, size: 0x8, addend: 0x0, symName: __ZNSt3__16__treeINS_12basic_stringIcNS_11char_traitsIcEENS_9allocatorIcEEEENS_4lessIS6_EENS4_IS6_EEE18_DetachedTreeCacheD1B8ue170006Ev, symObjAddr: 0x1FF94, symBinAddr: 0x1000341B4, symSize: 0x2C }
  - { offsetInCU: 0x23435, offset: 0x388DE, size: 0x8, addend: 0x0, symName: __ZNSt3__16__treeINS_12basic_stringIcNS_11char_traitsIcEENS_9allocatorIcEEEENS_4lessIS6_EENS4_IS6_EEE14__insert_multiB8ue170006IRKS6_EENS_15__tree_iteratorIS6_PNS_11__tree_nodeIS6_PvEElEEOT_, symObjAddr: 0x1FFC0, symBinAddr: 0x1000341E0, symSize: 0x23C }
  - { offsetInCU: 0x23475, offset: 0x3891E, size: 0x8, addend: 0x0, symName: __ZNSt3__122__tree_key_value_typesINS_12basic_stringIcNS_11char_traitsIcEENS_9allocatorIcEEEEE11__get_valueB8ue170006ERKS6_, symObjAddr: 0x201FC, symBinAddr: 0x10003441C, symSize: 0x14 }
  - { offsetInCU: 0x23499, offset: 0x38942, size: 0x8, addend: 0x0, symName: __ZNSt3__117__compressed_pairImNS_4lessINS_12basic_stringIcNS_11char_traitsIcEENS_9allocatorIcEEEEEEE5firstB8ue170006Ev, symObjAddr: 0x20210, symBinAddr: 0x100034430, symSize: 0x24 }
  - { offsetInCU: 0x234BF, offset: 0x38968, size: 0x8, addend: 0x0, symName: __ZNSt3__122__compressed_pair_elemImLi0ELb0EE5__getB8ue170006Ev, symObjAddr: 0x20234, symBinAddr: 0x100034454, symSize: 0x14 }
  - { offsetInCU: 0x234E5, offset: 0x3898E, size: 0x8, addend: 0x0, symName: __ZNSt3__16__treeINS_12basic_stringIcNS_11char_traitsIcEENS_9allocatorIcEEEENS_4lessIS6_EENS4_IS6_EEE18_DetachedTreeCacheC2B8ue170006EPSA_, symObjAddr: 0x20248, symBinAddr: 0x100034468, symSize: 0xCC }
  - { offsetInCU: 0x2351E, offset: 0x389C7, size: 0x8, addend: 0x0, symName: __ZNSt3__16__treeINS_12basic_stringIcNS_11char_traitsIcEENS_9allocatorIcEEEENS_4lessIS6_EENS4_IS6_EEE18_DetachedTreeCache18__detach_from_treeEPSA_, symObjAddr: 0x20314, symBinAddr: 0x100034534, symSize: 0x258 }
  - { offsetInCU: 0x23553, offset: 0x389FC, size: 0x8, addend: 0x0, symName: __ZNKSt3__121__tree_const_iteratorINS_12basic_stringIcNS_11char_traitsIcEENS_9allocatorIcEEEEPNS_11__tree_nodeIS6_PvEElE8__get_npB8ue170006Ev, symObjAddr: 0x2056C, symBinAddr: 0x10003478C, symSize: 0x60 }
  - { offsetInCU: 0x23579, offset: 0x38A22, size: 0x8, addend: 0x0, symName: __ZNSt3__16__treeINS_12basic_stringIcNS_11char_traitsIcEENS_9allocatorIcEEEENS_4lessIS6_EENS4_IS6_EEE16__find_leaf_highERPNS_15__tree_end_nodeIPNS_16__tree_node_baseIPvEEEERKS6_, symObjAddr: 0x205CC, symBinAddr: 0x1000347EC, symSize: 0x34C }
  - { offsetInCU: 0x235CE, offset: 0x38A77, size: 0x8, addend: 0x0, symName: __ZNSt3__122__tree_key_value_typesINS_12basic_stringIcNS_11char_traitsIcEENS_9allocatorIcEEEEE9__get_keyB8ue170006ERKS6_, symObjAddr: 0x20918, symBinAddr: 0x100034B38, symSize: 0x14 }
  - { offsetInCU: 0x235F2, offset: 0x38A9B, size: 0x8, addend: 0x0, symName: __ZNSt3__16__treeINS_12basic_stringIcNS_11char_traitsIcEENS_9allocatorIcEEEENS_4lessIS6_EENS4_IS6_EEE16__insert_node_atEPNS_15__tree_end_nodeIPNS_16__tree_node_baseIPvEEEERSF_SF_, symObjAddr: 0x2092C, symBinAddr: 0x100034B4C, symSize: 0x370 }
  - { offsetInCU: 0x23647, offset: 0x38AF0, size: 0x8, addend: 0x0, symName: __ZNSt3__115__tree_iteratorINS_12basic_stringIcNS_11char_traitsIcEENS_9allocatorIcEEEEPNS_11__tree_nodeIS6_PvEElEC1B8ue170006ESA_, symObjAddr: 0x20C9C, symBinAddr: 0x100034EBC, symSize: 0x34 }
  - { offsetInCU: 0x23680, offset: 0x38B29, size: 0x8, addend: 0x0, symName: __ZNKSt3__14lessINS_12basic_stringIcNS_11char_traitsIcEENS_9allocatorIcEEEEEclB8ue170006ERKS6_S9_, symObjAddr: 0x20CD0, symBinAddr: 0x100034EF0, symSize: 0x2AC }
  - { offsetInCU: 0x236D6, offset: 0x38B7F, size: 0x8, addend: 0x0, symName: __ZNSt3__120_CmpUnspecifiedParamC1B8ue170006EMS0_i, symObjAddr: 0x2159C, symBinAddr: 0x1000357BC, symSize: 0x34 }
  - { offsetInCU: 0x2370B, offset: 0x38BB4, size: 0x8, addend: 0x0, symName: __ZNSt3__120_CmpUnspecifiedParamC2B8ue170006EMS0_i, symObjAddr: 0x219B8, symBinAddr: 0x100035BD8, symSize: 0x18 }
  - { offsetInCU: 0x23740, offset: 0x38BE9, size: 0x8, addend: 0x0, symName: __ZNKSt3__116__tree_node_baseIPvE15__parent_unsafeB8ue170006Ev, symObjAddr: 0x22330, symBinAddr: 0x100036550, symSize: 0x64 }
  - { offsetInCU: 0x23766, offset: 0x38C0F, size: 0x8, addend: 0x0, symName: __ZNSt3__116__tree_node_baseIPvE12__set_parentB8ue170006EPS2_, symObjAddr: 0x22B14, symBinAddr: 0x100036D34, symSize: 0x74 }
  - { offsetInCU: 0x2379B, offset: 0x38C44, size: 0x8, addend: 0x0, symName: __ZNSt3__115__tree_iteratorINS_12basic_stringIcNS_11char_traitsIcEENS_9allocatorIcEEEEPNS_11__tree_nodeIS6_PvEElEC2B8ue170006ESA_, symObjAddr: 0x22B88, symBinAddr: 0x100036DA8, symSize: 0x70 }
  - { offsetInCU: 0x237D4, offset: 0x38C7D, size: 0x8, addend: 0x0, symName: __ZNSt3__16__treeINS_12basic_stringIcNS_11char_traitsIcEENS_9allocatorIcEEEENS_4lessIS6_EENS4_IS6_EEE18_DetachedTreeCache13__detach_nextEPNS_11__tree_nodeIS6_PvEE, symObjAddr: 0x22BF8, symBinAddr: 0x100036E18, symSize: 0x320 }
  - { offsetInCU: 0x237FA, offset: 0x38CA3, size: 0x8, addend: 0x0, symName: __ZNSt3__16__treeINS_12basic_stringIcNS_11char_traitsIcEENS_9allocatorIcEEEENS_4lessIS6_EENS4_IS6_EEE18_DetachedTreeCacheD2B8ue170006Ev, symObjAddr: 0x23274, symBinAddr: 0x100037494, symSize: 0x2CC }
  - { offsetInCU: 0x23824, offset: 0x38CCD, size: 0x8, addend: 0x0, symName: __ZNSt3__16__treeINS_12basic_stringIcNS_11char_traitsIcEENS_9allocatorIcEEEENS_4lessIS6_EENS4_IS6_EEE15__emplace_multiIJRKS6_EEENS_15__tree_iteratorIS6_PNS_11__tree_nodeIS6_PvEElEEDpOT_, symObjAddr: 0x23540, symBinAddr: 0x100037760, symSize: 0x444 }
  - { offsetInCU: 0x2389F, offset: 0x38D48, size: 0x8, addend: 0x0, symName: __ZNSt3__16__treeINS_12basic_stringIcNS_11char_traitsIcEENS_9allocatorIcEEEENS_4lessIS6_EENS4_IS6_EEE16__construct_nodeIJRKS6_EEENS_10unique_ptrINS_11__tree_nodeIS6_PvEENS_22__tree_node_destructorINS4_ISH_EEEEEEDpOT_, symObjAddr: 0x23984, symBinAddr: 0x100037BA4, symSize: 0x37C }
  - { offsetInCU: 0x23904, offset: 0x38DAD, size: 0x8, addend: 0x0, symName: __ZNKSt3__110unique_ptrINS_11__tree_nodeINS_12basic_stringIcNS_11char_traitsIcEENS_9allocatorIcEEEEPvEENS_22__tree_node_destructorINS5_IS9_EEEEEptB8ue170006Ev, symObjAddr: 0x23D00, symBinAddr: 0x100037F20, symSize: 0x6C }
  - { offsetInCU: 0x2392A, offset: 0x38DD3, size: 0x8, addend: 0x0, symName: __ZNKSt3__110unique_ptrINS_11__tree_nodeINS_12basic_stringIcNS_11char_traitsIcEENS_9allocatorIcEEEEPvEENS_22__tree_node_destructorINS5_IS9_EEEEE3getB8ue170006Ev, symObjAddr: 0x23D6C, symBinAddr: 0x100037F8C, symSize: 0x6C }
  - { offsetInCU: 0x23950, offset: 0x38DF9, size: 0x8, addend: 0x0, symName: __ZNSt3__110unique_ptrINS_11__tree_nodeINS_12basic_stringIcNS_11char_traitsIcEENS_9allocatorIcEEEEPvEENS_22__tree_node_destructorINS5_IS9_EEEEE7releaseB8ue170006Ev, symObjAddr: 0x23DD8, symBinAddr: 0x100037FF8, symSize: 0xB8 }
  - { offsetInCU: 0x23985, offset: 0x38E2E, size: 0x8, addend: 0x0, symName: __ZNSt3__110unique_ptrINS_11__tree_nodeINS_12basic_stringIcNS_11char_traitsIcEENS_9allocatorIcEEEEPvEENS_22__tree_node_destructorINS5_IS9_EEEEED1B8ue170006Ev, symObjAddr: 0x23E90, symBinAddr: 0x1000380B0, symSize: 0x2C }
  - { offsetInCU: 0x239AF, offset: 0x38E58, size: 0x8, addend: 0x0, symName: __ZNSt3__116allocator_traitsINS_9allocatorINS_11__tree_nodeINS_12basic_stringIcNS_11char_traitsIcEENS1_IcEEEEPvEEEEE8allocateB8ue170006ERSA_m, symObjAddr: 0x23EBC, symBinAddr: 0x1000380DC, symSize: 0x2C }
  - { offsetInCU: 0x239E2, offset: 0x38E8B, size: 0x8, addend: 0x0, symName: __ZNSt3__122__tree_node_destructorINS_9allocatorINS_11__tree_nodeINS_12basic_stringIcNS_11char_traitsIcEENS1_IcEEEEPvEEEEEC1B8ue170006ERSA_b, symObjAddr: 0x23EE8, symBinAddr: 0x100038108, symSize: 0x48 }
  - { offsetInCU: 0x23A2F, offset: 0x38ED8, size: 0x8, addend: 0x0, symName: __ZNSt3__110unique_ptrINS_11__tree_nodeINS_12basic_stringIcNS_11char_traitsIcEENS_9allocatorIcEEEEPvEENS_22__tree_node_destructorINS5_IS9_EEEEEC1B8ue170006ILb1EvEEPS9_NS_16__dependent_typeINS_27__unique_ptr_deleter_sfinaeISC_EEXT_EE20__good_rval_ref_typeE, symObjAddr: 0x23F30, symBinAddr: 0x100038150, symSize: 0x3C }
  - { offsetInCU: 0x23A80, offset: 0x38F29, size: 0x8, addend: 0x0, symName: __ZNSt3__116allocator_traitsINS_9allocatorINS_11__tree_nodeINS_12basic_stringIcNS_11char_traitsIcEENS1_IcEEEEPvEEEEE9constructB8ue170006IS7_JRKS7_EvvEEvRSA_PT_DpOT0_, symObjAddr: 0x23F6C, symBinAddr: 0x10003818C, symSize: 0x30 }
  - { offsetInCU: 0x23AD4, offset: 0x38F7D, size: 0x8, addend: 0x0, symName: __ZNSt3__110unique_ptrINS_11__tree_nodeINS_12basic_stringIcNS_11char_traitsIcEENS_9allocatorIcEEEEPvEENS_22__tree_node_destructorINS5_IS9_EEEEE11get_deleterB8ue170006Ev, symObjAddr: 0x23F9C, symBinAddr: 0x1000381BC, symSize: 0x24 }
  - { offsetInCU: 0x23AFA, offset: 0x38FA3, size: 0x8, addend: 0x0, symName: __ZNSt3__19allocatorINS_11__tree_nodeINS_12basic_stringIcNS_11char_traitsIcEENS0_IcEEEEPvEEE8allocateB8ue170006Em, symObjAddr: 0x23FC0, symBinAddr: 0x1000381E0, symSize: 0x60 }
  - { offsetInCU: 0x23B38, offset: 0x38FE1, size: 0x8, addend: 0x0, symName: __ZNSt3__116allocator_traitsINS_9allocatorINS_11__tree_nodeINS_12basic_stringIcNS_11char_traitsIcEENS1_IcEEEEPvEEEEE8max_sizeB8ue170006ISA_vvEEmRKSA_, symObjAddr: 0x24020, symBinAddr: 0x100038240, symSize: 0x28 }
  - { offsetInCU: 0x23B63, offset: 0x3900C, size: 0x8, addend: 0x0, symName: __ZNSt3__122__tree_node_destructorINS_9allocatorINS_11__tree_nodeINS_12basic_stringIcNS_11char_traitsIcEENS1_IcEEEEPvEEEEEC2B8ue170006ERSA_b, symObjAddr: 0x24048, symBinAddr: 0x100038268, symSize: 0xF0 }
  - { offsetInCU: 0x23BAB, offset: 0x39054, size: 0x8, addend: 0x0, symName: __ZNSt3__110unique_ptrINS_11__tree_nodeINS_12basic_stringIcNS_11char_traitsIcEENS_9allocatorIcEEEEPvEENS_22__tree_node_destructorINS5_IS9_EEEEEC2B8ue170006ILb1EvEEPS9_NS_16__dependent_typeINS_27__unique_ptr_deleter_sfinaeISC_EEXT_EE20__good_rval_ref_typeE, symObjAddr: 0x24138, symBinAddr: 0x100038358, symSize: 0x21C }
  - { offsetInCU: 0x23C02, offset: 0x390AB, size: 0x8, addend: 0x0, symName: __ZNSt3__117__compressed_pairIPNS_11__tree_nodeINS_12basic_stringIcNS_11char_traitsIcEENS_9allocatorIcEEEEPvEENS_22__tree_node_destructorINS5_IS9_EEEEEC1B8ue170006IRSA_SD_EEOT_OT0_, symObjAddr: 0x24354, symBinAddr: 0x100038574, symSize: 0x3C }
  - { offsetInCU: 0x23C5A, offset: 0x39103, size: 0x8, addend: 0x0, symName: __ZNSt3__117__compressed_pairIPNS_11__tree_nodeINS_12basic_stringIcNS_11char_traitsIcEENS_9allocatorIcEEEEPvEENS_22__tree_node_destructorINS5_IS9_EEEEEC2B8ue170006IRSA_SD_EEOT_OT0_, symObjAddr: 0x24390, symBinAddr: 0x1000385B0, symSize: 0x48 }
  - { offsetInCU: 0x23CB2, offset: 0x3915B, size: 0x8, addend: 0x0, symName: __ZNSt3__122__compressed_pair_elemIPNS_11__tree_nodeINS_12basic_stringIcNS_11char_traitsIcEENS_9allocatorIcEEEEPvEELi0ELb0EEC2B8ue170006IRSA_vEEOT_, symObjAddr: 0x243D8, symBinAddr: 0x1000385F8, symSize: 0xB0 }
  - { offsetInCU: 0x23CF4, offset: 0x3919D, size: 0x8, addend: 0x0, symName: __ZNSt3__122__compressed_pair_elemINS_22__tree_node_destructorINS_9allocatorINS_11__tree_nodeINS_12basic_stringIcNS_11char_traitsIcEENS2_IcEEEEPvEEEEEELi1ELb0EEC2B8ue170006ISC_vEEOT_, symObjAddr: 0x24488, symBinAddr: 0x1000386A8, symSize: 0x38 }
  - { offsetInCU: 0x23D36, offset: 0x391DF, size: 0x8, addend: 0x0, symName: __ZNSt3__117__compressed_pairIPNS_11__tree_nodeINS_12basic_stringIcNS_11char_traitsIcEENS_9allocatorIcEEEEPvEENS_22__tree_node_destructorINS5_IS9_EEEEE6secondB8ue170006Ev, symObjAddr: 0x244C0, symBinAddr: 0x1000386E0, symSize: 0x28 }
  - { offsetInCU: 0x23D5C, offset: 0x39205, size: 0x8, addend: 0x0, symName: __ZNSt3__122__compressed_pair_elemINS_22__tree_node_destructorINS_9allocatorINS_11__tree_nodeINS_12basic_stringIcNS_11char_traitsIcEENS2_IcEEEEPvEEEEEELi1ELb0EE5__getB8ue170006Ev, symObjAddr: 0x244E8, symBinAddr: 0x100038708, symSize: 0x14 }
  - { offsetInCU: 0x23D82, offset: 0x3922B, size: 0x8, addend: 0x0, symName: __ZNKSt3__117__compressed_pairIPNS_11__tree_nodeINS_12basic_stringIcNS_11char_traitsIcEENS_9allocatorIcEEEEPvEENS_22__tree_node_destructorINS5_IS9_EEEEE5firstB8ue170006Ev, symObjAddr: 0x244FC, symBinAddr: 0x10003871C, symSize: 0x24 }
  - { offsetInCU: 0x23DA8, offset: 0x39251, size: 0x8, addend: 0x0, symName: __ZNKSt3__122__compressed_pair_elemIPNS_11__tree_nodeINS_12basic_stringIcNS_11char_traitsIcEENS_9allocatorIcEEEEPvEELi0ELb0EE5__getB8ue170006Ev, symObjAddr: 0x24520, symBinAddr: 0x100038740, symSize: 0x14 }
  - { offsetInCU: 0x23DCE, offset: 0x39277, size: 0x8, addend: 0x0, symName: __ZNSt3__117__compressed_pairIPNS_11__tree_nodeINS_12basic_stringIcNS_11char_traitsIcEENS_9allocatorIcEEEEPvEENS_22__tree_node_destructorINS5_IS9_EEEEE5firstB8ue170006Ev, symObjAddr: 0x24534, symBinAddr: 0x100038754, symSize: 0x24 }
  - { offsetInCU: 0x23DF4, offset: 0x3929D, size: 0x8, addend: 0x0, symName: __ZNSt3__122__compressed_pair_elemIPNS_11__tree_nodeINS_12basic_stringIcNS_11char_traitsIcEENS_9allocatorIcEEEEPvEELi0ELb0EE5__getB8ue170006Ev, symObjAddr: 0x24558, symBinAddr: 0x100038778, symSize: 0x14 }
  - { offsetInCU: 0x23E1A, offset: 0x392C3, size: 0x8, addend: 0x0, symName: __ZNSt3__110unique_ptrINS_11__tree_nodeINS_12basic_stringIcNS_11char_traitsIcEENS_9allocatorIcEEEEPvEENS_22__tree_node_destructorINS5_IS9_EEEEED2B8ue170006Ev, symObjAddr: 0x2456C, symBinAddr: 0x10003878C, symSize: 0x30 }
  - { offsetInCU: 0x23E44, offset: 0x392ED, size: 0x8, addend: 0x0, symName: __ZNSt3__110unique_ptrINS_11__tree_nodeINS_12basic_stringIcNS_11char_traitsIcEENS_9allocatorIcEEEEPvEENS_22__tree_node_destructorINS5_IS9_EEEEE5resetB8ue170006EPS9_, symObjAddr: 0x2459C, symBinAddr: 0x1000387BC, symSize: 0xEC }
  - { offsetInCU: 0x23E88, offset: 0x39331, size: 0x8, addend: 0x0, symName: __ZNSt3__122__tree_node_destructorINS_9allocatorINS_11__tree_nodeINS_12basic_stringIcNS_11char_traitsIcEENS1_IcEEEEPvEEEEEclB8ue170006EPS9_, symObjAddr: 0x24688, symBinAddr: 0x1000388A8, symSize: 0x160 }
  - { offsetInCU: 0x23EBD, offset: 0x39366, size: 0x8, addend: 0x0, symName: __ZNKSt3__16__treeINS_12basic_stringIcNS_11char_traitsIcEENS_9allocatorIcEEEENS_4lessIS6_EENS4_IS6_EEE12__begin_nodeB8ue170006Ev, symObjAddr: 0x247E8, symBinAddr: 0x100038A08, symSize: 0x14 }
  - { offsetInCU: 0x23EE3, offset: 0x3938C, size: 0x8, addend: 0x0, symName: __ZNSt3__121__tree_const_iteratorINS_12basic_stringIcNS_11char_traitsIcEENS_9allocatorIcEEEEPNS_11__tree_nodeIS6_PvEElEC1B8ue170006EPNS_15__tree_end_nodeIPNS_16__tree_node_baseIS8_EEEE, symObjAddr: 0x247FC, symBinAddr: 0x100038A1C, symSize: 0x34 }
  - { offsetInCU: 0x23F1C, offset: 0x393C5, size: 0x8, addend: 0x0, symName: __ZNSt3__121__tree_const_iteratorINS_12basic_stringIcNS_11char_traitsIcEENS_9allocatorIcEEEEPNS_11__tree_nodeIS6_PvEElEC2B8ue170006EPNS_15__tree_end_nodeIPNS_16__tree_node_baseIS8_EEEE, symObjAddr: 0x24830, symBinAddr: 0x100038A50, symSize: 0x70 }
  - { offsetInCU: 0x23F55, offset: 0x393FE, size: 0x8, addend: 0x0, symName: __ZNSt3__115basic_streambufIcNS_11char_traitsIcEEE5sgetcB8ue170006Ev, symObjAddr: 0x248A0, symBinAddr: 0x100038AC0, symSize: 0x1E4 }
  - { offsetInCU: 0x23F7B, offset: 0x39424, size: 0x8, addend: 0x0, symName: __ZNKSt3__15ctypeIcE2isB8ue170006Ejc, symObjAddr: 0x24A84, symBinAddr: 0x100038CA4, symSize: 0x120 }
  - { offsetInCU: 0x23FBE, offset: 0x39467, size: 0x8, addend: 0x0, symName: __Z7isasciii, symObjAddr: 0x24BA4, symBinAddr: 0x100038DC4, symSize: 0x24 }
  - { offsetInCU: 0x23FEB, offset: 0x39494, size: 0x8, addend: 0x0, symName: __ZNSt3__16__treeINS_12basic_stringIcNS_11char_traitsIcEENS_9allocatorIcEEEENS_4lessIS6_EENS4_IS6_EEE4findIS6_EENS_15__tree_iteratorIS6_PNS_11__tree_nodeIS6_PvEElEERKT_, symObjAddr: 0x24BC8, symBinAddr: 0x100038DE8, symSize: 0x3FC }
  - { offsetInCU: 0x24040, offset: 0x394E9, size: 0x8, addend: 0x0, symName: __ZNSt3__121__tree_const_iteratorINS_12basic_stringIcNS_11char_traitsIcEENS_9allocatorIcEEEEPNS_11__tree_nodeIS6_PvEElEC1B8ue170006ENS_15__tree_iteratorIS6_SA_lEE, symObjAddr: 0x24FC4, symBinAddr: 0x1000391E4, symSize: 0x238 }
  - { offsetInCU: 0x2407E, offset: 0x39527, size: 0x8, addend: 0x0, symName: __ZNSt3__16__treeINS_12basic_stringIcNS_11char_traitsIcEENS_9allocatorIcEEEENS_4lessIS6_EENS4_IS6_EEE13__lower_boundIS6_EENS_15__tree_iteratorIS6_PNS_11__tree_nodeIS6_PvEElEERKT_SG_PNS_15__tree_end_nodeIPNS_16__tree_node_baseISE_EEEE, symObjAddr: 0x251FC, symBinAddr: 0x10003941C, symSize: 0x2E0 }
  - { offsetInCU: 0x240E0, offset: 0x39589, size: 0x8, addend: 0x0, symName: __ZNSt3__16__treeINS_12basic_stringIcNS_11char_traitsIcEENS_9allocatorIcEEEENS_4lessIS6_EENS4_IS6_EEE3endB8ue170006Ev, symObjAddr: 0x25510, symBinAddr: 0x100039730, symSize: 0x204 }
  - { offsetInCU: 0x24107, offset: 0x395B0, size: 0x8, addend: 0x0, symName: __ZNKSt3__115__tree_iteratorINS_12basic_stringIcNS_11char_traitsIcEENS_9allocatorIcEEEEPNS_11__tree_nodeIS6_PvEElEdeB8ue170006Ev, symObjAddr: 0x25714, symBinAddr: 0x100039934, symSize: 0x28 }
  - { offsetInCU: 0x2412D, offset: 0x395D6, size: 0x8, addend: 0x0, symName: __ZNSt3__115__tree_iteratorINS_12basic_stringIcNS_11char_traitsIcEENS_9allocatorIcEEEEPNS_11__tree_nodeIS6_PvEElEC1B8ue170006EPNS_15__tree_end_nodeIPNS_16__tree_node_baseIS8_EEEE, symObjAddr: 0x2573C, symBinAddr: 0x10003995C, symSize: 0x34 }
  - { offsetInCU: 0x24166, offset: 0x3960F, size: 0x8, addend: 0x0, symName: __ZNSt3__115__tree_iteratorINS_12basic_stringIcNS_11char_traitsIcEENS_9allocatorIcEEEEPNS_11__tree_nodeIS6_PvEElEC2B8ue170006EPNS_15__tree_end_nodeIPNS_16__tree_node_baseIS8_EEEE, symObjAddr: 0x25770, symBinAddr: 0x100039990, symSize: 0x70 }
  - { offsetInCU: 0x2419F, offset: 0x39648, size: 0x8, addend: 0x0, symName: __ZNKSt3__115__tree_iteratorINS_12basic_stringIcNS_11char_traitsIcEENS_9allocatorIcEEEEPNS_11__tree_nodeIS6_PvEElE8__get_npB8ue170006Ev, symObjAddr: 0x25898, symBinAddr: 0x100039AB8, symSize: 0x60 }
  - { offsetInCU: 0x241C5, offset: 0x3966E, size: 0x8, addend: 0x0, symName: __ZNSt3__121__tree_const_iteratorINS_12basic_stringIcNS_11char_traitsIcEENS_9allocatorIcEEEEPNS_11__tree_nodeIS6_PvEElEC2B8ue170006ENS_15__tree_iteratorIS6_SA_lEE, symObjAddr: 0x258F8, symBinAddr: 0x100039B18, symSize: 0x270 }
  - { offsetInCU: 0x24203, offset: 0x396AC, size: 0x8, addend: 0x0, symName: __ZNSt3__16__treeINS_12basic_stringIcNS_11char_traitsIcEENS_9allocatorIcEEEENS_4lessIS6_EENS4_IS6_EEE15__insert_uniqueB8ue170006ERKS6_, symObjAddr: 0x25B68, symBinAddr: 0x100039D88, symSize: 0x238 }
  - { offsetInCU: 0x2423A, offset: 0x396E3, size: 0x8, addend: 0x0, symName: __ZNSt3__14pairINS_21__tree_const_iteratorINS_12basic_stringIcNS_11char_traitsIcEENS_9allocatorIcEEEEPNS_11__tree_nodeIS7_PvEElEEbEC1B8ue170006INS_15__tree_iteratorIS7_SB_lEEbLS9_0EEEONS0_IT_T0_EE, symObjAddr: 0x25DA0, symBinAddr: 0x100039FC0, symSize: 0x34 }
  - { offsetInCU: 0x2428B, offset: 0x39734, size: 0x8, addend: 0x0, symName: __ZNSt3__16__treeINS_12basic_stringIcNS_11char_traitsIcEENS_9allocatorIcEEEENS_4lessIS6_EENS4_IS6_EEE25__emplace_unique_key_argsIS6_JRKS6_EEENS_4pairINS_15__tree_iteratorIS6_PNS_11__tree_nodeIS6_PvEElEEbEERKT_DpOT0_, symObjAddr: 0x25DD4, symBinAddr: 0x100039FF4, symSize: 0x510 }
  - { offsetInCU: 0x24347, offset: 0x397F0, size: 0x8, addend: 0x0, symName: __ZNSt3__16__treeINS_12basic_stringIcNS_11char_traitsIcEENS_9allocatorIcEEEENS_4lessIS6_EENS4_IS6_EEE12__find_equalIS6_EERPNS_16__tree_node_baseIPvEERPNS_15__tree_end_nodeISF_EERKT_, symObjAddr: 0x262E4, symBinAddr: 0x10003A504, symSize: 0x3F0 }
  - { offsetInCU: 0x243B9, offset: 0x39862, size: 0x8, addend: 0x0, symName: __ZNSt3__14pairINS_15__tree_iteratorINS_12basic_stringIcNS_11char_traitsIcEENS_9allocatorIcEEEEPNS_11__tree_nodeIS7_PvEElEEbEC1B8ue170006ISC_RbLS9_0EEEOT_OT0_, symObjAddr: 0x266D4, symBinAddr: 0x10003A8F4, symSize: 0x3C }
  - { offsetInCU: 0x24417, offset: 0x398C0, size: 0x8, addend: 0x0, symName: __ZNKSt3__16__treeINS_12basic_stringIcNS_11char_traitsIcEENS_9allocatorIcEEEENS_4lessIS6_EENS4_IS6_EEE10__root_ptrB8ue170006Ev, symObjAddr: 0x26710, symBinAddr: 0x10003A930, symSize: 0x24 }
  - { offsetInCU: 0x2443D, offset: 0x398E6, size: 0x8, addend: 0x0, symName: __ZNSt3__14pairINS_15__tree_iteratorINS_12basic_stringIcNS_11char_traitsIcEENS_9allocatorIcEEEEPNS_11__tree_nodeIS7_PvEElEEbEC2B8ue170006ISC_RbLS9_0EEEOT_OT0_, symObjAddr: 0x26734, symBinAddr: 0x10003A954, symSize: 0x120 }
  - { offsetInCU: 0x2449B, offset: 0x39944, size: 0x8, addend: 0x0, symName: __ZNSt3__14pairINS_21__tree_const_iteratorINS_12basic_stringIcNS_11char_traitsIcEENS_9allocatorIcEEEEPNS_11__tree_nodeIS7_PvEElEEbEC2B8ue170006INS_15__tree_iteratorIS7_SB_lEEbLS9_0EEEONS0_IT_T0_EE, symObjAddr: 0x26854, symBinAddr: 0x10003AA74, symSize: 0x2E8 }
  - { offsetInCU: 0x244EE, offset: 0x39997, size: 0x8, addend: 0x0, symName: __ZNSt3__113basic_filebufIcNS_11char_traitsIcEEE4openERKNS_12basic_stringIcS2_NS_9allocatorIcEEEEj, symObjAddr: 0x26B3C, symBinAddr: 0x10003AD5C, symSize: 0x44 }
  - { offsetInCU: 0x24532, offset: 0x399DB, size: 0x8, addend: 0x0, symName: __ZNKSt3__112basic_stringIcNS_11char_traitsIcEENS_9allocatorIcEEE5c_strB8ue170006Ev, symObjAddr: 0x26B80, symBinAddr: 0x10003ADA0, symSize: 0x24 }
  - { offsetInCU: 0x24558, offset: 0x39A01, size: 0x8, addend: 0x0, symName: __ZNKSt3__113basic_filebufIcNS_11char_traitsIcEEE7is_openEv, symObjAddr: 0x26BA4, symBinAddr: 0x10003ADC4, symSize: 0x70 }
  - { offsetInCU: 0x24580, offset: 0x39A29, size: 0x8, addend: 0x0, symName: __ZNKSt3__18ios_base3eofB8ue170006Ev, symObjAddr: 0x26C14, symBinAddr: 0x10003AE34, symSize: 0x98 }
  - { offsetInCU: 0x3B, offset: 0x39CD8, size: 0x8, addend: 0x0, symName: _.str, symObjAddr: 0xA280, symBinAddr: 0x100195300, symSize: 0x0 }
  - { offsetInCU: 0x6B, offset: 0x39D08, size: 0x8, addend: 0x0, symName: _.str.1, symObjAddr: 0xA2E0, symBinAddr: 0x100195360, symSize: 0x0 }
  - { offsetInCU: 0x88, offset: 0x39D25, size: 0x8, addend: 0x0, symName: _.str.2, symObjAddr: 0xA5E0, symBinAddr: 0x1001A3740, symSize: 0x0 }
  - { offsetInCU: 0xA5, offset: 0x39D42, size: 0x8, addend: 0x0, symName: _.str.3, symObjAddr: 0xA340, symBinAddr: 0x1001953C0, symSize: 0x0 }
  - { offsetInCU: 0xC2, offset: 0x39D5F, size: 0x8, addend: 0x0, symName: _.str.4, symObjAddr: 0xA360, symBinAddr: 0x1001953E0, symSize: 0x0 }
  - { offsetInCU: 0xDF, offset: 0x39D7C, size: 0x8, addend: 0x0, symName: _.str.5, symObjAddr: 0xA3A0, symBinAddr: 0x100195420, symSize: 0x0 }
  - { offsetInCU: 0xFC, offset: 0x39D99, size: 0x8, addend: 0x0, symName: _.str.6, symObjAddr: 0xA400, symBinAddr: 0x100195480, symSize: 0x0 }
  - { offsetInCU: 0x119, offset: 0x39DB6, size: 0x8, addend: 0x0, symName: _.str.7, symObjAddr: 0xA440, symBinAddr: 0x1001954C0, symSize: 0x0 }
  - { offsetInCU: 0x136, offset: 0x39DD3, size: 0x8, addend: 0x0, symName: _.str.8, symObjAddr: 0xA480, symBinAddr: 0x100195500, symSize: 0x0 }
  - { offsetInCU: 0x153, offset: 0x39DF0, size: 0x8, addend: 0x0, symName: _.str.9, symObjAddr: 0xA4A0, symBinAddr: 0x100195520, symSize: 0x0 }
  - { offsetInCU: 0x170, offset: 0x39E0D, size: 0x8, addend: 0x0, symName: _.str.10, symObjAddr: 0xA500, symBinAddr: 0x100195580, symSize: 0x0 }
  - { offsetInCU: 0x18D, offset: 0x39E2A, size: 0x8, addend: 0x0, symName: _.str.11, symObjAddr: 0xA520, symBinAddr: 0x1001955A0, symSize: 0x0 }
  - { offsetInCU: 0x19E, offset: 0x39E3B, size: 0x8, addend: 0x0, symName: _.str.12, symObjAddr: 0xA540, symBinAddr: 0x1001955C0, symSize: 0x0 }
  - { offsetInCU: 0x1BB, offset: 0x39E58, size: 0x8, addend: 0x0, symName: _.str.13, symObjAddr: 0xA580, symBinAddr: 0x100195600, symSize: 0x0 }
  - { offsetInCU: 0x1131C, offset: 0x4AFB9, size: 0x8, addend: 0x0, symName: __ZNSt3__110destroy_atB8ue170006INS_4pairIKNS_12basic_stringIcNS_11char_traitsIcEENS_9allocatorIcEEEENS_6vectorIS7_NS5_IS7_EEEEEELi0EEEvPT_, symObjAddr: 0x59CC, symBinAddr: 0x10003D8DC, symSize: 0x24 }
  - { offsetInCU: 0x11353, offset: 0x4AFF0, size: 0x8, addend: 0x0, symName: __ZNSt3__112__destroy_atB8ue170006INS_4pairIKNS_12basic_stringIcNS_11char_traitsIcEENS_9allocatorIcEEEENS_6vectorIS7_NS5_IS7_EEEEEELi0EEEvPT_, symObjAddr: 0x59F0, symBinAddr: 0x10003D900, symSize: 0x24 }
  - { offsetInCU: 0x1138A, offset: 0x4B027, size: 0x8, addend: 0x0, symName: __ZNSt3__17launderB8ue170006INS_4pairIKNS_12basic_stringIcNS_11char_traitsIcEENS_9allocatorIcEEEENS_6vectorIS7_NS5_IS7_EEEEEEEEPT_SE_, symObjAddr: 0x5A9C, symBinAddr: 0x10003D9AC, symSize: 0x24 }
  - { offsetInCU: 0x113C1, offset: 0x4B05E, size: 0x8, addend: 0x0, symName: __ZNSt3__19__launderB8ue170006INS_4pairIKNS_12basic_stringIcNS_11char_traitsIcEENS_9allocatorIcEEEENS_6vectorIS7_NS5_IS7_EEEEEEEEPT_SE_, symObjAddr: 0x5AC0, symBinAddr: 0x10003D9D0, symSize: 0x14 }
  - { offsetInCU: 0x15617, offset: 0x4F2B4, size: 0x8, addend: 0x0, symName: __ZN33CommandProcessorInteractiveDriver22testInteractiveConsoleEv, symObjAddr: 0x0, symBinAddr: 0x10003AF64, symSize: 0xBEC }
  - { offsetInCU: 0x156CE, offset: 0x4F36B, size: 0x8, addend: 0x0, symName: __ZN10GameEngineC1Ev, symObjAddr: 0xD34, symBinAddr: 0x10003BB50, symSize: 0x2C }
  - { offsetInCU: 0x15727, offset: 0x4F3C4, size: 0x8, addend: 0x0, symName: __ZNSt3__119basic_istringstreamIcNS_11char_traitsIcEENS_9allocatorIcEEEC1B8ue170006EONS_12basic_stringIcS2_S4_EEj, symObjAddr: 0xDC0, symBinAddr: 0x10003BB7C, symSize: 0x1D0 }
  - { offsetInCU: 0x15774, offset: 0x4F411, size: 0x8, addend: 0x0, symName: __ZN10GameEngineD1Ev, symObjAddr: 0x1944, symBinAddr: 0x10003BD4C, symSize: 0x2C }
  - { offsetInCU: 0x157A0, offset: 0x4F43D, size: 0x8, addend: 0x0, symName: __ZN33CommandProcessorInteractiveDriver13testFileInputERKNSt3__112basic_stringIcNS0_11char_traitsIcEENS0_9allocatorIcEEEE, symObjAddr: 0x1970, symBinAddr: 0x10003BD78, symSize: 0xA5C }
  - { offsetInCU: 0x15865, offset: 0x4F502, size: 0x8, addend: 0x0, symName: __Z20testCommandProcessorv, symObjAddr: 0x23CC, symBinAddr: 0x10003C7D4, symSize: 0x49C }
  - { offsetInCU: 0x158AA, offset: 0x4F547, size: 0x8, addend: 0x0, symName: __ZN10GameEngineC2Ev, symObjAddr: 0x2940, symBinAddr: 0x10003CC70, symSize: 0x120 }
  - { offsetInCU: 0x158D6, offset: 0x4F573, size: 0x8, addend: 0x0, symName: __ZNSt3__13mapINS_12basic_stringIcNS_11char_traitsIcEENS_9allocatorIcEEEENS_6vectorIS6_NS4_IS6_EEEENS_4lessIS6_EENS4_INS_4pairIKS6_S9_EEEEEC1B8ue170006Ev, symObjAddr: 0x2A8C, symBinAddr: 0x10003CD90, symSize: 0x2C }
  - { offsetInCU: 0x15900, offset: 0x4F59D, size: 0x8, addend: 0x0, symName: __ZNSt3__13mapINS_12basic_stringIcNS_11char_traitsIcEENS_9allocatorIcEEEENS_6vectorIS6_NS4_IS6_EEEENS_4lessIS6_EENS4_INS_4pairIKS6_S9_EEEEEC2B8ue170006Ev, symObjAddr: 0x2EF8, symBinAddr: 0x10003CDBC, symSize: 0x1E8 }
  - { offsetInCU: 0x1592B, offset: 0x4F5C8, size: 0x8, addend: 0x0, symName: __ZNSt3__119__map_value_compareINS_12basic_stringIcNS_11char_traitsIcEENS_9allocatorIcEEEENS_12__value_typeIS6_NS_6vectorIS6_NS4_IS6_EEEEEENS_4lessIS6_EELb1EEC1B8ue170006ESD_, symObjAddr: 0x30E0, symBinAddr: 0x10003CFA4, symSize: 0x2C }
  - { offsetInCU: 0x15964, offset: 0x4F601, size: 0x8, addend: 0x0, symName: __ZNSt3__16__treeINS_12__value_typeINS_12basic_stringIcNS_11char_traitsIcEENS_9allocatorIcEEEENS_6vectorIS7_NS5_IS7_EEEEEENS_19__map_value_compareIS7_SB_NS_4lessIS7_EELb1EEENS5_ISB_EEEC1ERKSF_, symObjAddr: 0x310C, symBinAddr: 0x10003CFD0, symSize: 0x34 }
  - { offsetInCU: 0x1599F, offset: 0x4F63C, size: 0x8, addend: 0x0, symName: __ZNSt3__119__map_value_compareINS_12basic_stringIcNS_11char_traitsIcEENS_9allocatorIcEEEENS_12__value_typeIS6_NS_6vectorIS6_NS4_IS6_EEEEEENS_4lessIS6_EELb1EEC2B8ue170006ESD_, symObjAddr: 0x3140, symBinAddr: 0x10003D004, symSize: 0x14 }
  - { offsetInCU: 0x159D8, offset: 0x4F675, size: 0x8, addend: 0x0, symName: __ZNSt3__16__treeINS_12__value_typeINS_12basic_stringIcNS_11char_traitsIcEENS_9allocatorIcEEEENS_6vectorIS7_NS5_IS7_EEEEEENS_19__map_value_compareIS7_SB_NS_4lessIS7_EELb1EEENS5_ISB_EEEC2ERKSF_, symObjAddr: 0x3154, symBinAddr: 0x10003D018, symSize: 0x2CC }
  - { offsetInCU: 0x15A15, offset: 0x4F6B2, size: 0x8, addend: 0x0, symName: __ZNSt3__117__compressed_pairINS_15__tree_end_nodeIPNS_16__tree_node_baseIPvEEEENS_9allocatorINS_11__tree_nodeINS_12__value_typeINS_12basic_stringIcNS_11char_traitsIcEENS7_IcEEEENS_6vectorISE_NS7_ISE_EEEEEES3_EEEEEC1B8ue170006ILb1EvEEv, symObjAddr: 0x3420, symBinAddr: 0x10003D2E4, symSize: 0x2C }
  - { offsetInCU: 0x15A4F, offset: 0x4F6EC, size: 0x8, addend: 0x0, symName: __ZNSt3__117__compressed_pairImNS_19__map_value_compareINS_12basic_stringIcNS_11char_traitsIcEENS_9allocatorIcEEEENS_12__value_typeIS7_NS_6vectorIS7_NS5_IS7_EEEEEENS_4lessIS7_EELb1EEEEC1B8ue170006IiRKSF_EEOT_OT0_, symObjAddr: 0x344C, symBinAddr: 0x10003D310, symSize: 0x3C }
  - { offsetInCU: 0x15AA7, offset: 0x4F744, size: 0x8, addend: 0x0, symName: __ZNSt3__16__treeINS_12__value_typeINS_12basic_stringIcNS_11char_traitsIcEENS_9allocatorIcEEEENS_6vectorIS7_NS5_IS7_EEEEEENS_19__map_value_compareIS7_SB_NS_4lessIS7_EELb1EEENS5_ISB_EEE10__end_nodeB8ue170006Ev, symObjAddr: 0x3488, symBinAddr: 0x10003D34C, symSize: 0x2C }
  - { offsetInCU: 0x15ACD, offset: 0x4F76A, size: 0x8, addend: 0x0, symName: __ZNSt3__16__treeINS_12__value_typeINS_12basic_stringIcNS_11char_traitsIcEENS_9allocatorIcEEEENS_6vectorIS7_NS5_IS7_EEEEEENS_19__map_value_compareIS7_SB_NS_4lessIS7_EELb1EEENS5_ISB_EEE12__begin_nodeB8ue170006Ev, symObjAddr: 0x34B4, symBinAddr: 0x10003D378, symSize: 0x14 }
  - { offsetInCU: 0x15AF3, offset: 0x4F790, size: 0x8, addend: 0x0, symName: __ZNSt3__117__compressed_pairINS_15__tree_end_nodeIPNS_16__tree_node_baseIPvEEEENS_9allocatorINS_11__tree_nodeINS_12__value_typeINS_12basic_stringIcNS_11char_traitsIcEENS7_IcEEEENS_6vectorISE_NS7_ISE_EEEEEES3_EEEEEC2B8ue170006ILb1EvEEv, symObjAddr: 0x34C8, symBinAddr: 0x10003D38C, symSize: 0x34 }
  - { offsetInCU: 0x15B28, offset: 0x4F7C5, size: 0x8, addend: 0x0, symName: __ZNSt3__122__compressed_pair_elemINS_9allocatorINS_11__tree_nodeINS_12__value_typeINS_12basic_stringIcNS_11char_traitsIcEENS1_IcEEEENS_6vectorIS8_NS1_IS8_EEEEEEPvEEEELi1ELb1EEC2B8ue170006ENS_16__value_init_tagE, symObjAddr: 0x3528, symBinAddr: 0x10003D3C0, symSize: 0x2C }
  - { offsetInCU: 0x15B5D, offset: 0x4F7FA, size: 0x8, addend: 0x0, symName: __ZNSt3__19allocatorINS_11__tree_nodeINS_12__value_typeINS_12basic_stringIcNS_11char_traitsIcEENS0_IcEEEENS_6vectorIS7_NS0_IS7_EEEEEEPvEEEC2B8ue170006Ev, symObjAddr: 0x35E0, symBinAddr: 0x10003D3EC, symSize: 0x2C }
  - { offsetInCU: 0x15B87, offset: 0x4F824, size: 0x8, addend: 0x0, symName: __ZNSt3__116__non_trivial_ifILb1ENS_9allocatorINS_11__tree_nodeINS_12__value_typeINS_12basic_stringIcNS_11char_traitsIcEENS1_IcEEEENS_6vectorIS8_NS1_IS8_EEEEEEPvEEEEEC2B8ue170006Ev, symObjAddr: 0x360C, symBinAddr: 0x10003D418, symSize: 0x14 }
  - { offsetInCU: 0x15BB1, offset: 0x4F84E, size: 0x8, addend: 0x0, symName: __ZNSt3__117__compressed_pairImNS_19__map_value_compareINS_12basic_stringIcNS_11char_traitsIcEENS_9allocatorIcEEEENS_12__value_typeIS7_NS_6vectorIS7_NS5_IS7_EEEEEENS_4lessIS7_EELb1EEEEC2B8ue170006IiRKSF_EEOT_OT0_, symObjAddr: 0x3620, symBinAddr: 0x10003D42C, symSize: 0x44 }
  - { offsetInCU: 0x15C09, offset: 0x4F8A6, size: 0x8, addend: 0x0, symName: __ZNSt3__122__compressed_pair_elemINS_19__map_value_compareINS_12basic_stringIcNS_11char_traitsIcEENS_9allocatorIcEEEENS_12__value_typeIS7_NS_6vectorIS7_NS5_IS7_EEEEEENS_4lessIS7_EELb1EEELi1ELb1EEC2B8ue170006IRKSF_vEEOT_, symObjAddr: 0x373C, symBinAddr: 0x10003D470, symSize: 0x18 }
  - { offsetInCU: 0x15C4B, offset: 0x4F8E8, size: 0x8, addend: 0x0, symName: __ZNSt3__117__compressed_pairINS_15__tree_end_nodeIPNS_16__tree_node_baseIPvEEEENS_9allocatorINS_11__tree_nodeINS_12__value_typeINS_12basic_stringIcNS_11char_traitsIcEENS7_IcEEEENS_6vectorISE_NS7_ISE_EEEEEES3_EEEEE5firstB8ue170006Ev, symObjAddr: 0x3768, symBinAddr: 0x10003D488, symSize: 0x24 }
  - { offsetInCU: 0x15C76, offset: 0x4F913, size: 0x8, addend: 0x0, symName: __ZN10GameEngineD2Ev, symObjAddr: 0x5570, symBinAddr: 0x10003D4AC, symSize: 0xF4 }
  - { offsetInCU: 0x15CA2, offset: 0x4F93F, size: 0x8, addend: 0x0, symName: __ZNSt3__13mapINS_12basic_stringIcNS_11char_traitsIcEENS_9allocatorIcEEEENS_6vectorIS6_NS4_IS6_EEEENS_4lessIS6_EENS4_INS_4pairIKS6_S9_EEEEED1B8ue170006Ev, symObjAddr: 0x5664, symBinAddr: 0x10003D5A0, symSize: 0x2C }
  - { offsetInCU: 0x15CCC, offset: 0x4F969, size: 0x8, addend: 0x0, symName: __ZNSt3__13mapINS_12basic_stringIcNS_11char_traitsIcEENS_9allocatorIcEEEENS_6vectorIS6_NS4_IS6_EEEENS_4lessIS6_EENS4_INS_4pairIKS6_S9_EEEEED2B8ue170006Ev, symObjAddr: 0x56BC, symBinAddr: 0x10003D5CC, symSize: 0x2C }
  - { offsetInCU: 0x15CF6, offset: 0x4F993, size: 0x8, addend: 0x0, symName: __ZNSt3__16__treeINS_12__value_typeINS_12basic_stringIcNS_11char_traitsIcEENS_9allocatorIcEEEENS_6vectorIS7_NS5_IS7_EEEEEENS_19__map_value_compareIS7_SB_NS_4lessIS7_EELb1EEENS5_ISB_EEED1Ev, symObjAddr: 0x56E8, symBinAddr: 0x10003D5F8, symSize: 0x2C }
  - { offsetInCU: 0x15D22, offset: 0x4F9BF, size: 0x8, addend: 0x0, symName: __ZNSt3__16__treeINS_12__value_typeINS_12basic_stringIcNS_11char_traitsIcEENS_9allocatorIcEEEENS_6vectorIS7_NS5_IS7_EEEEEENS_19__map_value_compareIS7_SB_NS_4lessIS7_EELb1EEENS5_ISB_EEED2Ev, symObjAddr: 0x5714, symBinAddr: 0x10003D624, symSize: 0x38 }
  - { offsetInCU: 0x15D4E, offset: 0x4F9EB, size: 0x8, addend: 0x0, symName: __ZNSt3__16__treeINS_12__value_typeINS_12basic_stringIcNS_11char_traitsIcEENS_9allocatorIcEEEENS_6vectorIS7_NS5_IS7_EEEEEENS_19__map_value_compareIS7_SB_NS_4lessIS7_EELb1EEENS5_ISB_EEE7destroyEPNS_11__tree_nodeISB_PvEE, symObjAddr: 0x574C, symBinAddr: 0x10003D65C, symSize: 0x134 }
  - { offsetInCU: 0x15D9A, offset: 0x4FA37, size: 0x8, addend: 0x0, symName: __ZNKSt3__16__treeINS_12__value_typeINS_12basic_stringIcNS_11char_traitsIcEENS_9allocatorIcEEEENS_6vectorIS7_NS5_IS7_EEEEEENS_19__map_value_compareIS7_SB_NS_4lessIS7_EELb1EEENS5_ISB_EEE6__rootB8ue170006Ev, symObjAddr: 0x5880, symBinAddr: 0x10003D790, symSize: 0x6C }
  - { offsetInCU: 0x15DC0, offset: 0x4FA5D, size: 0x8, addend: 0x0, symName: __ZNSt3__16__treeINS_12__value_typeINS_12basic_stringIcNS_11char_traitsIcEENS_9allocatorIcEEEENS_6vectorIS7_NS5_IS7_EEEEEENS_19__map_value_compareIS7_SB_NS_4lessIS7_EELb1EEENS5_ISB_EEE12__node_allocB8ue170006Ev, symObjAddr: 0x58EC, symBinAddr: 0x10003D7FC, symSize: 0x28 }
  - { offsetInCU: 0x15DEB, offset: 0x4FA88, size: 0x8, addend: 0x0, symName: __ZNSt3__116allocator_traitsINS_9allocatorINS_11__tree_nodeINS_12__value_typeINS_12basic_stringIcNS_11char_traitsIcEENS1_IcEEEENS_6vectorIS8_NS1_IS8_EEEEEEPvEEEEE7destroyB8ue170006INS_4pairIKS8_SB_EEvvEEvRSF_PT_, symObjAddr: 0x5914, symBinAddr: 0x10003D824, symSize: 0x28 }
  - { offsetInCU: 0x15E25, offset: 0x4FAC2, size: 0x8, addend: 0x0, symName: __ZNSt3__122__tree_key_value_typesINS_12__value_typeINS_12basic_stringIcNS_11char_traitsIcEENS_9allocatorIcEEEENS_6vectorIS7_NS5_IS7_EEEEEEE9__get_ptrB8ue170006ERSB_, symObjAddr: 0x593C, symBinAddr: 0x10003D84C, symSize: 0x24 }
  - { offsetInCU: 0x15E49, offset: 0x4FAE6, size: 0x8, addend: 0x0, symName: __ZNSt3__116allocator_traitsINS_9allocatorINS_11__tree_nodeINS_12__value_typeINS_12basic_stringIcNS_11char_traitsIcEENS1_IcEEEENS_6vectorIS8_NS1_IS8_EEEEEEPvEEEEE10deallocateB8ue170006ERSF_PSE_m, symObjAddr: 0x5960, symBinAddr: 0x10003D870, symSize: 0x34 }
  - { offsetInCU: 0x15E8B, offset: 0x4FB28, size: 0x8, addend: 0x0, symName: __ZNSt3__117__compressed_pairINS_15__tree_end_nodeIPNS_16__tree_node_baseIPvEEEENS_9allocatorINS_11__tree_nodeINS_12__value_typeINS_12basic_stringIcNS_11char_traitsIcEENS7_IcEEEENS_6vectorISE_NS7_ISE_EEEEEES3_EEEEE6secondB8ue170006Ev, symObjAddr: 0x5994, symBinAddr: 0x10003D8A4, symSize: 0x24 }
  - { offsetInCU: 0x15EB1, offset: 0x4FB4E, size: 0x8, addend: 0x0, symName: __ZNSt3__122__compressed_pair_elemINS_9allocatorINS_11__tree_nodeINS_12__value_typeINS_12basic_stringIcNS_11char_traitsIcEENS1_IcEEEENS_6vectorIS8_NS1_IS8_EEEEEEPvEEEELi1ELb1EE5__getB8ue170006Ev, symObjAddr: 0x59B8, symBinAddr: 0x10003D8C8, symSize: 0x14 }
  - { offsetInCU: 0x15ED7, offset: 0x4FB74, size: 0x8, addend: 0x0, symName: __ZNSt3__14pairIKNS_12basic_stringIcNS_11char_traitsIcEENS_9allocatorIcEEEENS_6vectorIS6_NS4_IS6_EEEEED1Ev, symObjAddr: 0x5A14, symBinAddr: 0x10003D924, symSize: 0x2C }
  - { offsetInCU: 0x15F03, offset: 0x4FBA0, size: 0x8, addend: 0x0, symName: __ZNSt3__14pairIKNS_12basic_stringIcNS_11char_traitsIcEENS_9allocatorIcEEEENS_6vectorIS6_NS4_IS6_EEEEED2Ev, symObjAddr: 0x5A40, symBinAddr: 0x10003D950, symSize: 0x38 }
  - { offsetInCU: 0x15F2F, offset: 0x4FBCC, size: 0x8, addend: 0x0, symName: __ZNSt3__112__value_typeINS_12basic_stringIcNS_11char_traitsIcEENS_9allocatorIcEEEENS_6vectorIS6_NS4_IS6_EEEEE11__get_valueB8ue170006Ev, symObjAddr: 0x5A78, symBinAddr: 0x10003D988, symSize: 0x24 }
  - { offsetInCU: 0x15F55, offset: 0x4FBF2, size: 0x8, addend: 0x0, symName: __ZNSt3__19allocatorINS_11__tree_nodeINS_12__value_typeINS_12basic_stringIcNS_11char_traitsIcEENS0_IcEEEENS_6vectorIS7_NS0_IS7_EEEEEEPvEEE10deallocateB8ue170006EPSD_m, symObjAddr: 0x5AD4, symBinAddr: 0x10003D9E4, symSize: 0x50 }
  - { offsetInCU: 0x15F97, offset: 0x4FC34, size: 0x8, addend: 0x0, symName: __ZNKSt3__16__treeINS_12__value_typeINS_12basic_stringIcNS_11char_traitsIcEENS_9allocatorIcEEEENS_6vectorIS7_NS5_IS7_EEEEEENS_19__map_value_compareIS7_SB_NS_4lessIS7_EELb1EEENS5_ISB_EEE10__end_nodeB8ue170006Ev, symObjAddr: 0x5C4C, symBinAddr: 0x10003DA34, symSize: 0x2C }
  - { offsetInCU: 0x15FBD, offset: 0x4FC5A, size: 0x8, addend: 0x0, symName: __ZNKSt3__117__compressed_pairINS_15__tree_end_nodeIPNS_16__tree_node_baseIPvEEEENS_9allocatorINS_11__tree_nodeINS_12__value_typeINS_12basic_stringIcNS_11char_traitsIcEENS7_IcEEEENS_6vectorISE_NS7_ISE_EEEEEES3_EEEEE5firstB8ue170006Ev, symObjAddr: 0x5C78, symBinAddr: 0x10003DA60, symSize: 0x24 }
  - { offsetInCU: 0x16001, offset: 0x4FC9E, size: 0x8, addend: 0x0, symName: __ZNSt3__115basic_stringbufIcNS_11char_traitsIcEENS_9allocatorIcEEEC1B8ue170006EONS_12basic_stringIcS2_S4_EEj, symObjAddr: 0x87B8, symBinAddr: 0x10003DA84, symSize: 0x3C }
  - { offsetInCU: 0x16049, offset: 0x4FCE6, size: 0x8, addend: 0x0, symName: __ZNSt3__115basic_stringbufIcNS_11char_traitsIcEENS_9allocatorIcEEEC2B8ue170006EONS_12basic_stringIcS2_S4_EEj, symObjAddr: 0x8954, symBinAddr: 0x10003DAC0, symSize: 0x17C }
  - { offsetInCU: 0x16091, offset: 0x4FD2E, size: 0x8, addend: 0x0, symName: __ZNSt3__115basic_stringbufIcNS_11char_traitsIcEENS_9allocatorIcEEE15__init_buf_ptrsB8ue170006Ev, symObjAddr: 0x8B04, symBinAddr: 0x10003DC3C, symSize: 0x394 }
  - { offsetInCU: 0x160D7, offset: 0x4FD74, size: 0x8, addend: 0x0, symName: __ZNSt3__115basic_streambufIcNS_11char_traitsIcEEE4setgB8ue170006EPcS4_S4_, symObjAddr: 0x8ED8, symBinAddr: 0x10003DFD0, symSize: 0x108 }
  - { offsetInCU: 0x16127, offset: 0x4FDC4, size: 0x8, addend: 0x0, symName: __ZNSt3__112basic_stringIcNS_11char_traitsIcEENS_9allocatorIcEEE6resizeB8ue170006Em, symObjAddr: 0x8FE0, symBinAddr: 0x10003E0D8, symSize: 0x30 }
  - { offsetInCU: 0x1615C, offset: 0x4FDF9, size: 0x8, addend: 0x0, symName: __ZNKSt3__112basic_stringIcNS_11char_traitsIcEENS_9allocatorIcEEE8capacityB8ue170006Ev, symObjAddr: 0x9010, symBinAddr: 0x10003E108, symSize: 0x54 }
  - { offsetInCU: 0x16182, offset: 0x4FE1F, size: 0x8, addend: 0x0, symName: __ZNSt3__115basic_streambufIcNS_11char_traitsIcEEE4setpB8ue170006EPcS4_, symObjAddr: 0x9064, symBinAddr: 0x10003E15C, symSize: 0xFC }
  - { offsetInCU: 0x161C6, offset: 0x4FE63, size: 0x8, addend: 0x0, symName: __ZNSt3__115basic_streambufIcNS_11char_traitsIcEEE5pbumpB8ue170006Ei, symObjAddr: 0x9160, symBinAddr: 0x10003E258, symSize: 0x7C }
  - { offsetInCU: 0x161FB, offset: 0x4FE98, size: 0x8, addend: 0x0, symName: __ZNKSt3__112basic_stringIcNS_11char_traitsIcEENS_9allocatorIcEEE14__get_long_capB8ue170006Ev, symObjAddr: 0x91DC, symBinAddr: 0x10003E2D4, symSize: 0x78 }
  - { offsetInCU: 0x3B, offset: 0x501A3, size: 0x8, addend: 0x0, symName: _.str, symObjAddr: 0x49A0, symBinAddr: 0x100195660, symSize: 0x0 }
  - { offsetInCU: 0x6B, offset: 0x501D3, size: 0x8, addend: 0x0, symName: _.str.1, symObjAddr: 0x49E0, symBinAddr: 0x1001956A0, symSize: 0x0 }
  - { offsetInCU: 0x88, offset: 0x501F0, size: 0x8, addend: 0x0, symName: _.str.2, symObjAddr: 0x4A20, symBinAddr: 0x1001956E0, symSize: 0x0 }
  - { offsetInCU: 0xA5, offset: 0x5020D, size: 0x8, addend: 0x0, symName: _.str.3, symObjAddr: 0x4A60, symBinAddr: 0x100195720, symSize: 0x0 }
  - { offsetInCU: 0xB6, offset: 0x5021E, size: 0x8, addend: 0x0, symName: _.str.4, symObjAddr: 0x4AA0, symBinAddr: 0x100195760, symSize: 0x0 }
  - { offsetInCU: 0xD3, offset: 0x5023B, size: 0x8, addend: 0x0, symName: _.str.5, symObjAddr: 0x4AE0, symBinAddr: 0x1001957A0, symSize: 0x0 }
  - { offsetInCU: 0xF0, offset: 0x50258, size: 0x8, addend: 0x0, symName: _.str.6, symObjAddr: 0x4B40, symBinAddr: 0x100195800, symSize: 0x0 }
  - { offsetInCU: 0x10D, offset: 0x50275, size: 0x8, addend: 0x0, symName: _.str.7, symObjAddr: 0x4BA0, symBinAddr: 0x100195860, symSize: 0x0 }
  - { offsetInCU: 0x11E, offset: 0x50286, size: 0x8, addend: 0x0, symName: _.str.8, symObjAddr: 0x4BE0, symBinAddr: 0x1001958A0, symSize: 0x0 }
  - { offsetInCU: 0x9E85, offset: 0x59FED, size: 0x8, addend: 0x0, symName: __Z12waitForEnterv, symObjAddr: 0x0, symBinAddr: 0x10003E3E4, symSize: 0x3C }
  - { offsetInCU: 0x9E9F, offset: 0x5A007, size: 0x8, addend: 0x0, symName: _main, symObjAddr: 0x184, symBinAddr: 0x10003E420, symSize: 0x4C8 }
  - { offsetInCU: 0x39, offset: 0x5AFF5, size: 0x8, addend: 0x0, symName: __ZN10GameEngine5stateE, symObjAddr: 0x144C80, symBinAddr: 0x1001F5500, symSize: 0x0 }
  - { offsetInCU: 0x15DFF, offset: 0x70DBB, size: 0x8, addend: 0x0, symName: __ZNSt3__119piecewise_constructE, symObjAddr: 0x536EB, symBinAddr: 0x1001A37CB, symSize: 0x0 }
  - { offsetInCU: 0x17F89, offset: 0x72F45, size: 0x8, addend: 0x0, symName: __ZNSt3__16copy_nB8ue170006IPKcmPcEENS_9enable_ifIXsr37__has_random_access_iterator_categoryIT_EE5valueET1_E4typeES5_T0_S6_, symObjAddr: 0x28BE0, symBinAddr: 0x1000622A0, symSize: 0x44 }
  - { offsetInCU: 0x18A1F, offset: 0x739DB, size: 0x8, addend: 0x0, symName: __ZNSt3__19__shuffleB8ue170006INS_17_ClassicAlgPolicyENS_11__wrap_iterIPP6PlayerEES6_RNS_26linear_congruential_engineIjLj48271ELj0ELj2147483647EEEEET0_SA_T1_OT2_, symObjAddr: 0x49A74, symBinAddr: 0x100078DD8, symSize: 0x5B4 }
  - { offsetInCU: 0x1A4CB, offset: 0x75487, size: 0x8, addend: 0x0, symName: __ZNSt3__1neB8ue170006IPP6PlayerEEbRKNS_11__wrap_iterIT_EES8_, symObjAddr: 0x1598, symBinAddr: 0x10003FF18, symSize: 0x34 }
  - { offsetInCU: 0x1A50E, offset: 0x754CA, size: 0x8, addend: 0x0, symName: __ZNSt3__1neB8ue170006IPP9ContinentEEbRKNS_11__wrap_iterIT_EES8_, symObjAddr: 0x5BDC, symBinAddr: 0x1000440A8, symSize: 0x34 }
  - { offsetInCU: 0x1A551, offset: 0x7550D, size: 0x8, addend: 0x0, symName: __ZNSt3__1neB8ue170006IPP9TerritoryEEbRKNS_11__wrap_iterIT_EES8_, symObjAddr: 0x6144, symBinAddr: 0x100044610, symSize: 0x34 }
  - { offsetInCU: 0x1A745, offset: 0x75701, size: 0x8, addend: 0x0, symName: __ZNSt3__1plB8ue170006IcNS_11char_traitsIcEENS_9allocatorIcEEEENS_12basic_stringIT_T0_T1_EEPKS6_OS9_, symObjAddr: 0xA434, symBinAddr: 0x100047A68, symSize: 0x44 }
  - { offsetInCU: 0x1A79D, offset: 0x75759, size: 0x8, addend: 0x0, symName: __ZNSt3__1neB8ue170006ERKNS_14__map_iteratorINS_15__tree_iteratorINS_12__value_typeINS_12basic_stringIcNS_11char_traitsIcEENS_9allocatorIcEEEENS_6vectorIS8_NS6_IS8_EEEEEEPNS_11__tree_nodeISC_PvEElEEEESK_, symObjAddr: 0xACB0, symBinAddr: 0x1000482E4, symSize: 0x30 }
  - { offsetInCU: 0x1A7DA, offset: 0x75796, size: 0x8, addend: 0x0, symName: __ZNSt3__13getB8ue170006ILm0EKNS_12basic_stringIcNS_11char_traitsIcEENS_9allocatorIcEEEENS_6vectorIS6_NS4_IS6_EEEEEERKNS_13tuple_elementIXT_ENS_4pairIT0_T1_EEE4typeERKSF_, symObjAddr: 0xAD08, symBinAddr: 0x10004833C, symSize: 0x24 }
  - { offsetInCU: 0x1A824, offset: 0x757E0, size: 0x8, addend: 0x0, symName: __ZNSt3__13getB8ue170006ILm1EKNS_12basic_stringIcNS_11char_traitsIcEENS_9allocatorIcEEEENS_6vectorIS6_NS4_IS6_EEEEEERKNS_13tuple_elementIXT_ENS_4pairIT0_T1_EEE4typeERKSF_, symObjAddr: 0xAD2C, symBinAddr: 0x100048360, symSize: 0x24 }
  - { offsetInCU: 0x1A86E, offset: 0x7582A, size: 0x8, addend: 0x0, symName: __ZNSt3__1neB8ue170006IPKNS_12basic_stringIcNS_11char_traitsIcEENS_9allocatorIcEEEEEEbRKNS_11__wrap_iterIT_EESD_, symObjAddr: 0xB250, symBinAddr: 0x100048884, symSize: 0x34 }
  - { offsetInCU: 0x1A8B1, offset: 0x7586D, size: 0x8, addend: 0x0, symName: __ZNSt3__1plB8ue170006IcNS_11char_traitsIcEENS_9allocatorIcEEEENS_12basic_stringIT_T0_T1_EERKS9_PKS6_, symObjAddr: 0xB2E4, symBinAddr: 0x100048918, symSize: 0x2E8 }
  - { offsetInCU: 0x1A958, offset: 0x75914, size: 0x8, addend: 0x0, symName: __ZNSt3__17shuffleB8ue170006INS_11__wrap_iterIPP6PlayerEERNS_26linear_congruential_engineIjLj48271ELj0ELj2147483647EEEEEvT_S9_OT0_, symObjAddr: 0xCC14, symBinAddr: 0x10004991C, symSize: 0x3C0 }
  - { offsetInCU: 0x1A9B7, offset: 0x75973, size: 0x8, addend: 0x0, symName: __ZNSt3__15beginB8ue170006INS_6vectorIP6PlayerNS_9allocatorIS3_EEEEEEDTcldtfp_5beginEERT_, symObjAddr: 0xCFD4, symBinAddr: 0x100049CDC, symSize: 0x234 }
  - { offsetInCU: 0x1A9ED, offset: 0x759A9, size: 0x8, addend: 0x0, symName: __ZNSt3__13endB8ue170006INS_6vectorIP6PlayerNS_9allocatorIS3_EEEEEEDTcldtfp_3endEERT_, symObjAddr: 0xD208, symBinAddr: 0x100049F10, symSize: 0x234 }
  - { offsetInCU: 0x1AA23, offset: 0x759DF, size: 0x8, addend: 0x0, symName: __ZNSt3__1neB8ue170006IPNS_12basic_stringIcNS_11char_traitsIcEENS_9allocatorIcEEEEEEbRKNS_11__wrap_iterIT_EESC_, symObjAddr: 0xDD2C, symBinAddr: 0x10004A9DC, symSize: 0x34 }
  - { offsetInCU: 0x1AA66, offset: 0x75A22, size: 0x8, addend: 0x0, symName: __ZNSt3__1neB8ue170006IPP11LogObserverEEbRKNS_11__wrap_iterIT_EES8_, symObjAddr: 0x11084, symBinAddr: 0x10004DB78, symSize: 0x34 }
  - { offsetInCU: 0x1AAA9, offset: 0x75A65, size: 0x8, addend: 0x0, symName: __ZNSt3__1neB8ue170006ERKNS_20__map_const_iteratorINS_21__tree_const_iteratorINS_12__value_typeINS_12basic_stringIcNS_11char_traitsIcEENS_9allocatorIcEEEENS_6vectorIS8_NS6_IS8_EEEEEEPNS_11__tree_nodeISC_PvEElEEEESK_, symObjAddr: 0x11770, symBinAddr: 0x10004E264, symSize: 0x30 }
  - { offsetInCU: 0x1AAE6, offset: 0x75AA2, size: 0x8, addend: 0x0, symName: __ZNSt3__1eqB8ue170006IPP6PlayerEEbRKNS_11__wrap_iterIT_EES8_, symObjAddr: 0x11ED4, symBinAddr: 0x10004E9BC, symSize: 0x48 }
  - { offsetInCU: 0x1AB29, offset: 0x75AE5, size: 0x8, addend: 0x0, symName: __ZNSt3__1miB8ue170006IPKP6PlayerS4_EEDTmicldtfp_4baseEcldtfp0_4baseEERKNS_11__wrap_iterIT_EERKNS6_IT0_EE, symObjAddr: 0x132D8, symBinAddr: 0x10004EA64, symSize: 0x48 }
  - { offsetInCU: 0x1AB75, offset: 0x75B31, size: 0x8, addend: 0x0, symName: __ZNSt3__14moveB8ue170006IPP6PlayerS3_EET0_T_S5_S4_, symObjAddr: 0x135A0, symBinAddr: 0x10004ED2C, symSize: 0x26C }
  - { offsetInCU: 0x1ABD2, offset: 0x75B8E, size: 0x8, addend: 0x0, symName: __ZNSt3__112__to_addressB8ue170006IP6PlayerEEPT_S4_, symObjAddr: 0x13FA0, symBinAddr: 0x10004F72C, symSize: 0x14 }
  - { offsetInCU: 0x1AC07, offset: 0x75BC3, size: 0x8, addend: 0x0, symName: __ZNSt3__110destroy_atB8ue170006IP6PlayerLi0EEEvPT_, symObjAddr: 0x13FB4, symBinAddr: 0x10004F740, symSize: 0x24 }
  - { offsetInCU: 0x1AC3E, offset: 0x75BFA, size: 0x8, addend: 0x0, symName: __ZNSt3__112__destroy_atB8ue170006IP6PlayerLi0EEEvPT_, symObjAddr: 0x13FD8, symBinAddr: 0x10004F764, symSize: 0x10 }
  - { offsetInCU: 0x1AC75, offset: 0x75C31, size: 0x8, addend: 0x0, symName: __ZNSt3__16__moveB8ue170006INS_17_ClassicAlgPolicyEPP6PlayerS4_S4_EENS_4pairIT0_T2_EES6_T1_S7_, symObjAddr: 0x141F8, symBinAddr: 0x10004F984, symSize: 0x22C }
  - { offsetInCU: 0x1ACE4, offset: 0x75CA0, size: 0x8, addend: 0x0, symName: __ZNSt3__123__dispatch_copy_or_moveB8ue170006INS_17_ClassicAlgPolicyENS_11__move_loopIS1_EENS_14__move_trivialEPP6PlayerS7_S7_EENS_4pairIT2_T4_EES9_T3_SA_, symObjAddr: 0x14424, symBinAddr: 0x10004FBB0, symSize: 0x22C }
  - { offsetInCU: 0x1AD65, offset: 0x75D21, size: 0x8, addend: 0x0, symName: __ZNSt3__121__unwrap_and_dispatchB8ue170006INS_10__overloadINS_11__move_loopINS_17_ClassicAlgPolicyEEENS_14__move_trivialEEEPP6PlayerS9_S9_Li0EEENS_4pairIT0_T2_EESB_T1_SC_, symObjAddr: 0x14650, symBinAddr: 0x10004FDDC, symSize: 0x5A4 }
  - { offsetInCU: 0x1ADFE, offset: 0x75DBA, size: 0x8, addend: 0x0, symName: __ZNSt3__114__unwrap_rangeB8ue170006IPP6PlayerS3_EEDaT_T0_, symObjAddr: 0x14BF4, symBinAddr: 0x100050380, symSize: 0x224 }
  - { offsetInCU: 0x1AF95, offset: 0x75F51, size: 0x8, addend: 0x0, symName: __ZNSt3__113__unwrap_iterB8ue170006IPP6PlayerNS_18__unwrap_iter_implIS3_Lb1EEELi0EEEDTclsrT0_8__unwrapclsr3stdE7declvalIT_EEEES7_, symObjAddr: 0x15048, symBinAddr: 0x1000507D4, symSize: 0x24 }
  - { offsetInCU: 0x1AFD9, offset: 0x75F95, size: 0x8, addend: 0x0, symName: __ZNSt3__19make_pairB8ue170006IPP6PlayerS3_EENS_4pairINS_18__unwrap_ref_decayIT_E4typeENS5_IT0_E4typeEEEOS6_OS9_, symObjAddr: 0x1506C, symBinAddr: 0x1000507F8, symSize: 0x20C }
  - { offsetInCU: 0x1B02A, offset: 0x75FE6, size: 0x8, addend: 0x0, symName: __ZNSt3__114__rewrap_rangeB8ue170006IPP6PlayerS3_S3_EET0_S4_T1_, symObjAddr: 0x15278, symBinAddr: 0x100050A04, symSize: 0x2C }
  - { offsetInCU: 0x1B07F, offset: 0x7603B, size: 0x8, addend: 0x0, symName: __ZNSt3__113__rewrap_iterB8ue170006IPP6PlayerS3_NS_18__unwrap_iter_implIS3_Lb1EEEEET_S6_T0_, symObjAddr: 0x152A4, symBinAddr: 0x100050A30, symSize: 0x48 }
  - { offsetInCU: 0x1B124, offset: 0x760E0, size: 0x8, addend: 0x0, symName: __ZNSt3__119__copy_trivial_implB8ue170006IP6PlayerS2_EENS_4pairIPT_PT0_EES5_S5_S7_, symObjAddr: 0x1576C, symBinAddr: 0x100050EF8, symSize: 0x3B4 }
  - { offsetInCU: 0x1B193, offset: 0x7614F, size: 0x8, addend: 0x0, symName: __ZNSt3__119__constexpr_memmoveB8ue170006IP6PlayerS2_Li0EEEPT_S4_PT0_NS_15__element_countE, symObjAddr: 0x15B20, symBinAddr: 0x1000512AC, symSize: 0x64 }
  - { offsetInCU: 0x1B201, offset: 0x761BD, size: 0x8, addend: 0x0, symName: __ZNSt3__19make_pairB8ue170006IRPP6PlayerS3_EENS_4pairINS_18__unwrap_ref_decayIT_E4typeENS6_IT0_E4typeEEEOS7_OSA_, symObjAddr: 0x15B84, symBinAddr: 0x100051310, symSize: 0x20C }
  - { offsetInCU: 0x1B2A5, offset: 0x76261, size: 0x8, addend: 0x0, symName: __ZNSt3__112__to_addressB8ue170006IP9ContinentEEPT_S4_, symObjAddr: 0x16BF0, symBinAddr: 0x100052074, symSize: 0x14 }
  - { offsetInCU: 0x1B2DA, offset: 0x76296, size: 0x8, addend: 0x0, symName: __ZNSt3__110destroy_atB8ue170006IP9ContinentLi0EEEvPT_, symObjAddr: 0x16C04, symBinAddr: 0x100052088, symSize: 0x24 }
  - { offsetInCU: 0x1B311, offset: 0x762CD, size: 0x8, addend: 0x0, symName: __ZNSt3__112__destroy_atB8ue170006IP9ContinentLi0EEEvPT_, symObjAddr: 0x16C28, symBinAddr: 0x1000520AC, symSize: 0x10 }
  - { offsetInCU: 0x1B348, offset: 0x76304, size: 0x8, addend: 0x0, symName: __ZNSt3__1eqB8ue170006IPP9ContinentEEbRKNS_11__wrap_iterIT_EES8_, symObjAddr: 0x17684, symBinAddr: 0x1000529E0, symSize: 0x48 }
  - { offsetInCU: 0x1B38B, offset: 0x76347, size: 0x8, addend: 0x0, symName: __ZNSt3__1eqB8ue170006IPP9TerritoryEEbRKNS_11__wrap_iterIT_EES8_, symObjAddr: 0x179CC, symBinAddr: 0x100052D28, symSize: 0x48 }
  - { offsetInCU: 0x1B3CE, offset: 0x7638A, size: 0x8, addend: 0x0, symName: __ZNSt3__112__to_addressB8ue170006IP9TerritoryEEPT_S4_, symObjAddr: 0x18294, symBinAddr: 0x1000535F0, symSize: 0x14 }
  - { offsetInCU: 0x1B428, offset: 0x763E4, size: 0x8, addend: 0x0, symName: __ZNSt3__112construct_atB8ue170006IP9TerritoryJRKS2_EPS2_EEPT_S7_DpOT0_, symObjAddr: 0x18754, symBinAddr: 0x100053AB0, symSize: 0xB8 }
  - { offsetInCU: 0x1B498, offset: 0x76454, size: 0x8, addend: 0x0, symName: __ZNSt3__119__allocate_at_leastB8ue170006INS_9allocatorIP9TerritoryEEEENS_19__allocation_resultINS_16allocator_traitsIT_E7pointerEEERS7_m, symObjAddr: 0x1A158, symBinAddr: 0x100055140, symSize: 0x28C }
  - { offsetInCU: 0x1B4DD, offset: 0x76499, size: 0x8, addend: 0x0, symName: __ZNSt3__142__uninitialized_allocator_move_if_noexceptB8ue170006INS_9allocatorIP9TerritoryEENS_16reverse_iteratorIPS3_EES7_S3_vEET1_RT_T0_SB_S8_, symObjAddr: 0x1A7A8, symBinAddr: 0x1000556A8, symSize: 0x4A8 }
  - { offsetInCU: 0x1B567, offset: 0x76523, size: 0x8, addend: 0x0, symName: __ZNSt3__14swapB8ue170006IPP9TerritoryEENS_9enable_ifIXaasr21is_move_constructibleIT_EE5valuesr18is_move_assignableIS5_EE5valueEvE4typeERS5_S8_, symObjAddr: 0x1ACE8, symBinAddr: 0x100055BE8, symSize: 0x134 }
  - { offsetInCU: 0x1B5B8, offset: 0x76574, size: 0x8, addend: 0x0, symName: __ZNSt3__14moveB8ue170006INS_16reverse_iteratorIPP9TerritoryEES5_EET0_T_S7_S6_, symObjAddr: 0x1AEDC, symBinAddr: 0x100055DDC, symSize: 0x4B0 }
  - { offsetInCU: 0x1B61F, offset: 0x765DB, size: 0x8, addend: 0x0, symName: __ZNSt3__16__moveB8ue170006INS_17_ClassicAlgPolicyENS_16reverse_iteratorIPP9TerritoryEES6_S6_EENS_4pairIT0_T2_EES8_T1_S9_, symObjAddr: 0x1B38C, symBinAddr: 0x10005628C, symSize: 0x424 }
  - { offsetInCU: 0x1B697, offset: 0x76653, size: 0x8, addend: 0x0, symName: __ZNSt3__123__dispatch_copy_or_moveB8ue170006INS_17_ClassicAlgPolicyENS_11__move_loopIS1_EENS_14__move_trivialENS_16reverse_iteratorIPP9TerritoryEES9_S9_EENS_4pairIT2_T4_EESB_T3_SC_, symObjAddr: 0x1B7B0, symBinAddr: 0x1000566B0, symSize: 0x424 }
  - { offsetInCU: 0x1B721, offset: 0x766DD, size: 0x8, addend: 0x0, symName: __ZNSt3__121__unwrap_and_dispatchB8ue170006INS_10__overloadINS_11__move_loopINS_17_ClassicAlgPolicyEEENS_14__move_trivialEEENS_16reverse_iteratorIPP9TerritoryEESB_SB_Li0EEENS_4pairIT0_T2_EESD_T1_SE_, symObjAddr: 0x1BBD4, symBinAddr: 0x100056AD4, symSize: 0x880 }
  - { offsetInCU: 0x1B7C5, offset: 0x76781, size: 0x8, addend: 0x0, symName: __ZNSt3__114__unwrap_rangeB8ue170006INS_16reverse_iteratorIPP9TerritoryEES5_EEDaT_T0_, symObjAddr: 0x1C454, symBinAddr: 0x100057354, symSize: 0x35C }
  - { offsetInCU: 0x1B9FC, offset: 0x769B8, size: 0x8, addend: 0x0, symName: __ZNSt3__113__unwrap_iterB8ue170006INS_16reverse_iteratorIPP9TerritoryEENS_18__unwrap_iter_implIS5_Lb0EEELi0EEEDTclsrT0_8__unwrapclsr3stdE7declvalIT_EEEES9_, symObjAddr: 0x1CB58, symBinAddr: 0x100057A58, symSize: 0x2EC }
  - { offsetInCU: 0x1BA44, offset: 0x76A00, size: 0x8, addend: 0x0, symName: __ZNSt3__19make_pairB8ue170006INS_16reverse_iteratorIPP9TerritoryEES5_EENS_4pairINS_18__unwrap_ref_decayIT_E4typeENS7_IT0_E4typeEEEOS8_OSB_, symObjAddr: 0x1CE44, symBinAddr: 0x100057D44, symSize: 0x38 }
  - { offsetInCU: 0x1BA93, offset: 0x76A4F, size: 0x8, addend: 0x0, symName: __ZNSt3__114__rewrap_rangeB8ue170006INS_16reverse_iteratorIPP9TerritoryEES5_S5_EET0_S6_T1_, symObjAddr: 0x1CE7C, symBinAddr: 0x100057D7C, symSize: 0x3D4 }
  - { offsetInCU: 0x1BAF0, offset: 0x76AAC, size: 0x8, addend: 0x0, symName: __ZNSt3__113__rewrap_iterB8ue170006INS_16reverse_iteratorIPP9TerritoryEES5_NS_18__unwrap_iter_implIS5_Lb0EEEEET_S8_T0_, symObjAddr: 0x1D250, symBinAddr: 0x100058150, symSize: 0x3E8 }
  - { offsetInCU: 0x1BB9D, offset: 0x76B59, size: 0x8, addend: 0x0, symName: __ZNSt3__1neB8ue170006IPP9TerritoryS3_EEbRKNS_16reverse_iteratorIT_EERKNS4_IT0_EE, symObjAddr: 0x1DB10, symBinAddr: 0x100058A10, symSize: 0x48 }
  - { offsetInCU: 0x1BD7F, offset: 0x76D3B, size: 0x8, addend: 0x0, symName: __ZNSt3__110destroy_atB8ue170006IP9TerritoryLi0EEEvPT_, symObjAddr: 0x1EA00, symBinAddr: 0x100059900, symSize: 0x24 }
  - { offsetInCU: 0x1BDB6, offset: 0x76D72, size: 0x8, addend: 0x0, symName: __ZNSt3__112__destroy_atB8ue170006IP9TerritoryLi0EEEvPT_, symObjAddr: 0x1EA24, symBinAddr: 0x100059924, symSize: 0x10 }
  - { offsetInCU: 0x1BE12, offset: 0x76DCE, size: 0x8, addend: 0x0, symName: __ZNSt3__112construct_atB8ue170006IP6PlayerJRKS2_EPS2_EEPT_S7_DpOT0_, symObjAddr: 0x1FBD4, symBinAddr: 0x10005AAD4, symSize: 0xB8 }
  - { offsetInCU: 0x1BE82, offset: 0x76E3E, size: 0x8, addend: 0x0, symName: __ZNSt3__119__allocate_at_leastB8ue170006INS_9allocatorIP6PlayerEEEENS_19__allocation_resultINS_16allocator_traitsIT_E7pointerEEERS7_m, symObjAddr: 0x21164, symBinAddr: 0x10005C064, symSize: 0x28C }
  - { offsetInCU: 0x1BEC7, offset: 0x76E83, size: 0x8, addend: 0x0, symName: __ZNSt3__142__uninitialized_allocator_move_if_noexceptB8ue170006INS_9allocatorIP6PlayerEENS_16reverse_iteratorIPS3_EES7_S3_vEET1_RT_T0_SB_S8_, symObjAddr: 0x216CC, symBinAddr: 0x10005C5CC, symSize: 0x4A8 }
  - { offsetInCU: 0x1BF51, offset: 0x76F0D, size: 0x8, addend: 0x0, symName: __ZNSt3__14swapB8ue170006IPP6PlayerEENS_9enable_ifIXaasr21is_move_constructibleIT_EE5valuesr18is_move_assignableIS5_EE5valueEvE4typeERS5_S8_, symObjAddr: 0x21C0C, symBinAddr: 0x10005CB0C, symSize: 0x134 }
  - { offsetInCU: 0x1BFA2, offset: 0x76F5E, size: 0x8, addend: 0x0, symName: __ZNSt3__14moveB8ue170006INS_16reverse_iteratorIPP6PlayerEES5_EET0_T_S7_S6_, symObjAddr: 0x21E00, symBinAddr: 0x10005CD00, symSize: 0x4B0 }
  - { offsetInCU: 0x1C009, offset: 0x76FC5, size: 0x8, addend: 0x0, symName: __ZNSt3__16__moveB8ue170006INS_17_ClassicAlgPolicyENS_16reverse_iteratorIPP6PlayerEES6_S6_EENS_4pairIT0_T2_EES8_T1_S9_, symObjAddr: 0x222B0, symBinAddr: 0x10005D1B0, symSize: 0x424 }
  - { offsetInCU: 0x1C081, offset: 0x7703D, size: 0x8, addend: 0x0, symName: __ZNSt3__123__dispatch_copy_or_moveB8ue170006INS_17_ClassicAlgPolicyENS_11__move_loopIS1_EENS_14__move_trivialENS_16reverse_iteratorIPP6PlayerEES9_S9_EENS_4pairIT2_T4_EESB_T3_SC_, symObjAddr: 0x226D4, symBinAddr: 0x10005D5D4, symSize: 0x424 }
  - { offsetInCU: 0x1C10B, offset: 0x770C7, size: 0x8, addend: 0x0, symName: __ZNSt3__121__unwrap_and_dispatchB8ue170006INS_10__overloadINS_11__move_loopINS_17_ClassicAlgPolicyEEENS_14__move_trivialEEENS_16reverse_iteratorIPP6PlayerEESB_SB_Li0EEENS_4pairIT0_T2_EESD_T1_SE_, symObjAddr: 0x22AF8, symBinAddr: 0x10005D9F8, symSize: 0x880 }
  - { offsetInCU: 0x1C1AF, offset: 0x7716B, size: 0x8, addend: 0x0, symName: __ZNSt3__114__unwrap_rangeB8ue170006INS_16reverse_iteratorIPP6PlayerEES5_EEDaT_T0_, symObjAddr: 0x23378, symBinAddr: 0x10005E278, symSize: 0x35C }
  - { offsetInCU: 0x1C2D7, offset: 0x77293, size: 0x8, addend: 0x0, symName: __ZNSt3__113__unwrap_iterB8ue170006INS_16reverse_iteratorIPP6PlayerEENS_18__unwrap_iter_implIS5_Lb0EEELi0EEEDTclsrT0_8__unwrapclsr3stdE7declvalIT_EEEES9_, symObjAddr: 0x23A7C, symBinAddr: 0x10005E97C, symSize: 0x2EC }
  - { offsetInCU: 0x1C31F, offset: 0x772DB, size: 0x8, addend: 0x0, symName: __ZNSt3__19make_pairB8ue170006INS_16reverse_iteratorIPP6PlayerEES5_EENS_4pairINS_18__unwrap_ref_decayIT_E4typeENS7_IT0_E4typeEEEOS8_OSB_, symObjAddr: 0x23D68, symBinAddr: 0x10005EC68, symSize: 0x38 }
  - { offsetInCU: 0x1C36E, offset: 0x7732A, size: 0x8, addend: 0x0, symName: __ZNSt3__114__rewrap_rangeB8ue170006INS_16reverse_iteratorIPP6PlayerEES5_S5_EET0_S6_T1_, symObjAddr: 0x23DA0, symBinAddr: 0x10005ECA0, symSize: 0x3D4 }
  - { offsetInCU: 0x1C3CB, offset: 0x77387, size: 0x8, addend: 0x0, symName: __ZNSt3__113__rewrap_iterB8ue170006INS_16reverse_iteratorIPP6PlayerEES5_NS_18__unwrap_iter_implIS5_Lb0EEEEET_S8_T0_, symObjAddr: 0x24174, symBinAddr: 0x10005F074, symSize: 0x3E8 }
  - { offsetInCU: 0x1C478, offset: 0x77434, size: 0x8, addend: 0x0, symName: __ZNSt3__1neB8ue170006IPP6PlayerS3_EEbRKNS_16reverse_iteratorIT_EERKNS4_IT0_EE, symObjAddr: 0x24A34, symBinAddr: 0x10005F934, symSize: 0x48 }
  - { offsetInCU: 0x1C530, offset: 0x774EC, size: 0x8, addend: 0x0, symName: __ZNSt3__112construct_atB8ue170006IP6PlayerJS2_EPS2_EEPT_S5_DpOT0_, symObjAddr: 0x27904, symBinAddr: 0x1000614F0, symSize: 0xB8 }
  - { offsetInCU: 0x1C61A, offset: 0x775D6, size: 0x8, addend: 0x0, symName: __ZNSt3__1eqB8ue170006IPKNS_12basic_stringIcNS_11char_traitsIcEENS_9allocatorIcEEEEEEbRKNS_11__wrap_iterIT_EESD_, symObjAddr: 0x27D48, symBinAddr: 0x1000618C0, symSize: 0x48 }
  - { offsetInCU: 0x1C65D, offset: 0x77619, size: 0x8, addend: 0x0, symName: __ZNSt3__14copyB8ue170006IPKcPcEET0_T_S5_S4_, symObjAddr: 0x28C24, symBinAddr: 0x1000622E4, symSize: 0x26C }
  - { offsetInCU: 0x1C6BA, offset: 0x77676, size: 0x8, addend: 0x0, symName: __ZNSt3__16__copyB8ue170006INS_17_ClassicAlgPolicyEPKcS3_PcEENS_4pairIT0_T2_EES6_T1_S7_, symObjAddr: 0x28E90, symBinAddr: 0x100062550, symSize: 0x22C }
  - { offsetInCU: 0x1C729, offset: 0x776E5, size: 0x8, addend: 0x0, symName: __ZNSt3__123__dispatch_copy_or_moveB8ue170006INS_17_ClassicAlgPolicyENS_11__copy_loopIS1_EENS_14__copy_trivialEPKcS6_PcEENS_4pairIT2_T4_EES9_T3_SA_, symObjAddr: 0x290BC, symBinAddr: 0x10006277C, symSize: 0x22C }
  - { offsetInCU: 0x1C7AA, offset: 0x77766, size: 0x8, addend: 0x0, symName: __ZNSt3__121__unwrap_and_dispatchB8ue170006INS_10__overloadINS_11__copy_loopINS_17_ClassicAlgPolicyEEENS_14__copy_trivialEEEPKcS8_PcLi0EEENS_4pairIT0_T2_EESB_T1_SC_, symObjAddr: 0x292E8, symBinAddr: 0x1000629A8, symSize: 0x5A4 }
  - { offsetInCU: 0x1C843, offset: 0x777FF, size: 0x8, addend: 0x0, symName: __ZNSt3__114__unwrap_rangeB8ue170006IPKcS2_EEDaT_T0_, symObjAddr: 0x2988C, symBinAddr: 0x100062F4C, symSize: 0x224 }
  - { offsetInCU: 0x1C9DA, offset: 0x77996, size: 0x8, addend: 0x0, symName: __ZNSt3__113__unwrap_iterB8ue170006IPcNS_18__unwrap_iter_implIS1_Lb1EEELi0EEEDTclsrT0_8__unwrapclsr3stdE7declvalIT_EEEES5_, symObjAddr: 0x29CE0, symBinAddr: 0x1000633A0, symSize: 0x24 }
  - { offsetInCU: 0x1CA1E, offset: 0x779DA, size: 0x8, addend: 0x0, symName: __ZNSt3__19make_pairB8ue170006IPKcPcEENS_4pairINS_18__unwrap_ref_decayIT_E4typeENS5_IT0_E4typeEEEOS6_OS9_, symObjAddr: 0x29D04, symBinAddr: 0x1000633C4, symSize: 0x20C }
  - { offsetInCU: 0x1CA6F, offset: 0x77A2B, size: 0x8, addend: 0x0, symName: __ZNSt3__114__rewrap_rangeB8ue170006IPKcS2_S2_EET0_S3_T1_, symObjAddr: 0x29F10, symBinAddr: 0x1000635D0, symSize: 0x2C }
  - { offsetInCU: 0x1CAC4, offset: 0x77A80, size: 0x8, addend: 0x0, symName: __ZNSt3__113__rewrap_iterB8ue170006IPcS1_NS_18__unwrap_iter_implIS1_Lb1EEEEET_S4_T0_, symObjAddr: 0x29F3C, symBinAddr: 0x1000635FC, symSize: 0x48 }
  - { offsetInCU: 0x1CC35, offset: 0x77BF1, size: 0x8, addend: 0x0, symName: __ZNSt3__113__unwrap_iterB8ue170006IPKcNS_18__unwrap_iter_implIS2_Lb1EEELi0EEEDTclsrT0_8__unwrapclsr3stdE7declvalIT_EEEES6_, symObjAddr: 0x2A290, symBinAddr: 0x100063950, symSize: 0x24 }
  - { offsetInCU: 0x1CCCC, offset: 0x77C88, size: 0x8, addend: 0x0, symName: __ZNSt3__119__copy_trivial_implB8ue170006IKccEENS_4pairIPT_PT0_EES4_S4_S6_, symObjAddr: 0x2A44C, symBinAddr: 0x100063B0C, symSize: 0x3AC }
  - { offsetInCU: 0x1CD3B, offset: 0x77CF7, size: 0x8, addend: 0x0, symName: __ZNSt3__119__constexpr_memmoveB8ue170006IcKcLi0EEEPT_S3_PT0_NS_15__element_countE, symObjAddr: 0x2A7F8, symBinAddr: 0x100063EB8, symSize: 0x64 }
  - { offsetInCU: 0x1CDA9, offset: 0x77D65, size: 0x8, addend: 0x0, symName: __ZNSt3__19make_pairB8ue170006IRPKcPcEENS_4pairINS_18__unwrap_ref_decayIT_E4typeENS6_IT0_E4typeEEEOS7_OSA_, symObjAddr: 0x2A85C, symBinAddr: 0x100063F1C, symSize: 0x20C }
  - { offsetInCU: 0x1CE4D, offset: 0x77E09, size: 0x8, addend: 0x0, symName: __ZNSt3__113__rewrap_iterB8ue170006IPKcS2_NS_18__unwrap_iter_implIS2_Lb1EEEEET_S5_T0_, symObjAddr: 0x2ADA0, symBinAddr: 0x100064460, symSize: 0x48 }
  - { offsetInCU: 0x1CEA2, offset: 0x77E5E, size: 0x8, addend: 0x0, symName: __ZNSt3__16fill_nB8ue170006IPcmcEET_S2_T0_RKT1_, symObjAddr: 0x2AE78, symBinAddr: 0x100064538, symSize: 0x44 }
  - { offsetInCU: 0x1CF05, offset: 0x77EC1, size: 0x8, addend: 0x0, symName: __ZNSt3__18__fill_nB8ue170006IPcmcEET_S2_T0_RKT1_, symObjAddr: 0x2AEBC, symBinAddr: 0x10006457C, symSize: 0x138 }
  - { offsetInCU: 0x1CF68, offset: 0x77F24, size: 0x8, addend: 0x0, symName: __ZNSt3__121__convert_to_integralB8ue170006Em, symObjAddr: 0x2AFF4, symBinAddr: 0x1000646B4, symSize: 0x14 }
  - { offsetInCU: 0x1CF94, offset: 0x77F50, size: 0x8, addend: 0x0, symName: __ZNSt3__1eqB8ue170006IPNS_12basic_stringIcNS_11char_traitsIcEENS_9allocatorIcEEEEEEbRKNS_11__wrap_iterIT_EESC_, symObjAddr: 0x2C288, symBinAddr: 0x100064968, symSize: 0x48 }
  - { offsetInCU: 0x1CFFC, offset: 0x77FB8, size: 0x8, addend: 0x0, symName: __ZNSt3__18distanceB8ue170006IPNS_12basic_stringIcNS_11char_traitsIcEENS_9allocatorIcEEEEEENS_15iterator_traitsIT_E15difference_typeES9_S9_, symObjAddr: 0x32154, symBinAddr: 0x100065268, symSize: 0x2C }
  - { offsetInCU: 0x1D03F, offset: 0x77FFB, size: 0x8, addend: 0x0, symName: __ZNSt3__14nextB8ue170006IPNS_12basic_stringIcNS_11char_traitsIcEENS_9allocatorIcEEEEEENS_9enable_ifIXsr29__has_input_iterator_categoryIT_EE5valueES9_E4typeES9_NS_15iterator_traitsIS9_E15difference_typeE, symObjAddr: 0x32180, symBinAddr: 0x100065294, symSize: 0x238 }
  - { offsetInCU: 0x1D087, offset: 0x78043, size: 0x8, addend: 0x0, symName: __ZNSt3__14copyB8ue170006IPNS_12basic_stringIcNS_11char_traitsIcEENS_9allocatorIcEEEES7_EET0_T_S9_S8_, symObjAddr: 0x323B8, symBinAddr: 0x1000654CC, symSize: 0x26C }
  - { offsetInCU: 0x1D0E4, offset: 0x780A0, size: 0x8, addend: 0x0, symName: __ZNSt3__16__copyB8ue170006INS_17_ClassicAlgPolicyEPNS_12basic_stringIcNS_11char_traitsIcEENS_9allocatorIcEEEES8_S8_EENS_4pairIT0_T2_EESA_T1_SB_, symObjAddr: 0x329A4, symBinAddr: 0x100065AB8, symSize: 0x22C }
  - { offsetInCU: 0x1D153, offset: 0x7810F, size: 0x8, addend: 0x0, symName: __ZNSt3__130__uninitialized_allocator_copyB8ue170006INS_9allocatorINS_12basic_stringIcNS_11char_traitsIcEENS1_IcEEEEEEPS6_S8_S8_EET2_RT_T0_T1_S9_, symObjAddr: 0x33044, symBinAddr: 0x100066158, symSize: 0x2DC }
  - { offsetInCU: 0x1D1F9, offset: 0x781B5, size: 0x8, addend: 0x0, symName: __ZNSt3__114__unwrap_rangeB8ue170006IPNS_12basic_stringIcNS_11char_traitsIcEENS_9allocatorIcEEEES7_EEDaT_T0_, symObjAddr: 0x33320, symBinAddr: 0x100066434, symSize: 0x224 }
  - { offsetInCU: 0x1D247, offset: 0x78203, size: 0x8, addend: 0x0, symName: __ZNSt3__135__uninitialized_allocator_copy_implB8ue170006INS_9allocatorINS_12basic_stringIcNS_11char_traitsIcEENS1_IcEEEEEEPS6_S8_S8_EET2_RT_T0_T1_S9_, symObjAddr: 0x33544, symBinAddr: 0x100066658, symSize: 0x520 }
  - { offsetInCU: 0x1D2F3, offset: 0x782AF, size: 0x8, addend: 0x0, symName: __ZNSt3__113__unwrap_iterB8ue170006IPNS_12basic_stringIcNS_11char_traitsIcEENS_9allocatorIcEEEENS_18__unwrap_iter_implIS7_Lb1EEELi0EEEDTclsrT0_8__unwrapclsr3stdE7declvalIT_EEEESB_, symObjAddr: 0x33A64, symBinAddr: 0x100066B78, symSize: 0x24 }
  - { offsetInCU: 0x1D337, offset: 0x782F3, size: 0x8, addend: 0x0, symName: __ZNSt3__113__rewrap_iterB8ue170006IPNS_12basic_stringIcNS_11char_traitsIcEENS_9allocatorIcEEEES7_NS_18__unwrap_iter_implIS7_Lb1EEEEET_SA_T0_, symObjAddr: 0x33A88, symBinAddr: 0x100066B9C, symSize: 0x48 }
  - { offsetInCU: 0x1D4B0, offset: 0x7846C, size: 0x8, addend: 0x0, symName: __ZNSt3__122__make_exception_guardB8ue170006INS_29_AllocatorDestroyRangeReverseINS_9allocatorINS_12basic_stringIcNS_11char_traitsIcEENS2_IcEEEEEEPS7_EEEENS_28__exception_guard_exceptionsIT_EESC_, symObjAddr: 0x33F50, symBinAddr: 0x100067064, symSize: 0x1F8 }
  - { offsetInCU: 0x1D4E7, offset: 0x784A3, size: 0x8, addend: 0x0, symName: __ZNSt3__112construct_atB8ue170006INS_12basic_stringIcNS_11char_traitsIcEENS_9allocatorIcEEEEJRS6_EPS6_EEPT_SA_DpOT0_, symObjAddr: 0x34450, symBinAddr: 0x100067564, symSize: 0x3C }
  - { offsetInCU: 0x1D557, offset: 0x78513, size: 0x8, addend: 0x0, symName: __ZNSt3__119__allocator_destroyB8ue170006INS_9allocatorINS_12basic_stringIcNS_11char_traitsIcEENS1_IcEEEEEENS_16reverse_iteratorIPS6_EESA_EEvRT_T0_T1_, symObjAddr: 0x348E4, symBinAddr: 0x1000679F8, symSize: 0x2B8 }
  - { offsetInCU: 0x1D616, offset: 0x785D2, size: 0x8, addend: 0x0, symName: __ZNSt3__123__dispatch_copy_or_moveB8ue170006INS_17_ClassicAlgPolicyENS_11__copy_loopIS1_EENS_14__copy_trivialEPNS_12basic_stringIcNS_11char_traitsIcEENS_9allocatorIcEEEESB_SB_EENS_4pairIT2_T4_EESD_T3_SE_, symObjAddr: 0x34C18, symBinAddr: 0x100067D2C, symSize: 0x22C }
  - { offsetInCU: 0x1D697, offset: 0x78653, size: 0x8, addend: 0x0, symName: __ZNSt3__121__unwrap_and_dispatchB8ue170006INS_10__overloadINS_11__copy_loopINS_17_ClassicAlgPolicyEEENS_14__copy_trivialEEEPNS_12basic_stringIcNS_11char_traitsIcEENS_9allocatorIcEEEESD_SD_Li0EEENS_4pairIT0_T2_EESF_T1_SG_, symObjAddr: 0x34E44, symBinAddr: 0x100067F58, symSize: 0x5A4 }
  - { offsetInCU: 0x1D782, offset: 0x7873E, size: 0x8, addend: 0x0, symName: __ZNSt3__19make_pairB8ue170006IPNS_12basic_stringIcNS_11char_traitsIcEENS_9allocatorIcEEEES7_EENS_4pairINS_18__unwrap_ref_decayIT_E4typeENS9_IT0_E4typeEEEOSA_OSD_, symObjAddr: 0x35840, symBinAddr: 0x100068954, symSize: 0x20C }
  - { offsetInCU: 0x1D7D3, offset: 0x7878F, size: 0x8, addend: 0x0, symName: __ZNSt3__114__rewrap_rangeB8ue170006IPNS_12basic_stringIcNS_11char_traitsIcEENS_9allocatorIcEEEES7_S7_EET0_S8_T1_, symObjAddr: 0x35A4C, symBinAddr: 0x100068B60, symSize: 0x2C }
  - { offsetInCU: 0x1D828, offset: 0x787E4, size: 0x8, addend: 0x0, symName: __ZNSt3__110__distanceB8ue170006IPNS_12basic_stringIcNS_11char_traitsIcEENS_9allocatorIcEEEEEENS_15iterator_traitsIT_E15difference_typeES9_S9_NS_26random_access_iterator_tagE, symObjAddr: 0x35AA4, symBinAddr: 0x100068BB8, symSize: 0x28 }
  - { offsetInCU: 0x1D876, offset: 0x78832, size: 0x8, addend: 0x0, symName: __ZNSt3__112__to_addressB8ue170006IP11LogObserverEEPT_S4_, symObjAddr: 0x36314, symBinAddr: 0x100069428, symSize: 0x14 }
  - { offsetInCU: 0x1D8AB, offset: 0x78867, size: 0x8, addend: 0x0, symName: __ZNSt3__110destroy_atB8ue170006IP11LogObserverLi0EEEvPT_, symObjAddr: 0x36328, symBinAddr: 0x10006943C, symSize: 0x24 }
  - { offsetInCU: 0x1D8E2, offset: 0x7889E, size: 0x8, addend: 0x0, symName: __ZNSt3__112__destroy_atB8ue170006IP11LogObserverLi0EEEvPT_, symObjAddr: 0x3634C, symBinAddr: 0x100069460, symSize: 0x10 }
  - { offsetInCU: 0x1D919, offset: 0x788D5, size: 0x8, addend: 0x0, symName: __ZNSt3__112__to_addressB8ue170006IP10OrdersListEEPT_S4_, symObjAddr: 0x36DF4, symBinAddr: 0x100069F08, symSize: 0x14 }
  - { offsetInCU: 0x1D94E, offset: 0x7890A, size: 0x8, addend: 0x0, symName: __ZNSt3__110destroy_atB8ue170006IP10OrdersListLi0EEEvPT_, symObjAddr: 0x36E08, symBinAddr: 0x100069F1C, symSize: 0x24 }
  - { offsetInCU: 0x1D985, offset: 0x78941, size: 0x8, addend: 0x0, symName: __ZNSt3__112__destroy_atB8ue170006IP10OrdersListLi0EEEvPT_, symObjAddr: 0x36E2C, symBinAddr: 0x100069F40, symSize: 0x10 }
  - { offsetInCU: 0x1D9BC, offset: 0x78978, size: 0x8, addend: 0x0, symName: __ZNSt3__112__to_addressB8ue170006IP14PlayerStrategyEEPT_S4_, symObjAddr: 0x378D4, symBinAddr: 0x10006A9E8, symSize: 0x14 }
  - { offsetInCU: 0x1D9F1, offset: 0x789AD, size: 0x8, addend: 0x0, symName: __ZNSt3__110destroy_atB8ue170006IP14PlayerStrategyLi0EEEvPT_, symObjAddr: 0x378E8, symBinAddr: 0x10006A9FC, symSize: 0x24 }
  - { offsetInCU: 0x1DA28, offset: 0x789E4, size: 0x8, addend: 0x0, symName: __ZNSt3__112__destroy_atB8ue170006IP14PlayerStrategyLi0EEEvPT_, symObjAddr: 0x3790C, symBinAddr: 0x10006AA20, symSize: 0x10 }
  - { offsetInCU: 0x1DA84, offset: 0x78A40, size: 0x8, addend: 0x0, symName: __ZNSt3__112construct_atB8ue170006IP11LogObserverJRKS2_EPS2_EEPT_S7_DpOT0_, symObjAddr: 0x38638, symBinAddr: 0x10006B74C, symSize: 0xB8 }
  - { offsetInCU: 0x1DAF4, offset: 0x78AB0, size: 0x8, addend: 0x0, symName: __ZNSt3__119__allocate_at_leastB8ue170006INS_9allocatorIP11LogObserverEEEENS_19__allocation_resultINS_16allocator_traitsIT_E7pointerEEERS7_m, symObjAddr: 0x39C90, symBinAddr: 0x10006CDA4, symSize: 0x28C }
  - { offsetInCU: 0x1DB39, offset: 0x78AF5, size: 0x8, addend: 0x0, symName: __ZNSt3__142__uninitialized_allocator_move_if_noexceptB8ue170006INS_9allocatorIP11LogObserverEENS_16reverse_iteratorIPS3_EES7_S3_vEET1_RT_T0_SB_S8_, symObjAddr: 0x3A190, symBinAddr: 0x10006D2A4, symSize: 0x4A8 }
  - { offsetInCU: 0x1DBC3, offset: 0x78B7F, size: 0x8, addend: 0x0, symName: __ZNSt3__14swapB8ue170006IPP11LogObserverEENS_9enable_ifIXaasr21is_move_constructibleIT_EE5valuesr18is_move_assignableIS5_EE5valueEvE4typeERS5_S8_, symObjAddr: 0x3A6D0, symBinAddr: 0x10006D7E4, symSize: 0x134 }
  - { offsetInCU: 0x1DC14, offset: 0x78BD0, size: 0x8, addend: 0x0, symName: __ZNSt3__14moveB8ue170006INS_16reverse_iteratorIPP11LogObserverEES5_EET0_T_S7_S6_, symObjAddr: 0x3A8C4, symBinAddr: 0x10006D9D8, symSize: 0x4B0 }
  - { offsetInCU: 0x1DC7B, offset: 0x78C37, size: 0x8, addend: 0x0, symName: __ZNSt3__16__moveB8ue170006INS_17_ClassicAlgPolicyENS_16reverse_iteratorIPP11LogObserverEES6_S6_EENS_4pairIT0_T2_EES8_T1_S9_, symObjAddr: 0x3AD74, symBinAddr: 0x10006DE88, symSize: 0x424 }
  - { offsetInCU: 0x1DCF3, offset: 0x78CAF, size: 0x8, addend: 0x0, symName: __ZNSt3__123__dispatch_copy_or_moveB8ue170006INS_17_ClassicAlgPolicyENS_11__move_loopIS1_EENS_14__move_trivialENS_16reverse_iteratorIPP11LogObserverEES9_S9_EENS_4pairIT2_T4_EESB_T3_SC_, symObjAddr: 0x3B198, symBinAddr: 0x10006E2AC, symSize: 0x424 }
  - { offsetInCU: 0x1DD7D, offset: 0x78D39, size: 0x8, addend: 0x0, symName: __ZNSt3__121__unwrap_and_dispatchB8ue170006INS_10__overloadINS_11__move_loopINS_17_ClassicAlgPolicyEEENS_14__move_trivialEEENS_16reverse_iteratorIPP11LogObserverEESB_SB_Li0EEENS_4pairIT0_T2_EESD_T1_SE_, symObjAddr: 0x3B5BC, symBinAddr: 0x10006E6D0, symSize: 0x880 }
  - { offsetInCU: 0x1DE21, offset: 0x78DDD, size: 0x8, addend: 0x0, symName: __ZNSt3__114__unwrap_rangeB8ue170006INS_16reverse_iteratorIPP11LogObserverEES5_EEDaT_T0_, symObjAddr: 0x3BE3C, symBinAddr: 0x10006EF50, symSize: 0x35C }
  - { offsetInCU: 0x1DF49, offset: 0x78F05, size: 0x8, addend: 0x0, symName: __ZNSt3__113__unwrap_iterB8ue170006INS_16reverse_iteratorIPP11LogObserverEENS_18__unwrap_iter_implIS5_Lb0EEELi0EEEDTclsrT0_8__unwrapclsr3stdE7declvalIT_EEEES9_, symObjAddr: 0x3C540, symBinAddr: 0x10006F654, symSize: 0x2EC }
  - { offsetInCU: 0x1DF91, offset: 0x78F4D, size: 0x8, addend: 0x0, symName: __ZNSt3__19make_pairB8ue170006INS_16reverse_iteratorIPP11LogObserverEES5_EENS_4pairINS_18__unwrap_ref_decayIT_E4typeENS7_IT0_E4typeEEEOS8_OSB_, symObjAddr: 0x3C82C, symBinAddr: 0x10006F940, symSize: 0x38 }
  - { offsetInCU: 0x1DFE0, offset: 0x78F9C, size: 0x8, addend: 0x0, symName: __ZNSt3__114__rewrap_rangeB8ue170006INS_16reverse_iteratorIPP11LogObserverEES5_S5_EET0_S6_T1_, symObjAddr: 0x3C864, symBinAddr: 0x10006F978, symSize: 0x3D4 }
  - { offsetInCU: 0x1E03D, offset: 0x78FF9, size: 0x8, addend: 0x0, symName: __ZNSt3__113__rewrap_iterB8ue170006INS_16reverse_iteratorIPP11LogObserverEES5_NS_18__unwrap_iter_implIS5_Lb0EEEEET_S8_T0_, symObjAddr: 0x3CC38, symBinAddr: 0x10006FD4C, symSize: 0x3E8 }
  - { offsetInCU: 0x1E0EA, offset: 0x790A6, size: 0x8, addend: 0x0, symName: __ZNSt3__1neB8ue170006IPP11LogObserverS3_EEbRKNS_16reverse_iteratorIT_EERKNS4_IT0_EE, symObjAddr: 0x3D4F8, symBinAddr: 0x10007060C, symSize: 0x48 }
  - { offsetInCU: 0x1E1C7, offset: 0x79183, size: 0x8, addend: 0x0, symName: __ZNSt3__112construct_atB8ue170006IP14PlayerStrategyJRKS2_EPS2_EEPT_S7_DpOT0_, symObjAddr: 0x3EEA4, symBinAddr: 0x100071FB8, symSize: 0xB8 }
  - { offsetInCU: 0x1E237, offset: 0x791F3, size: 0x8, addend: 0x0, symName: __ZNSt3__119__allocate_at_leastB8ue170006INS_9allocatorIP14PlayerStrategyEEEENS_19__allocation_resultINS_16allocator_traitsIT_E7pointerEEERS7_m, symObjAddr: 0x404FC, symBinAddr: 0x100073610, symSize: 0x28C }
  - { offsetInCU: 0x1E27C, offset: 0x79238, size: 0x8, addend: 0x0, symName: __ZNSt3__142__uninitialized_allocator_move_if_noexceptB8ue170006INS_9allocatorIP14PlayerStrategyEENS_16reverse_iteratorIPS3_EES7_S3_vEET1_RT_T0_SB_S8_, symObjAddr: 0x409FC, symBinAddr: 0x100073B10, symSize: 0x4A8 }
  - { offsetInCU: 0x1E306, offset: 0x792C2, size: 0x8, addend: 0x0, symName: __ZNSt3__14swapB8ue170006IPP14PlayerStrategyEENS_9enable_ifIXaasr21is_move_constructibleIT_EE5valuesr18is_move_assignableIS5_EE5valueEvE4typeERS5_S8_, symObjAddr: 0x40F3C, symBinAddr: 0x100074050, symSize: 0x134 }
  - { offsetInCU: 0x1E357, offset: 0x79313, size: 0x8, addend: 0x0, symName: __ZNSt3__14moveB8ue170006INS_16reverse_iteratorIPP14PlayerStrategyEES5_EET0_T_S7_S6_, symObjAddr: 0x41130, symBinAddr: 0x100074244, symSize: 0x4B0 }
  - { offsetInCU: 0x1E3BE, offset: 0x7937A, size: 0x8, addend: 0x0, symName: __ZNSt3__16__moveB8ue170006INS_17_ClassicAlgPolicyENS_16reverse_iteratorIPP14PlayerStrategyEES6_S6_EENS_4pairIT0_T2_EES8_T1_S9_, symObjAddr: 0x415E0, symBinAddr: 0x1000746F4, symSize: 0x424 }
  - { offsetInCU: 0x1E436, offset: 0x793F2, size: 0x8, addend: 0x0, symName: __ZNSt3__123__dispatch_copy_or_moveB8ue170006INS_17_ClassicAlgPolicyENS_11__move_loopIS1_EENS_14__move_trivialENS_16reverse_iteratorIPP14PlayerStrategyEES9_S9_EENS_4pairIT2_T4_EESB_T3_SC_, symObjAddr: 0x41A04, symBinAddr: 0x100074B18, symSize: 0x424 }
  - { offsetInCU: 0x1E4C0, offset: 0x7947C, size: 0x8, addend: 0x0, symName: __ZNSt3__121__unwrap_and_dispatchB8ue170006INS_10__overloadINS_11__move_loopINS_17_ClassicAlgPolicyEEENS_14__move_trivialEEENS_16reverse_iteratorIPP14PlayerStrategyEESB_SB_Li0EEENS_4pairIT0_T2_EESD_T1_SE_, symObjAddr: 0x41E28, symBinAddr: 0x100074F3C, symSize: 0x880 }
  - { offsetInCU: 0x1E564, offset: 0x79520, size: 0x8, addend: 0x0, symName: __ZNSt3__114__unwrap_rangeB8ue170006INS_16reverse_iteratorIPP14PlayerStrategyEES5_EEDaT_T0_, symObjAddr: 0x426A8, symBinAddr: 0x1000757BC, symSize: 0x35C }
  - { offsetInCU: 0x1E68C, offset: 0x79648, size: 0x8, addend: 0x0, symName: __ZNSt3__113__unwrap_iterB8ue170006INS_16reverse_iteratorIPP14PlayerStrategyEENS_18__unwrap_iter_implIS5_Lb0EEELi0EEEDTclsrT0_8__unwrapclsr3stdE7declvalIT_EEEES9_, symObjAddr: 0x42DAC, symBinAddr: 0x100075EC0, symSize: 0x2EC }
  - { offsetInCU: 0x1E6D4, offset: 0x79690, size: 0x8, addend: 0x0, symName: __ZNSt3__19make_pairB8ue170006INS_16reverse_iteratorIPP14PlayerStrategyEES5_EENS_4pairINS_18__unwrap_ref_decayIT_E4typeENS7_IT0_E4typeEEEOS8_OSB_, symObjAddr: 0x43098, symBinAddr: 0x1000761AC, symSize: 0x38 }
  - { offsetInCU: 0x1E723, offset: 0x796DF, size: 0x8, addend: 0x0, symName: __ZNSt3__114__rewrap_rangeB8ue170006INS_16reverse_iteratorIPP14PlayerStrategyEES5_S5_EET0_S6_T1_, symObjAddr: 0x430D0, symBinAddr: 0x1000761E4, symSize: 0x3D4 }
  - { offsetInCU: 0x1E780, offset: 0x7973C, size: 0x8, addend: 0x0, symName: __ZNSt3__113__rewrap_iterB8ue170006INS_16reverse_iteratorIPP14PlayerStrategyEES5_NS_18__unwrap_iter_implIS5_Lb0EEEEET_S8_T0_, symObjAddr: 0x434A4, symBinAddr: 0x1000765B8, symSize: 0x3E8 }
  - { offsetInCU: 0x1E82D, offset: 0x797E9, size: 0x8, addend: 0x0, symName: __ZNSt3__1neB8ue170006IPP14PlayerStrategyS3_EEbRKNS_16reverse_iteratorIT_EERKNS4_IT0_EE, symObjAddr: 0x43D64, symBinAddr: 0x100076E78, symSize: 0x48 }
  - { offsetInCU: 0x1E8E5, offset: 0x798A1, size: 0x8, addend: 0x0, symName: __ZNSt3__1eqB8ue170006IPP11LogObserverEEbRKNS_11__wrap_iterIT_EES8_, symObjAddr: 0x44EE4, symBinAddr: 0x100077FF8, symSize: 0x48 }
  - { offsetInCU: 0x1E928, offset: 0x798E4, size: 0x8, addend: 0x0, symName: __ZNSt3__1neB8ue170006ERKNS_15__tree_iteratorINS_12__value_typeINS_12basic_stringIcNS_11char_traitsIcEENS_9allocatorIcEEEENS_6vectorIS7_NS5_IS7_EEEEEEPNS_11__tree_nodeISB_PvEElEESI_, symObjAddr: 0x48B14, symBinAddr: 0x100078A20, symSize: 0x34 }
  - { offsetInCU: 0x1E965, offset: 0x79921, size: 0x8, addend: 0x0, symName: __ZNSt3__1eqB8ue170006ERKNS_15__tree_iteratorINS_12__value_typeINS_12basic_stringIcNS_11char_traitsIcEENS_9allocatorIcEEEENS_6vectorIS7_NS5_IS7_EEEEEEPNS_11__tree_nodeISB_PvEElEESI_, symObjAddr: 0x48B48, symBinAddr: 0x100078A54, symSize: 0xB8 }
  - { offsetInCU: 0x1E9D5, offset: 0x79991, size: 0x8, addend: 0x0, symName: __ZNSt3__1miB8ue170006IPP6PlayerS3_EEDTmicldtfp_4baseEcldtfp0_4baseEERKNS_11__wrap_iterIT_EERKNS5_IT0_EE, symObjAddr: 0x4A2FC, symBinAddr: 0x100079660, symSize: 0x48 }
  - { offsetInCU: 0x1EA21, offset: 0x799DD, size: 0x8, addend: 0x0, symName: __ZNSt3__1ltB8ue170006IPP6PlayerEEbRKNS_11__wrap_iterIT_EES8_, symObjAddr: 0x4A3E8, symBinAddr: 0x10007974C, symSize: 0x48 }
  - { offsetInCU: 0x1EA64, offset: 0x79A20, size: 0x8, addend: 0x0, symName: __ZNSt3__113__countl_zeroB8ue170006ImEEiT_, symObjAddr: 0x4AC5C, symBinAddr: 0x100079FC0, symSize: 0x54 }
  - { offsetInCU: 0x1EAFF, offset: 0x79ABB, size: 0x8, addend: 0x0, symName: __ZNSt3__112__libcpp_clzB8ue170006Em, symObjAddr: 0x4BF00, symBinAddr: 0x10007B264, symSize: 0x1C }
  - { offsetInCU: 0x1EB2B, offset: 0x79AE7, size: 0x8, addend: 0x0, symName: __ZNSt3__19iter_swapB8ue170006INS_11__wrap_iterIPP6PlayerEES5_EEvT_T0_, symObjAddr: 0x4BFD8, symBinAddr: 0x10007B33C, symSize: 0x288 }
  - { offsetInCU: 0x1EB7B, offset: 0x79B37, size: 0x8, addend: 0x0, symName: __ZNSt3__14swapB8ue170006IP6PlayerEENS_9enable_ifIXaasr21is_move_constructibleIT_EE5valuesr18is_move_assignableIS4_EE5valueEvE4typeERS4_S7_, symObjAddr: 0x4C260, symBinAddr: 0x10007B5C4, symSize: 0x134 }
  - { offsetInCU: 0x1EC03, offset: 0x79BBF, size: 0x8, addend: 0x0, symName: __ZNSt3__116forward_as_tupleB8ue170006IJRKNS_12basic_stringIcNS_11char_traitsIcEENS_9allocatorIcEEEEEEENS_5tupleIJDpOT_EEESC_, symObjAddr: 0x4C8B4, symBinAddr: 0x10007BC18, symSize: 0x1F8 }
  - { offsetInCU: 0x1EC3D, offset: 0x79BF9, size: 0x8, addend: 0x0, symName: __ZNSt3__116forward_as_tupleB8ue170006IJEEENS_5tupleIJDpOT_EEES4_, symObjAddr: 0x4CAAC, symBinAddr: 0x10007BE10, symSize: 0x4 }
  - { offsetInCU: 0x1EC61, offset: 0x79C1D, size: 0x8, addend: 0x0, symName: __ZNSt3__17launderB8ue170006IKNS_4pairIKNS_12basic_stringIcNS_11char_traitsIcEENS_9allocatorIcEEEENS_6vectorIS7_NS5_IS7_EEEEEEEEPT_SF_, symObjAddr: 0x4E5A4, symBinAddr: 0x10007CC08, symSize: 0x24 }
  - { offsetInCU: 0x1EC98, offset: 0x79C54, size: 0x8, addend: 0x0, symName: __ZNSt3__19__launderB8ue170006IKNS_4pairIKNS_12basic_stringIcNS_11char_traitsIcEENS_9allocatorIcEEEENS_6vectorIS7_NS5_IS7_EEEEEEEEPT_SF_, symObjAddr: 0x4E5C8, symBinAddr: 0x10007CC2C, symSize: 0x14 }
  - { offsetInCU: 0x1ED12, offset: 0x79CCE, size: 0x8, addend: 0x0, symName: __ZNSt3__112construct_atB8ue170006INS_4pairIKNS_12basic_stringIcNS_11char_traitsIcEENS_9allocatorIcEEEENS_6vectorIS7_NS5_IS7_EEEEEEJRKNS_21piecewise_construct_tENS_5tupleIJRS8_EEENSG_IJEEEEPSC_EEPT_SM_DpOT0_, symObjAddr: 0x4EC5C, symBinAddr: 0x10007D2C0, symSize: 0x21C }
  - { offsetInCU: 0x1EDB9, offset: 0x79D75, size: 0x8, addend: 0x0, symName: __ZNSt3__13getB8ue170006ILm0EJRKNS_12basic_stringIcNS_11char_traitsIcEENS_9allocatorIcEEEEEEERNS_13tuple_elementIXT_ENS_5tupleIJDpT0_EEEE4typeERSD_, symObjAddr: 0x4F138, symBinAddr: 0x10007D79C, symSize: 0x24 }
  - { offsetInCU: 0x1EE20, offset: 0x79DDC, size: 0x8, addend: 0x0, symName: __ZNSt3__1neB8ue170006ERKNS_21__tree_const_iteratorINS_12__value_typeINS_12basic_stringIcNS_11char_traitsIcEENS_9allocatorIcEEEENS_6vectorIS7_NS5_IS7_EEEEEEPNS_11__tree_nodeISB_PvEElEESI_, symObjAddr: 0x51130, symBinAddr: 0x10007E79C, symSize: 0x34 }
  - { offsetInCU: 0x1EE5D, offset: 0x79E19, size: 0x8, addend: 0x0, symName: __ZNSt3__1eqB8ue170006ERKNS_21__tree_const_iteratorINS_12__value_typeINS_12basic_stringIcNS_11char_traitsIcEENS_9allocatorIcEEEENS_6vectorIS7_NS5_IS7_EEEEEEPNS_11__tree_nodeISB_PvEElEESI_, symObjAddr: 0x51164, symBinAddr: 0x10007E7D0, symSize: 0xB8 }
  - { offsetInCU: 0x20455, offset: 0x7B411, size: 0x8, addend: 0x0, symName: __ZN10GameEngine7playersE, symObjAddr: 0x144CA0, symBinAddr: 0x1001F5520, symSize: 0x0 }
  - { offsetInCU: 0x2046B, offset: 0x7B427, size: 0x8, addend: 0x0, symName: _.str, symObjAddr: 0x52680, symBinAddr: 0x1001958E0, symSize: 0x0 }
  - { offsetInCU: 0x20488, offset: 0x7B444, size: 0x8, addend: 0x0, symName: _.str.1, symObjAddr: 0x526A0, symBinAddr: 0x100195900, symSize: 0x0 }
  - { offsetInCU: 0x204A5, offset: 0x7B461, size: 0x8, addend: 0x0, symName: _.str.2, symObjAddr: 0x526E0, symBinAddr: 0x100195940, symSize: 0x0 }
  - { offsetInCU: 0x204C2, offset: 0x7B47E, size: 0x8, addend: 0x0, symName: _.str.3, symObjAddr: 0x52700, symBinAddr: 0x100195960, symSize: 0x0 }
  - { offsetInCU: 0x204DF, offset: 0x7B49B, size: 0x8, addend: 0x0, symName: _.str.4, symObjAddr: 0x52720, symBinAddr: 0x100195980, symSize: 0x0 }
  - { offsetInCU: 0x204FC, offset: 0x7B4B8, size: 0x8, addend: 0x0, symName: _.str.5, symObjAddr: 0x52760, symBinAddr: 0x1001959C0, symSize: 0x0 }
  - { offsetInCU: 0x20519, offset: 0x7B4D5, size: 0x8, addend: 0x0, symName: _.str.6, symObjAddr: 0x52780, symBinAddr: 0x1001959E0, symSize: 0x0 }
  - { offsetInCU: 0x20536, offset: 0x7B4F2, size: 0x8, addend: 0x0, symName: _.str.7, symObjAddr: 0x527A0, symBinAddr: 0x100195A00, symSize: 0x0 }
  - { offsetInCU: 0x20553, offset: 0x7B50F, size: 0x8, addend: 0x0, symName: _.str.8, symObjAddr: 0x52800, symBinAddr: 0x100195A60, symSize: 0x0 }
  - { offsetInCU: 0x20570, offset: 0x7B52C, size: 0x8, addend: 0x0, symName: _.str.9, symObjAddr: 0x52860, symBinAddr: 0x100195AC0, symSize: 0x0 }
  - { offsetInCU: 0x2058D, offset: 0x7B549, size: 0x8, addend: 0x0, symName: _.str.10, symObjAddr: 0x52880, symBinAddr: 0x100195AE0, symSize: 0x0 }
  - { offsetInCU: 0x205AA, offset: 0x7B566, size: 0x8, addend: 0x0, symName: _.str.11, symObjAddr: 0x528A0, symBinAddr: 0x100195B00, symSize: 0x0 }
  - { offsetInCU: 0x205BB, offset: 0x7B577, size: 0x8, addend: 0x0, symName: _.str.12, symObjAddr: 0x528C0, symBinAddr: 0x100195B20, symSize: 0x0 }
  - { offsetInCU: 0x205CC, offset: 0x7B588, size: 0x8, addend: 0x0, symName: _.str.13, symObjAddr: 0x528E0, symBinAddr: 0x100195B40, symSize: 0x0 }
  - { offsetInCU: 0x205DD, offset: 0x7B599, size: 0x8, addend: 0x0, symName: _.str.14, symObjAddr: 0x52900, symBinAddr: 0x100195B60, symSize: 0x0 }
  - { offsetInCU: 0x205FA, offset: 0x7B5B6, size: 0x8, addend: 0x0, symName: _.str.15, symObjAddr: 0x52920, symBinAddr: 0x100195B80, symSize: 0x0 }
  - { offsetInCU: 0x20617, offset: 0x7B5D3, size: 0x8, addend: 0x0, symName: _.str.16, symObjAddr: 0x52940, symBinAddr: 0x100195BA0, symSize: 0x0 }
  - { offsetInCU: 0x20628, offset: 0x7B5E4, size: 0x8, addend: 0x0, symName: _.str.17, symObjAddr: 0x52960, symBinAddr: 0x100195BC0, symSize: 0x0 }
  - { offsetInCU: 0x20639, offset: 0x7B5F5, size: 0x8, addend: 0x0, symName: _.str.18, symObjAddr: 0x52980, symBinAddr: 0x100195BE0, symSize: 0x0 }
  - { offsetInCU: 0x2064B, offset: 0x7B607, size: 0x8, addend: 0x0, symName: _.str.19, symObjAddr: 0x529A0, symBinAddr: 0x100195C00, symSize: 0x0 }
  - { offsetInCU: 0x2065E, offset: 0x7B61A, size: 0x8, addend: 0x0, symName: _.str.20, symObjAddr: 0x529C0, symBinAddr: 0x100195C20, symSize: 0x0 }
  - { offsetInCU: 0x20671, offset: 0x7B62D, size: 0x8, addend: 0x0, symName: _.str.21, symObjAddr: 0x529E0, symBinAddr: 0x100195C40, symSize: 0x0 }
  - { offsetInCU: 0x20690, offset: 0x7B64C, size: 0x8, addend: 0x0, symName: _.str.22, symObjAddr: 0x52A00, symBinAddr: 0x100195C60, symSize: 0x0 }
  - { offsetInCU: 0x206A3, offset: 0x7B65F, size: 0x8, addend: 0x0, symName: _.str.23, symObjAddr: 0x52A20, symBinAddr: 0x100195C80, symSize: 0x0 }
  - { offsetInCU: 0x206B6, offset: 0x7B672, size: 0x8, addend: 0x0, symName: _.str.24, symObjAddr: 0x52A40, symBinAddr: 0x100195CA0, symSize: 0x0 }
  - { offsetInCU: 0x206C9, offset: 0x7B685, size: 0x8, addend: 0x0, symName: _.str.25, symObjAddr: 0x52A60, symBinAddr: 0x100195CC0, symSize: 0x0 }
  - { offsetInCU: 0x206E8, offset: 0x7B6A4, size: 0x8, addend: 0x0, symName: _.str.26, symObjAddr: 0x52A80, symBinAddr: 0x100195CE0, symSize: 0x0 }
  - { offsetInCU: 0x206FB, offset: 0x7B6B7, size: 0x8, addend: 0x0, symName: _.str.27, symObjAddr: 0x52AA0, symBinAddr: 0x100195D00, symSize: 0x0 }
  - { offsetInCU: 0x2070E, offset: 0x7B6CA, size: 0x8, addend: 0x0, symName: _.str.28, symObjAddr: 0x52AC0, symBinAddr: 0x100195D20, symSize: 0x0 }
  - { offsetInCU: 0x20721, offset: 0x7B6DD, size: 0x8, addend: 0x0, symName: _.str.29, symObjAddr: 0x52AE0, symBinAddr: 0x100195D40, symSize: 0x0 }
  - { offsetInCU: 0x20740, offset: 0x7B6FC, size: 0x8, addend: 0x0, symName: _.str.30, symObjAddr: 0x52B00, symBinAddr: 0x100195D60, symSize: 0x0 }
  - { offsetInCU: 0x20753, offset: 0x7B70F, size: 0x8, addend: 0x0, symName: _.str.31, symObjAddr: 0x52B20, symBinAddr: 0x100195D80, symSize: 0x0 }
  - { offsetInCU: 0x20772, offset: 0x7B72E, size: 0x8, addend: 0x0, symName: _.str.32, symObjAddr: 0x52B40, symBinAddr: 0x100195DA0, symSize: 0x0 }
  - { offsetInCU: 0x20791, offset: 0x7B74D, size: 0x8, addend: 0x0, symName: _.str.33, symObjAddr: 0x52B80, symBinAddr: 0x100195DE0, symSize: 0x0 }
  - { offsetInCU: 0x207A4, offset: 0x7B760, size: 0x8, addend: 0x0, symName: _.str.34, symObjAddr: 0x52BA0, symBinAddr: 0x100195E00, symSize: 0x0 }
  - { offsetInCU: 0x207B7, offset: 0x7B773, size: 0x8, addend: 0x0, symName: _.str.35, symObjAddr: 0x52BC0, symBinAddr: 0x100195E20, symSize: 0x0 }
  - { offsetInCU: 0x207CA, offset: 0x7B786, size: 0x8, addend: 0x0, symName: _.str.36, symObjAddr: 0x52BE0, symBinAddr: 0x100195E40, symSize: 0x0 }
  - { offsetInCU: 0x207DD, offset: 0x7B799, size: 0x8, addend: 0x0, symName: _.str.37, symObjAddr: 0x52C00, symBinAddr: 0x100195E60, symSize: 0x0 }
  - { offsetInCU: 0x207F0, offset: 0x7B7AC, size: 0x8, addend: 0x0, symName: _.str.38, symObjAddr: 0x52C20, symBinAddr: 0x100195E80, symSize: 0x0 }
  - { offsetInCU: 0x20803, offset: 0x7B7BF, size: 0x8, addend: 0x0, symName: _.str.39, symObjAddr: 0x52C40, symBinAddr: 0x100195EA0, symSize: 0x0 }
  - { offsetInCU: 0x20816, offset: 0x7B7D2, size: 0x8, addend: 0x0, symName: _.str.40, symObjAddr: 0x52C60, symBinAddr: 0x100195EC0, symSize: 0x0 }
  - { offsetInCU: 0x20835, offset: 0x7B7F1, size: 0x8, addend: 0x0, symName: _.str.41, symObjAddr: 0x52CA0, symBinAddr: 0x100195F00, symSize: 0x0 }
  - { offsetInCU: 0x20854, offset: 0x7B810, size: 0x8, addend: 0x0, symName: _.str.42, symObjAddr: 0x52CC0, symBinAddr: 0x100195F20, symSize: 0x0 }
  - { offsetInCU: 0x20867, offset: 0x7B823, size: 0x8, addend: 0x0, symName: _.str.43, symObjAddr: 0x52CE0, symBinAddr: 0x100195F40, symSize: 0x0 }
  - { offsetInCU: 0x2087A, offset: 0x7B836, size: 0x8, addend: 0x0, symName: _.str.44, symObjAddr: 0x52D00, symBinAddr: 0x100195F60, symSize: 0x0 }
  - { offsetInCU: 0x2088D, offset: 0x7B849, size: 0x8, addend: 0x0, symName: _.str.45, symObjAddr: 0x536C0, symBinAddr: 0x1001A37A0, symSize: 0x0 }
  - { offsetInCU: 0x208AC, offset: 0x7B868, size: 0x8, addend: 0x0, symName: _.str.46, symObjAddr: 0x52D20, symBinAddr: 0x100195F80, symSize: 0x0 }
  - { offsetInCU: 0x208CD, offset: 0x7B889, size: 0x8, addend: 0x0, symName: _.str.47, symObjAddr: 0x52F20, symBinAddr: 0x100196180, symSize: 0x0 }
  - { offsetInCU: 0x208EC, offset: 0x7B8A8, size: 0x8, addend: 0x0, symName: _.str.48, symObjAddr: 0x52F80, symBinAddr: 0x1001961E0, symSize: 0x0 }
  - { offsetInCU: 0x2090B, offset: 0x7B8C7, size: 0x8, addend: 0x0, symName: _.str.49, symObjAddr: 0x53000, symBinAddr: 0x100196260, symSize: 0x0 }
  - { offsetInCU: 0x2092A, offset: 0x7B8E6, size: 0x8, addend: 0x0, symName: _.str.50, symObjAddr: 0x53060, symBinAddr: 0x1001962C0, symSize: 0x0 }
  - { offsetInCU: 0x20949, offset: 0x7B905, size: 0x8, addend: 0x0, symName: _.str.51, symObjAddr: 0x530E0, symBinAddr: 0x100196340, symSize: 0x0 }
  - { offsetInCU: 0x20968, offset: 0x7B924, size: 0x8, addend: 0x0, symName: _.str.52, symObjAddr: 0x53160, symBinAddr: 0x1001963C0, symSize: 0x0 }
  - { offsetInCU: 0x20987, offset: 0x7B943, size: 0x8, addend: 0x0, symName: _.str.53, symObjAddr: 0x531E0, symBinAddr: 0x100196440, symSize: 0x0 }
  - { offsetInCU: 0x209A6, offset: 0x7B962, size: 0x8, addend: 0x0, symName: _.str.54, symObjAddr: 0x53260, symBinAddr: 0x1001964C0, symSize: 0x0 }
  - { offsetInCU: 0x209C5, offset: 0x7B981, size: 0x8, addend: 0x0, symName: _.str.55, symObjAddr: 0x532C0, symBinAddr: 0x100196520, symSize: 0x0 }
  - { offsetInCU: 0x209D8, offset: 0x7B994, size: 0x8, addend: 0x0, symName: _.str.56, symObjAddr: 0x53320, symBinAddr: 0x100196580, symSize: 0x0 }
  - { offsetInCU: 0x209F7, offset: 0x7B9B3, size: 0x8, addend: 0x0, symName: _.str.57, symObjAddr: 0x53380, symBinAddr: 0x1001965E0, symSize: 0x0 }
  - { offsetInCU: 0x20A16, offset: 0x7B9D2, size: 0x8, addend: 0x0, symName: _.str.58, symObjAddr: 0x533E0, symBinAddr: 0x100196640, symSize: 0x0 }
  - { offsetInCU: 0x20A39, offset: 0x7B9F5, size: 0x8, addend: 0x0, symName: _observers, symObjAddr: 0x144CC0, symBinAddr: 0x1001F5540, symSize: 0x0 }
  - { offsetInCU: 0x2129E, offset: 0x7C25A, size: 0x8, addend: 0x0, symName: _orderLists, symObjAddr: 0x144D00, symBinAddr: 0x1001F5580, symSize: 0x0 }
  - { offsetInCU: 0x213A0, offset: 0x7C35C, size: 0x8, addend: 0x0, symName: _strategyList, symObjAddr: 0x144D40, symBinAddr: 0x1001F55C0, symSize: 0x0 }
  - { offsetInCU: 0x21515, offset: 0x7C4D1, size: 0x8, addend: 0x0, symName: _srcTerritories, symObjAddr: 0x144D80, symBinAddr: 0x1001F5600, symSize: 0x0 }
  - { offsetInCU: 0x2152C, offset: 0x7C4E8, size: 0x8, addend: 0x0, symName: _deck, symObjAddr: 0x144DC0, symBinAddr: 0x1001F5640, symSize: 0x0 }
  - { offsetInCU: 0x215F2, offset: 0x7C5AE, size: 0x8, addend: 0x0, symName: _.str.64, symObjAddr: 0x53460, symBinAddr: 0x1001966C0, symSize: 0x0 }
  - { offsetInCU: 0x21605, offset: 0x7C5C1, size: 0x8, addend: 0x0, symName: _.str.65, symObjAddr: 0x53480, symBinAddr: 0x1001966E0, symSize: 0x0 }
  - { offsetInCU: 0x21618, offset: 0x7C5D4, size: 0x8, addend: 0x0, symName: _.str.66, symObjAddr: 0x534A0, symBinAddr: 0x100196700, symSize: 0x0 }
  - { offsetInCU: 0x2162B, offset: 0x7C5E7, size: 0x8, addend: 0x0, symName: _.str.67, symObjAddr: 0x534C0, symBinAddr: 0x100196720, symSize: 0x0 }
  - { offsetInCU: 0x2163E, offset: 0x7C5FA, size: 0x8, addend: 0x0, symName: _.str.68, symObjAddr: 0x534E0, symBinAddr: 0x100196740, symSize: 0x0 }
  - { offsetInCU: 0x2165D, offset: 0x7C619, size: 0x8, addend: 0x0, symName: _.str.69, symObjAddr: 0x53520, symBinAddr: 0x100196780, symSize: 0x0 }
  - { offsetInCU: 0x21670, offset: 0x7C62C, size: 0x8, addend: 0x0, symName: _.str.70, symObjAddr: 0x53540, symBinAddr: 0x1001967A0, symSize: 0x0 }
  - { offsetInCU: 0x21683, offset: 0x7C63F, size: 0x8, addend: 0x0, symName: _.str.71, symObjAddr: 0x53580, symBinAddr: 0x1001967E0, symSize: 0x0 }
  - { offsetInCU: 0x21696, offset: 0x7C652, size: 0x8, addend: 0x0, symName: _.str.72, symObjAddr: 0x535A0, symBinAddr: 0x100196800, symSize: 0x0 }
  - { offsetInCU: 0x216A9, offset: 0x7C665, size: 0x8, addend: 0x0, symName: _.str.73, symObjAddr: 0x535C0, symBinAddr: 0x100196820, symSize: 0x0 }
  - { offsetInCU: 0x216BC, offset: 0x7C678, size: 0x8, addend: 0x0, symName: _.str.74, symObjAddr: 0x535E0, symBinAddr: 0x100196840, symSize: 0x0 }
  - { offsetInCU: 0x216CF, offset: 0x7C68B, size: 0x8, addend: 0x0, symName: _.str.75, symObjAddr: 0x53600, symBinAddr: 0x100196860, symSize: 0x0 }
  - { offsetInCU: 0x216E2, offset: 0x7C69E, size: 0x8, addend: 0x0, symName: _.str.76, symObjAddr: 0x53620, symBinAddr: 0x100196880, symSize: 0x0 }
  - { offsetInCU: 0x216F5, offset: 0x7C6B1, size: 0x8, addend: 0x0, symName: _.str.77, symObjAddr: 0x53680, symBinAddr: 0x1001968E0, symSize: 0x0 }
  - { offsetInCU: 0x21708, offset: 0x7C6C4, size: 0x8, addend: 0x0, symName: _.str.78, symObjAddr: 0x536A0, symBinAddr: 0x100196900, symSize: 0x0 }
  - { offsetInCU: 0x21D96, offset: 0x7CD52, size: 0x8, addend: 0x0, symName: __ZNSt3__16vectorIP9TerritoryNS_9allocatorIS2_EEE26__swap_out_circular_bufferERNS_14__split_bufferIS2_RS4_EE, symObjAddr: 0x18F4C, symBinAddr: 0x1000542A8, symSize: 0x56C }
  - { offsetInCU: 0x21DF4, offset: 0x7CDB0, size: 0x8, addend: 0x0, symName: __ZNSt3__16vectorIP6PlayerNS_9allocatorIS2_EEE26__swap_out_circular_bufferERNS_14__split_bufferIS2_RS4_EE, symObjAddr: 0x202CC, symBinAddr: 0x10005B1CC, symSize: 0x56C }
  - { offsetInCU: 0x21EA2, offset: 0x7CE5E, size: 0x8, addend: 0x0, symName: __ZNSt3__16vectorIP11LogObserverNS_9allocatorIS2_EEE26__swap_out_circular_bufferERNS_14__split_bufferIS2_RS4_EE, symObjAddr: 0x38DF8, symBinAddr: 0x10006BF0C, symSize: 0x56C }
  - { offsetInCU: 0x21EFB, offset: 0x7CEB7, size: 0x8, addend: 0x0, symName: __ZNSt3__16vectorIP14PlayerStrategyNS_9allocatorIS2_EEE26__swap_out_circular_bufferERNS_14__split_bufferIS2_RS4_EE, symObjAddr: 0x3F664, symBinAddr: 0x100072778, symSize: 0x56C }
  - { offsetInCU: 0x21FBD, offset: 0x7CF79, size: 0x8, addend: 0x0, symName: __ZNSt3__124uniform_int_distributionIlEclINS_26linear_congruential_engineIjLj48271ELj0ELj2147483647EEEEElRT_RKNS1_10param_typeE, symObjAddr: 0x4A430, symBinAddr: 0x100079794, symSize: 0x3C4 }
  - { offsetInCU: 0x23E8A, offset: 0x7EE46, size: 0x8, addend: 0x0, symName: __ZNSt3__16vectorIP6PlayerNS_9allocatorIS2_EEEC1B8ue170006Ev, symObjAddr: 0x0, symBinAddr: 0x10003E980, symSize: 0x2C }
  - { offsetInCU: 0x23EB4, offset: 0x7EE70, size: 0x8, addend: 0x0, symName: __ZN10GameEngine12mainGameLoopEi, symObjAddr: 0x2C, symBinAddr: 0x10003E9AC, symSize: 0x1098 }
  - { offsetInCU: 0x240D4, offset: 0x7F090, size: 0x8, addend: 0x0, symName: __ZNSt3__16vectorIP6PlayerNS_9allocatorIS2_EEE5beginB8ue170006Ev, symObjAddr: 0x10C4, symBinAddr: 0x10003FA44, symSize: 0x268 }
  - { offsetInCU: 0x240FD, offset: 0x7F0B9, size: 0x8, addend: 0x0, symName: __ZNSt3__16vectorIP6PlayerNS_9allocatorIS2_EEE3endB8ue170006Ev, symObjAddr: 0x132C, symBinAddr: 0x10003FCAC, symSize: 0x26C }
  - { offsetInCU: 0x24126, offset: 0x7F0E2, size: 0x8, addend: 0x0, symName: __ZNKSt3__111__wrap_iterIPP6PlayerEdeB8ue170006Ev, symObjAddr: 0x15CC, symBinAddr: 0x10003FF4C, symSize: 0x60 }
  - { offsetInCU: 0x2414C, offset: 0x7F108, size: 0x8, addend: 0x0, symName: __ZNSt3__111__wrap_iterIPP6PlayerEppB8ue170006Ev, symObjAddr: 0x1918, symBinAddr: 0x10003FFAC, symSize: 0x68 }
  - { offsetInCU: 0x24172, offset: 0x7F12E, size: 0x8, addend: 0x0, symName: __ZNKSt3__16vectorIP6PlayerNS_9allocatorIS2_EEE4sizeB8ue170006Ev, symObjAddr: 0x1980, symBinAddr: 0x100040014, symSize: 0xB0 }
  - { offsetInCU: 0x24198, offset: 0x7F154, size: 0x8, addend: 0x0, symName: __ZN10GameEngine18reinforcementPhaseER6Player, symObjAddr: 0x1B78, symBinAddr: 0x1000400C4, symSize: 0xC1C }
  - { offsetInCU: 0x2431D, offset: 0x7F2D9, size: 0x8, addend: 0x0, symName: __ZN10GameEngine15issueOrderPhaseER6Player, symObjAddr: 0x27E0, symBinAddr: 0x100040CE0, symSize: 0x544 }
  - { offsetInCU: 0x2437C, offset: 0x7F338, size: 0x8, addend: 0x0, symName: __ZN5Tools14waitForSecondsEd, symObjAddr: 0x2D24, symBinAddr: 0x100041224, symSize: 0x2BC }
  - { offsetInCU: 0x243C4, offset: 0x7F380, size: 0x8, addend: 0x0, symName: __ZN10GameEngine18executeOrdersPhaseER6Player, symObjAddr: 0x2FE0, symBinAddr: 0x1000414E0, symSize: 0x3F0 }
  - { offsetInCU: 0x24427, offset: 0x7F3E3, size: 0x8, addend: 0x0, symName: __ZNKSt3__16vectorIP9TerritoryNS_9allocatorIS2_EEE4sizeB8ue170006Ev, symObjAddr: 0x33D0, symBinAddr: 0x1000418D0, symSize: 0xB0 }
  - { offsetInCU: 0x2444D, offset: 0x7F409, size: 0x8, addend: 0x0, symName: __ZNSt3__16vectorIP6PlayerNS_9allocatorIS2_EEE5eraseB8ue170006ENS_11__wrap_iterIPKS2_EE, symObjAddr: 0x3480, symBinAddr: 0x100041980, symSize: 0x3F0 }
  - { offsetInCU: 0x244A9, offset: 0x7F465, size: 0x8, addend: 0x0, symName: __ZNKSt3__111__wrap_iterIPP6PlayerEplB8ue170006El, symObjAddr: 0x3870, symBinAddr: 0x100041D70, symSize: 0x20C }
  - { offsetInCU: 0x244FB, offset: 0x7F4B7, size: 0x8, addend: 0x0, symName: __ZNSt3__111__wrap_iterIPKP6PlayerEC1B8ue170006IPS2_EERKNS0_IT_EEPNS_9enable_ifIXsr14is_convertibleIS8_S4_EE5valueEvE4typeE, symObjAddr: 0x3A7C, symBinAddr: 0x100041F7C, symSize: 0x3C }
  - { offsetInCU: 0x2454C, offset: 0x7F508, size: 0x8, addend: 0x0, symName: __ZNSt3__16vectorIP6PlayerNS_9allocatorIS2_EEEixB8ue170006Em, symObjAddr: 0x3AEC, symBinAddr: 0x100041FB8, symSize: 0x6C }
  - { offsetInCU: 0x24583, offset: 0x7F53F, size: 0x8, addend: 0x0, symName: __ZN10GameEngine16testMainGameLoopEv, symObjAddr: 0x3B58, symBinAddr: 0x100042024, symSize: 0x1AEC }
  - { offsetInCU: 0x248AA, offset: 0x7F866, size: 0x8, addend: 0x0, symName: __ZNSt3__16vectorIP9ContinentNS_9allocatorIS2_EEEixB8ue170006Em, symObjAddr: 0x5644, symBinAddr: 0x100043B10, symSize: 0x6C }
  - { offsetInCU: 0x248E1, offset: 0x7F89D, size: 0x8, addend: 0x0, symName: __ZNSt3__16vectorIP9ContinentNS_9allocatorIS2_EEED1B8ue170006Ev, symObjAddr: 0x56B0, symBinAddr: 0x100043B7C, symSize: 0x2C }
  - { offsetInCU: 0x2490B, offset: 0x7F8C7, size: 0x8, addend: 0x0, symName: __ZNSt3__16vectorIP9TerritoryNS_9allocatorIS2_EEEC1B8ue170006Ev, symObjAddr: 0x56DC, symBinAddr: 0x100043BA8, symSize: 0x2C }
  - { offsetInCU: 0x24935, offset: 0x7F8F1, size: 0x8, addend: 0x0, symName: __ZNSt3__16vectorIP9ContinentNS_9allocatorIS2_EEE5beginB8ue170006Ev, symObjAddr: 0x5708, symBinAddr: 0x100043BD4, symSize: 0x268 }
  - { offsetInCU: 0x2495E, offset: 0x7F91A, size: 0x8, addend: 0x0, symName: __ZNSt3__16vectorIP9ContinentNS_9allocatorIS2_EEE3endB8ue170006Ev, symObjAddr: 0x5970, symBinAddr: 0x100043E3C, symSize: 0x26C }
  - { offsetInCU: 0x24987, offset: 0x7F943, size: 0x8, addend: 0x0, symName: __ZNKSt3__111__wrap_iterIPP9ContinentEdeB8ue170006Ev, symObjAddr: 0x5C10, symBinAddr: 0x1000440DC, symSize: 0x60 }
  - { offsetInCU: 0x249AD, offset: 0x7F969, size: 0x8, addend: 0x0, symName: __ZNSt3__16vectorIP9TerritoryNS_9allocatorIS2_EEE5beginB8ue170006Ev, symObjAddr: 0x5C70, symBinAddr: 0x10004413C, symSize: 0x268 }
  - { offsetInCU: 0x249D6, offset: 0x7F992, size: 0x8, addend: 0x0, symName: __ZNSt3__16vectorIP9TerritoryNS_9allocatorIS2_EEE3endB8ue170006Ev, symObjAddr: 0x5ED8, symBinAddr: 0x1000443A4, symSize: 0x26C }
  - { offsetInCU: 0x249FF, offset: 0x7F9BB, size: 0x8, addend: 0x0, symName: __ZNKSt3__111__wrap_iterIPP9TerritoryEdeB8ue170006Ev, symObjAddr: 0x6178, symBinAddr: 0x100044644, symSize: 0x60 }
  - { offsetInCU: 0x24A25, offset: 0x7F9E1, size: 0x8, addend: 0x0, symName: __ZNSt3__16vectorIP9TerritoryNS_9allocatorIS2_EEE9push_backB8ue170006ERKS2_, symObjAddr: 0x61D8, symBinAddr: 0x1000446A4, symSize: 0xE0 }
  - { offsetInCU: 0x24A5C, offset: 0x7FA18, size: 0x8, addend: 0x0, symName: __ZNSt3__111__wrap_iterIPP9TerritoryEppB8ue170006Ev, symObjAddr: 0x62B8, symBinAddr: 0x100044784, symSize: 0x68 }
  - { offsetInCU: 0x24A82, offset: 0x7FA3E, size: 0x8, addend: 0x0, symName: __ZNSt3__16vectorIP9TerritoryNS_9allocatorIS2_EEED1B8ue170006Ev, symObjAddr: 0x6320, symBinAddr: 0x1000447EC, symSize: 0x2C }
  - { offsetInCU: 0x24AAC, offset: 0x7FA68, size: 0x8, addend: 0x0, symName: __ZNSt3__111__wrap_iterIPP9ContinentEppB8ue170006Ev, symObjAddr: 0x634C, symBinAddr: 0x100044818, symSize: 0x68 }
  - { offsetInCU: 0x24AD2, offset: 0x7FA8E, size: 0x8, addend: 0x0, symName: __ZNSt3__16vectorIP6PlayerNS_9allocatorIS2_EEE9push_backB8ue170006ERKS2_, symObjAddr: 0x63B4, symBinAddr: 0x100044880, symSize: 0xE0 }
  - { offsetInCU: 0x24B09, offset: 0x7FAC5, size: 0x8, addend: 0x0, symName: __ZN10OrdersListD1Ev, symObjAddr: 0x6494, symBinAddr: 0x100044960, symSize: 0x2C }
  - { offsetInCU: 0x24B35, offset: 0x7FAF1, size: 0x8, addend: 0x0, symName: __ZN10GameEngine8setStateENSt3__112basic_stringIcNS0_11char_traitsIcEENS0_9allocatorIcEEEES6_, symObjAddr: 0x66F4, symBinAddr: 0x10004498C, symSize: 0xC10 }
  - { offsetInCU: 0x24BF7, offset: 0x7FBB3, size: 0x8, addend: 0x0, symName: __ZNSt3__16vectorINS_12basic_stringIcNS_11char_traitsIcEENS_9allocatorIcEEEENS4_IS6_EEEaSB8ue170006EOS8_, symObjAddr: 0x7EBC, symBinAddr: 0x10004559C, symSize: 0x34 }
  - { offsetInCU: 0x24C2E, offset: 0x7FBEA, size: 0x8, addend: 0x0, symName: __ZN10GameEngine5startEv, symObjAddr: 0x7F1C, symBinAddr: 0x1000455D0, symSize: 0x66C }
  - { offsetInCU: 0x24CFD, offset: 0x7FCB9, size: 0x8, addend: 0x0, symName: __ZNSt3__16vectorIP6PlayerNS_9allocatorIS2_EEE9push_backB8ue170006EOS2_, symObjAddr: 0x85C8, symBinAddr: 0x100045C3C, symSize: 0xE0 }
  - { offsetInCU: 0x24D34, offset: 0x7FCF0, size: 0x8, addend: 0x0, symName: __ZN10GameEngine9gamestartEv, symObjAddr: 0x86A8, symBinAddr: 0x100045D1C, symSize: 0xB7C }
  - { offsetInCU: 0x24E8B, offset: 0x7FE47, size: 0x8, addend: 0x0, symName: __ZN10GameEngine12startupPhaseEv, symObjAddr: 0x9224, symBinAddr: 0x100046898, symSize: 0x888 }
  - { offsetInCU: 0x24F3F, offset: 0x7FEFB, size: 0x8, addend: 0x0, symName: __ZN10GameEngine11stringToLogEv, symObjAddr: 0x9AAC, symBinAddr: 0x100047120, symSize: 0x948 }
  - { offsetInCU: 0x2502F, offset: 0x7FFEB, size: 0x8, addend: 0x0, symName: __ZN10GameEngine21intStateToStringStateEi, symObjAddr: 0xA478, symBinAddr: 0x100047AAC, symSize: 0x138 }
  - { offsetInCU: 0x25067, offset: 0x80023, size: 0x8, addend: 0x0, symName: __ZNSt3__112basic_stringIcNS_11char_traitsIcEENS_9allocatorIcEEEpLB8ue170006EPKc, symObjAddr: 0xA71C, symBinAddr: 0x100047D50, symSize: 0x2C }
  - { offsetInCU: 0x2509C, offset: 0x80058, size: 0x8, addend: 0x0, symName: __ZNSt3__13mapINS_12basic_stringIcNS_11char_traitsIcEENS_9allocatorIcEEEENS_6vectorIS6_NS4_IS6_EEEENS_4lessIS6_EENS4_INS_4pairIKS6_S9_EEEEE5beginB8ue170006Ev, symObjAddr: 0xA748, symBinAddr: 0x100047D7C, symSize: 0x2B4 }
  - { offsetInCU: 0x250C3, offset: 0x8007F, size: 0x8, addend: 0x0, symName: __ZNSt3__13mapINS_12basic_stringIcNS_11char_traitsIcEENS_9allocatorIcEEEENS_6vectorIS6_NS4_IS6_EEEENS_4lessIS6_EENS4_INS_4pairIKS6_S9_EEEEE3endB8ue170006Ev, symObjAddr: 0xA9FC, symBinAddr: 0x100048030, symSize: 0x2B4 }
  - { offsetInCU: 0x250EA, offset: 0x800A6, size: 0x8, addend: 0x0, symName: __ZNKSt3__114__map_iteratorINS_15__tree_iteratorINS_12__value_typeINS_12basic_stringIcNS_11char_traitsIcEENS_9allocatorIcEEEENS_6vectorIS8_NS6_IS8_EEEEEEPNS_11__tree_nodeISC_PvEElEEEdeB8ue170006Ev, symObjAddr: 0xACE0, symBinAddr: 0x100048314, symSize: 0x28 }
  - { offsetInCU: 0x25110, offset: 0x800CC, size: 0x8, addend: 0x0, symName: __ZNSt3__112basic_stringIcNS_11char_traitsIcEENS_9allocatorIcEEEpLB8ue170006ERKS5_, symObjAddr: 0xAD50, symBinAddr: 0x100048384, symSize: 0x2C }
  - { offsetInCU: 0x25145, offset: 0x80101, size: 0x8, addend: 0x0, symName: __ZNKSt3__16vectorINS_12basic_stringIcNS_11char_traitsIcEENS_9allocatorIcEEEENS4_IS6_EEE5beginB8ue170006Ev, symObjAddr: 0xAD7C, symBinAddr: 0x1000483B0, symSize: 0x268 }
  - { offsetInCU: 0x2516E, offset: 0x8012A, size: 0x8, addend: 0x0, symName: __ZNKSt3__16vectorINS_12basic_stringIcNS_11char_traitsIcEENS_9allocatorIcEEEENS4_IS6_EEE3endB8ue170006Ev, symObjAddr: 0xAFE4, symBinAddr: 0x100048618, symSize: 0x26C }
  - { offsetInCU: 0x25197, offset: 0x80153, size: 0x8, addend: 0x0, symName: __ZNKSt3__111__wrap_iterIPKNS_12basic_stringIcNS_11char_traitsIcEENS_9allocatorIcEEEEEdeB8ue170006Ev, symObjAddr: 0xB284, symBinAddr: 0x1000488B8, symSize: 0x60 }
  - { offsetInCU: 0x251BD, offset: 0x80179, size: 0x8, addend: 0x0, symName: __ZNSt3__111__wrap_iterIPKNS_12basic_stringIcNS_11char_traitsIcEENS_9allocatorIcEEEEEppB8ue170006Ev, symObjAddr: 0xB5CC, symBinAddr: 0x100048C00, symSize: 0x68 }
  - { offsetInCU: 0x251E3, offset: 0x8019F, size: 0x8, addend: 0x0, symName: __ZNSt3__114__map_iteratorINS_15__tree_iteratorINS_12__value_typeINS_12basic_stringIcNS_11char_traitsIcEENS_9allocatorIcEEEENS_6vectorIS8_NS6_IS8_EEEEEEPNS_11__tree_nodeISC_PvEElEEEppB8ue170006Ev, symObjAddr: 0xB634, symBinAddr: 0x100048C68, symSize: 0x2C }
  - { offsetInCU: 0x25209, offset: 0x801C5, size: 0x8, addend: 0x0, symName: __ZThn16_N10GameEngine11stringToLogEv, symObjAddr: 0xB660, symBinAddr: 0x100048C94, symSize: 0x20 }
  - { offsetInCU: 0x25220, offset: 0x801DC, size: 0x8, addend: 0x0, symName: __ZN10GameEngine15displayNextPathEi, symObjAddr: 0xB680, symBinAddr: 0x100048CB4, symSize: 0x194 }
  - { offsetInCU: 0x25258, offset: 0x80214, size: 0x8, addend: 0x0, symName: __ZN10GameEngine17validCommandInputENSt3__112basic_stringIcNS0_11char_traitsIcEENS0_9allocatorIcEEEES6_, symObjAddr: 0xC284, symBinAddr: 0x100048F8C, symSize: 0x81C }
  - { offsetInCU: 0x252CD, offset: 0x80289, size: 0x8, addend: 0x0, symName: __ZNSt3__126linear_congruential_engineIjLj48271ELj0ELj2147483647EEC1B8ue170006Ev, symObjAddr: 0xCBE4, symBinAddr: 0x1000498EC, symSize: 0x30 }
  - { offsetInCU: 0x252F6, offset: 0x802B2, size: 0x8, addend: 0x0, symName: __Z14testGameStatesv, symObjAddr: 0xD43C, symBinAddr: 0x10004A144, symSize: 0x368 }
  - { offsetInCU: 0x25335, offset: 0x802F1, size: 0x8, addend: 0x0, symName: __ZN10GameEngine10getPlayersEv, symObjAddr: 0xD7FC, symBinAddr: 0x10004A4AC, symSize: 0x5C }
  - { offsetInCU: 0x2534C, offset: 0x80308, size: 0x8, addend: 0x0, symName: __ZNSt3__16vectorINS_12basic_stringIcNS_11char_traitsIcEENS_9allocatorIcEEEENS4_IS6_EEE5beginB8ue170006Ev, symObjAddr: 0xD858, symBinAddr: 0x10004A508, symSize: 0x268 }
  - { offsetInCU: 0x25375, offset: 0x80331, size: 0x8, addend: 0x0, symName: __ZNSt3__16vectorINS_12basic_stringIcNS_11char_traitsIcEENS_9allocatorIcEEEENS4_IS6_EEE3endB8ue170006Ev, symObjAddr: 0xDAC0, symBinAddr: 0x10004A770, symSize: 0x26C }
  - { offsetInCU: 0x2539E, offset: 0x8035A, size: 0x8, addend: 0x0, symName: __ZNKSt3__111__wrap_iterIPNS_12basic_stringIcNS_11char_traitsIcEENS_9allocatorIcEEEEEdeB8ue170006Ev, symObjAddr: 0xDD60, symBinAddr: 0x10004AA10, symSize: 0x60 }
  - { offsetInCU: 0x253C4, offset: 0x80380, size: 0x8, addend: 0x0, symName: __ZN10GameEngine8playGameERKNSt3__112basic_stringIcNS0_11char_traitsIcEENS0_9allocatorIcEEEERKNS0_6vectorIS6_NS4_IS6_EEEEi, symObjAddr: 0xDDEC, symBinAddr: 0x10004AA70, symSize: 0x2040 }
  - { offsetInCU: 0x257C4, offset: 0x80780, size: 0x8, addend: 0x0, symName: __ZNSt3__112basic_stringIcNS_11char_traitsIcEENS_9allocatorIcEEEaSB8ue170006EOS5_, symObjAddr: 0xFE2C, symBinAddr: 0x10004CAB0, symSize: 0x34 }
  - { offsetInCU: 0x257F9, offset: 0x807B5, size: 0x8, addend: 0x0, symName: __ZNSt3__13mapINS_12basic_stringIcNS_11char_traitsIcEENS_9allocatorIcEEEENS_6vectorIS6_NS4_IS6_EEEENS_4lessIS6_EENS4_INS_4pairIKS6_S9_EEEEEixERSD_, symObjAddr: 0xFF40, symBinAddr: 0x10004CAE4, symSize: 0x314 }
  - { offsetInCU: 0x25832, offset: 0x807EE, size: 0x8, addend: 0x0, symName: __ZNSt3__16vectorINS_12basic_stringIcNS_11char_traitsIcEENS_9allocatorIcEEEENS4_IS6_EEEaSB8ue170006ERKS8_, symObjAddr: 0x10254, symBinAddr: 0x10004CDF8, symSize: 0xEC }
  - { offsetInCU: 0x25869, offset: 0x80825, size: 0x8, addend: 0x0, symName: __ZNSt3__111__wrap_iterIPNS_12basic_stringIcNS_11char_traitsIcEENS_9allocatorIcEEEEEppB8ue170006Ev, symObjAddr: 0x10340, symBinAddr: 0x10004CEE4, symSize: 0x68 }
  - { offsetInCU: 0x2588F, offset: 0x8084B, size: 0x8, addend: 0x0, symName: __ZNK10GameEngine14displayResultsEv, symObjAddr: 0x103A8, symBinAddr: 0x10004CF4C, symSize: 0x4D0 }
  - { offsetInCU: 0x2598B, offset: 0x80947, size: 0x8, addend: 0x0, symName: __ZNSt3__16vectorIP11LogObserverNS_9allocatorIS2_EEED1B8ue170006Ev, symObjAddr: 0x10878, symBinAddr: 0x10004D41C, symSize: 0x2C }
  - { offsetInCU: 0x259B5, offset: 0x80971, size: 0x8, addend: 0x0, symName: __ZNSt3__16vectorIP10OrdersListNS_9allocatorIS2_EEED1B8ue170006Ev, symObjAddr: 0x108A4, symBinAddr: 0x10004D448, symSize: 0x2C }
  - { offsetInCU: 0x259DF, offset: 0x8099B, size: 0x8, addend: 0x0, symName: __ZNSt3__16vectorIP14PlayerStrategyNS_9allocatorIS2_EEED1B8ue170006Ev, symObjAddr: 0x108D0, symBinAddr: 0x10004D474, symSize: 0x2C }
  - { offsetInCU: 0x25A09, offset: 0x809C5, size: 0x8, addend: 0x0, symName: __ZNSt3__16vectorIP9TerritoryNS_9allocatorIS2_EEE5clearB8ue170006Ev, symObjAddr: 0x109AC, symBinAddr: 0x10004D4A0, symSize: 0x44 }
  - { offsetInCU: 0x25A3E, offset: 0x809FA, size: 0x8, addend: 0x0, symName: __ZNSt3__16vectorIP11LogObserverNS_9allocatorIS2_EEE9push_backB8ue170006ERKS2_, symObjAddr: 0x109F0, symBinAddr: 0x10004D4E4, symSize: 0xE0 }
  - { offsetInCU: 0x25A75, offset: 0x80A31, size: 0x8, addend: 0x0, symName: __ZNSt3__16vectorIP14PlayerStrategyNS_9allocatorIS2_EEE9push_backB8ue170006ERKS2_, symObjAddr: 0x10AD0, symBinAddr: 0x10004D5C4, symSize: 0xE0 }
  - { offsetInCU: 0x25AAC, offset: 0x80A68, size: 0x8, addend: 0x0, symName: __ZNSt3__16vectorIP11LogObserverNS_9allocatorIS2_EEE5beginB8ue170006Ev, symObjAddr: 0x10BB0, symBinAddr: 0x10004D6A4, symSize: 0x268 }
  - { offsetInCU: 0x25AD5, offset: 0x80A91, size: 0x8, addend: 0x0, symName: __ZNSt3__16vectorIP11LogObserverNS_9allocatorIS2_EEE3endB8ue170006Ev, symObjAddr: 0x10E18, symBinAddr: 0x10004D90C, symSize: 0x26C }
  - { offsetInCU: 0x25AFE, offset: 0x80ABA, size: 0x8, addend: 0x0, symName: __ZNKSt3__111__wrap_iterIPP11LogObserverEdeB8ue170006Ev, symObjAddr: 0x110B8, symBinAddr: 0x10004DBAC, symSize: 0x60 }
  - { offsetInCU: 0x25B24, offset: 0x80AE0, size: 0x8, addend: 0x0, symName: __ZNSt3__111__wrap_iterIPP11LogObserverEppB8ue170006Ev, symObjAddr: 0x11118, symBinAddr: 0x10004DC0C, symSize: 0x68 }
  - { offsetInCU: 0x25B4A, offset: 0x80B06, size: 0x8, addend: 0x0, symName: __ZNSt3__16vectorIP11LogObserverNS_9allocatorIS2_EEE5clearB8ue170006Ev, symObjAddr: 0x11180, symBinAddr: 0x10004DC74, symSize: 0x44 }
  - { offsetInCU: 0x25B7F, offset: 0x80B3B, size: 0x8, addend: 0x0, symName: __ZNSt3__16vectorIP6PlayerNS_9allocatorIS2_EEE5clearB8ue170006Ev, symObjAddr: 0x111C4, symBinAddr: 0x10004DCB8, symSize: 0x44 }
  - { offsetInCU: 0x25BB4, offset: 0x80B70, size: 0x8, addend: 0x0, symName: __ZNKSt3__13mapINS_12basic_stringIcNS_11char_traitsIcEENS_9allocatorIcEEEENS_6vectorIS6_NS4_IS6_EEEENS_4lessIS6_EENS4_INS_4pairIKS6_S9_EEEEE5beginB8ue170006Ev, symObjAddr: 0x11208, symBinAddr: 0x10004DCFC, symSize: 0x2B4 }
  - { offsetInCU: 0x25BDB, offset: 0x80B97, size: 0x8, addend: 0x0, symName: __ZNKSt3__13mapINS_12basic_stringIcNS_11char_traitsIcEENS_9allocatorIcEEEENS_6vectorIS6_NS4_IS6_EEEENS_4lessIS6_EENS4_INS_4pairIKS6_S9_EEEEE3endB8ue170006Ev, symObjAddr: 0x114BC, symBinAddr: 0x10004DFB0, symSize: 0x2B4 }
  - { offsetInCU: 0x25C02, offset: 0x80BBE, size: 0x8, addend: 0x0, symName: __ZNKSt3__120__map_const_iteratorINS_21__tree_const_iteratorINS_12__value_typeINS_12basic_stringIcNS_11char_traitsIcEENS_9allocatorIcEEEENS_6vectorIS8_NS6_IS8_EEEEEEPNS_11__tree_nodeISC_PvEElEEEdeB8ue170006Ev, symObjAddr: 0x117A0, symBinAddr: 0x10004E294, symSize: 0x28 }
  - { offsetInCU: 0x25C28, offset: 0x80BE4, size: 0x8, addend: 0x0, symName: __ZNSt3__120__map_const_iteratorINS_21__tree_const_iteratorINS_12__value_typeINS_12basic_stringIcNS_11char_traitsIcEENS_9allocatorIcEEEENS_6vectorIS8_NS6_IS8_EEEEEEPNS_11__tree_nodeISC_PvEElEEEppB8ue170006Ev, symObjAddr: 0x117C8, symBinAddr: 0x10004E2BC, symSize: 0x2C }
  - { offsetInCU: 0x25C4E, offset: 0x80C0A, size: 0x8, addend: 0x0, symName: __ZNSt3__16vectorIP6PlayerNS_9allocatorIS2_EEEC2B8ue170006Ev, symObjAddr: 0x117F4, symBinAddr: 0x10004E2E8, symSize: 0x2E8 }
  - { offsetInCU: 0x25C83, offset: 0x80C3F, size: 0x8, addend: 0x0, symName: __ZNSt3__117__compressed_pairIPP6PlayerNS_9allocatorIS2_EEEC1B8ue170006IDnNS_18__default_init_tagEEEOT_OT0_, symObjAddr: 0x11ADC, symBinAddr: 0x10004E5D0, symSize: 0x3C }
  - { offsetInCU: 0x25CDB, offset: 0x80C97, size: 0x8, addend: 0x0, symName: __ZNSt3__117__compressed_pairIPP6PlayerNS_9allocatorIS2_EEEC2B8ue170006IDnNS_18__default_init_tagEEEOT_OT0_, symObjAddr: 0x11B24, symBinAddr: 0x10004E60C, symSize: 0x40 }
  - { offsetInCU: 0x25D33, offset: 0x80CEF, size: 0x8, addend: 0x0, symName: __ZNSt3__122__compressed_pair_elemIPP6PlayerLi0ELb0EEC2B8ue170006IDnvEEOT_, symObjAddr: 0x11B64, symBinAddr: 0x10004E64C, symSize: 0x64 }
  - { offsetInCU: 0x25D75, offset: 0x80D31, size: 0x8, addend: 0x0, symName: __ZNSt3__122__compressed_pair_elemINS_9allocatorIP6PlayerEELi1ELb1EEC2B8ue170006ENS_18__default_init_tagE, symObjAddr: 0x11BC8, symBinAddr: 0x10004E6B0, symSize: 0x2C }
  - { offsetInCU: 0x25DAA, offset: 0x80D66, size: 0x8, addend: 0x0, symName: __ZNSt3__19allocatorIP6PlayerEC2B8ue170006Ev, symObjAddr: 0x11BF4, symBinAddr: 0x10004E6DC, symSize: 0x2C }
  - { offsetInCU: 0x25DD4, offset: 0x80D90, size: 0x8, addend: 0x0, symName: __ZNSt3__116__non_trivial_ifILb1ENS_9allocatorIP6PlayerEEEC2B8ue170006Ev, symObjAddr: 0x11C20, symBinAddr: 0x10004E708, symSize: 0x14 }
  - { offsetInCU: 0x25DFE, offset: 0x80DBA, size: 0x8, addend: 0x0, symName: __ZNSt3__16vectorIP6PlayerNS_9allocatorIS2_EEE11__make_iterB8ue170006EPS2_, symObjAddr: 0x11C34, symBinAddr: 0x10004E71C, symSize: 0x1FC }
  - { offsetInCU: 0x25E35, offset: 0x80DF1, size: 0x8, addend: 0x0, symName: __ZNSt3__111__wrap_iterIPP6PlayerEC1B8ue170006ES3_, symObjAddr: 0x11E30, symBinAddr: 0x10004E918, symSize: 0x34 }
  - { offsetInCU: 0x25E6D, offset: 0x80E29, size: 0x8, addend: 0x0, symName: __ZNSt3__111__wrap_iterIPP6PlayerEC2B8ue170006ES3_, symObjAddr: 0x11E64, symBinAddr: 0x10004E94C, symSize: 0x70 }
  - { offsetInCU: 0x25EA5, offset: 0x80E61, size: 0x8, addend: 0x0, symName: __ZNKSt3__111__wrap_iterIPP6PlayerE4baseB8ue170006Ev, symObjAddr: 0x11F1C, symBinAddr: 0x10004EA04, symSize: 0x60 }
  - { offsetInCU: 0x25ECB, offset: 0x80E87, size: 0x8, addend: 0x0, symName: __ZNKSt3__16vectorIP6PlayerNS_9allocatorIS2_EEE6cbeginB8ue170006Ev, symObjAddr: 0x13320, symBinAddr: 0x10004EAAC, symSize: 0x234 }
  - { offsetInCU: 0x25EF2, offset: 0x80EAE, size: 0x8, addend: 0x0, symName: __ZNSt3__16vectorIP6PlayerNS_9allocatorIS2_EEE17__destruct_at_endB8ue170006EPS2_, symObjAddr: 0x13554, symBinAddr: 0x10004ECE0, symSize: 0x4C }
  - { offsetInCU: 0x25F36, offset: 0x80EF2, size: 0x8, addend: 0x0, symName: __ZNKSt3__111__wrap_iterIPKP6PlayerE4baseB8ue170006Ev, symObjAddr: 0x1380C, symBinAddr: 0x10004EF98, symSize: 0x60 }
  - { offsetInCU: 0x25F5C, offset: 0x80F18, size: 0x8, addend: 0x0, symName: __ZNKSt3__16vectorIP6PlayerNS_9allocatorIS2_EEE5beginB8ue170006Ev, symObjAddr: 0x1386C, symBinAddr: 0x10004EFF8, symSize: 0x268 }
  - { offsetInCU: 0x25F85, offset: 0x80F41, size: 0x8, addend: 0x0, symName: __ZNKSt3__16vectorIP6PlayerNS_9allocatorIS2_EEE11__make_iterB8ue170006EPKS2_, symObjAddr: 0x13AD4, symBinAddr: 0x10004F260, symSize: 0x1FC }
  - { offsetInCU: 0x25FBC, offset: 0x80F78, size: 0x8, addend: 0x0, symName: __ZNSt3__111__wrap_iterIPKP6PlayerEC1B8ue170006ES4_, symObjAddr: 0x13CD0, symBinAddr: 0x10004F45C, symSize: 0x34 }
  - { offsetInCU: 0x25FF4, offset: 0x80FB0, size: 0x8, addend: 0x0, symName: __ZNSt3__111__wrap_iterIPKP6PlayerEC2B8ue170006ES4_, symObjAddr: 0x13D04, symBinAddr: 0x10004F490, symSize: 0x70 }
  - { offsetInCU: 0x2602C, offset: 0x80FE8, size: 0x8, addend: 0x0, symName: __ZNSt3__16vectorIP6PlayerNS_9allocatorIS2_EEE22__base_destruct_at_endB8ue170006EPS2_, symObjAddr: 0x13D74, symBinAddr: 0x10004F500, symSize: 0x114 }
  - { offsetInCU: 0x26070, offset: 0x8102C, size: 0x8, addend: 0x0, symName: __ZNKSt3__16vectorIP6PlayerNS_9allocatorIS2_EEE17__annotate_shrinkB8ue170006Em, symObjAddr: 0x13E88, symBinAddr: 0x10004F614, symSize: 0xC8 }
  - { offsetInCU: 0x260A5, offset: 0x81061, size: 0x8, addend: 0x0, symName: __ZNSt3__116allocator_traitsINS_9allocatorIP6PlayerEEE7destroyB8ue170006IS3_vvEEvRS4_PT_, symObjAddr: 0x13F50, symBinAddr: 0x10004F6DC, symSize: 0x28 }
  - { offsetInCU: 0x260DF, offset: 0x8109B, size: 0x8, addend: 0x0, symName: __ZNSt3__16vectorIP6PlayerNS_9allocatorIS2_EEE7__allocB8ue170006Ev, symObjAddr: 0x13F78, symBinAddr: 0x10004F704, symSize: 0x28 }
  - { offsetInCU: 0x26105, offset: 0x810C1, size: 0x8, addend: 0x0, symName: __ZNSt3__117__compressed_pairIPP6PlayerNS_9allocatorIS2_EEE6secondB8ue170006Ev, symObjAddr: 0x13FE8, symBinAddr: 0x10004F774, symSize: 0x24 }
  - { offsetInCU: 0x2612B, offset: 0x810E7, size: 0x8, addend: 0x0, symName: __ZNSt3__122__compressed_pair_elemINS_9allocatorIP6PlayerEELi1ELb1EE5__getB8ue170006Ev, symObjAddr: 0x1400C, symBinAddr: 0x10004F798, symSize: 0x14 }
  - { offsetInCU: 0x26151, offset: 0x8110D, size: 0x8, addend: 0x0, symName: __ZNKSt3__16vectorIP6PlayerNS_9allocatorIS2_EEE31__annotate_contiguous_containerEPKvS7_S7_S7_, symObjAddr: 0x14020, symBinAddr: 0x10004F7AC, symSize: 0x58 }
  - { offsetInCU: 0x261B3, offset: 0x8116F, size: 0x8, addend: 0x0, symName: __ZNKSt3__16vectorIP6PlayerNS_9allocatorIS2_EEE4dataB8ue170006Ev, symObjAddr: 0x14078, symBinAddr: 0x10004F804, symSize: 0x64 }
  - { offsetInCU: 0x261D9, offset: 0x81195, size: 0x8, addend: 0x0, symName: __ZNKSt3__16vectorIP6PlayerNS_9allocatorIS2_EEE8capacityB8ue170006Ev, symObjAddr: 0x140DC, symBinAddr: 0x10004F868, symSize: 0xBC }
  - { offsetInCU: 0x261FF, offset: 0x811BB, size: 0x8, addend: 0x0, symName: __ZNKSt3__16vectorIP6PlayerNS_9allocatorIS2_EEE9__end_capB8ue170006Ev, symObjAddr: 0x14198, symBinAddr: 0x10004F924, symSize: 0x28 }
  - { offsetInCU: 0x26225, offset: 0x811E1, size: 0x8, addend: 0x0, symName: __ZNKSt3__117__compressed_pairIPP6PlayerNS_9allocatorIS2_EEE5firstB8ue170006Ev, symObjAddr: 0x141C0, symBinAddr: 0x10004F94C, symSize: 0x24 }
  - { offsetInCU: 0x2624B, offset: 0x81207, size: 0x8, addend: 0x0, symName: __ZNKSt3__122__compressed_pair_elemIPP6PlayerLi0ELb0EE5__getB8ue170006Ev, symObjAddr: 0x141E4, symBinAddr: 0x10004F970, symSize: 0x14 }
  - { offsetInCU: 0x26294, offset: 0x81250, size: 0x8, addend: 0x0, symName: __ZNKSt3__114__move_trivialclB8ue170006IP6PlayerS3_Li0EEENS_4pairIPT_PT0_EES6_S6_S8_, symObjAddr: 0x14E18, symBinAddr: 0x1000505A4, symSize: 0x230 }
  - { offsetInCU: 0x26300, offset: 0x812BC, size: 0x8, addend: 0x0, symName: __ZNSt3__119__unwrap_range_implIPP6PlayerS3_E8__unwrapB8ue170006ES3_S3_, symObjAddr: 0x152EC, symBinAddr: 0x100050A78, symSize: 0x30C }
  - { offsetInCU: 0x26338, offset: 0x812F4, size: 0x8, addend: 0x0, symName: __ZNSt3__14pairIPP6PlayerS3_EC1B8ue170006IS3_S3_LPv0EEEOT_OT0_, symObjAddr: 0x155F8, symBinAddr: 0x100050D84, symSize: 0x3C }
  - { offsetInCU: 0x26396, offset: 0x81352, size: 0x8, addend: 0x0, symName: __ZNSt3__14pairIPP6PlayerS3_EC2B8ue170006IS3_S3_LPv0EEEOT_OT0_, symObjAddr: 0x15634, symBinAddr: 0x100050DC0, symSize: 0x138 }
  - { offsetInCU: 0x263F4, offset: 0x813B0, size: 0x8, addend: 0x0, symName: __ZNSt3__14pairIPP6PlayerS3_EC1B8ue170006IRS3_S3_LPv0EEEOT_OT0_, symObjAddr: 0x15D90, symBinAddr: 0x10005151C, symSize: 0x3C }
  - { offsetInCU: 0x26452, offset: 0x8140E, size: 0x8, addend: 0x0, symName: __ZNSt3__14pairIPP6PlayerS3_EC2B8ue170006IRS3_S3_LPv0EEEOT_OT0_, symObjAddr: 0x15DCC, symBinAddr: 0x100051558, symSize: 0x138 }
  - { offsetInCU: 0x264B0, offset: 0x8146C, size: 0x8, addend: 0x0, symName: __ZNSt3__118__unwrap_iter_implIPP6PlayerLb1EE8__unwrapB8ue170006ES3_, symObjAddr: 0x15F04, symBinAddr: 0x100051690, symSize: 0x24 }
  - { offsetInCU: 0x264D3, offset: 0x8148F, size: 0x8, addend: 0x0, symName: __ZNSt3__119__unwrap_range_implIPP6PlayerS3_E8__rewrapB8ue170006ES3_S3_, symObjAddr: 0x15F28, symBinAddr: 0x1000516B4, symSize: 0x2C }
  - { offsetInCU: 0x26504, offset: 0x814C0, size: 0x8, addend: 0x0, symName: __ZNSt3__118__unwrap_iter_implIPP6PlayerLb1EE8__rewrapB8ue170006ES3_S3_, symObjAddr: 0x15F54, symBinAddr: 0x1000516E0, symSize: 0x50 }
  - { offsetInCU: 0x26535, offset: 0x814F1, size: 0x8, addend: 0x0, symName: __ZNSt3__111__wrap_iterIPP6PlayerEpLB8ue170006El, symObjAddr: 0x15FA4, symBinAddr: 0x100051730, symSize: 0x78 }
  - { offsetInCU: 0x26569, offset: 0x81525, size: 0x8, addend: 0x0, symName: __ZNSt3__111__wrap_iterIPKP6PlayerEC2B8ue170006IPS2_EERKNS0_IT_EEPNS_9enable_ifIXsr14is_convertibleIS8_S4_EE5valueEvE4typeE, symObjAddr: 0x1601C, symBinAddr: 0x1000517A8, symSize: 0x84 }
  - { offsetInCU: 0x265B5, offset: 0x81571, size: 0x8, addend: 0x0, symName: __ZNSt3__16vectorIP9ContinentNS_9allocatorIS2_EEED2B8ue170006Ev, symObjAddr: 0x163A8, symBinAddr: 0x10005182C, symSize: 0x1F8 }
  - { offsetInCU: 0x265E0, offset: 0x8159C, size: 0x8, addend: 0x0, symName: __ZNSt3__16vectorIP9ContinentNS_9allocatorIS2_EEE16__destroy_vectorC1B8ue170006ERS5_, symObjAddr: 0x165A0, symBinAddr: 0x100051A24, symSize: 0x34 }
  - { offsetInCU: 0x26619, offset: 0x815D5, size: 0x8, addend: 0x0, symName: __ZNSt3__16vectorIP9ContinentNS_9allocatorIS2_EEE16__destroy_vectorclB8ue170006Ev, symObjAddr: 0x165D4, symBinAddr: 0x100051A58, symSize: 0x228 }
  - { offsetInCU: 0x2663F, offset: 0x815FB, size: 0x8, addend: 0x0, symName: __ZNSt3__16vectorIP9ContinentNS_9allocatorIS2_EEE16__destroy_vectorC2B8ue170006ERS5_, symObjAddr: 0x167FC, symBinAddr: 0x100051C80, symSize: 0x70 }
  - { offsetInCU: 0x26678, offset: 0x81634, size: 0x8, addend: 0x0, symName: __ZNSt3__16vectorIP9ContinentNS_9allocatorIS2_EEE7__clearB8ue170006Ev, symObjAddr: 0x1686C, symBinAddr: 0x100051CF0, symSize: 0x64 }
  - { offsetInCU: 0x2669E, offset: 0x8165A, size: 0x8, addend: 0x0, symName: __ZNKSt3__16vectorIP9ContinentNS_9allocatorIS2_EEE17__annotate_deleteB8ue170006Ev, symObjAddr: 0x168D0, symBinAddr: 0x100051D54, symSize: 0xCC }
  - { offsetInCU: 0x266C4, offset: 0x81680, size: 0x8, addend: 0x0, symName: __ZNSt3__116allocator_traitsINS_9allocatorIP9ContinentEEE10deallocateB8ue170006ERS4_PS3_m, symObjAddr: 0x1699C, symBinAddr: 0x100051E20, symSize: 0x34 }
  - { offsetInCU: 0x26706, offset: 0x816C2, size: 0x8, addend: 0x0, symName: __ZNSt3__16vectorIP9ContinentNS_9allocatorIS2_EEE7__allocB8ue170006Ev, symObjAddr: 0x169D0, symBinAddr: 0x100051E54, symSize: 0x28 }
  - { offsetInCU: 0x2672C, offset: 0x816E8, size: 0x8, addend: 0x0, symName: __ZNKSt3__16vectorIP9ContinentNS_9allocatorIS2_EEE8capacityB8ue170006Ev, symObjAddr: 0x169F8, symBinAddr: 0x100051E7C, symSize: 0xBC }
  - { offsetInCU: 0x26752, offset: 0x8170E, size: 0x8, addend: 0x0, symName: __ZNSt3__16vectorIP9ContinentNS_9allocatorIS2_EEE22__base_destruct_at_endB8ue170006EPS2_, symObjAddr: 0x16AB4, symBinAddr: 0x100051F38, symSize: 0x114 }
  - { offsetInCU: 0x26796, offset: 0x81752, size: 0x8, addend: 0x0, symName: __ZNSt3__116allocator_traitsINS_9allocatorIP9ContinentEEE7destroyB8ue170006IS3_vvEEvRS4_PT_, symObjAddr: 0x16BC8, symBinAddr: 0x10005204C, symSize: 0x28 }
  - { offsetInCU: 0x267D0, offset: 0x8178C, size: 0x8, addend: 0x0, symName: __ZNKSt3__16vectorIP9ContinentNS_9allocatorIS2_EEE31__annotate_contiguous_containerEPKvS7_S7_S7_, symObjAddr: 0x16C38, symBinAddr: 0x1000520BC, symSize: 0x58 }
  - { offsetInCU: 0x26832, offset: 0x817EE, size: 0x8, addend: 0x0, symName: __ZNKSt3__16vectorIP9ContinentNS_9allocatorIS2_EEE4dataB8ue170006Ev, symObjAddr: 0x16C90, symBinAddr: 0x100052114, symSize: 0x64 }
  - { offsetInCU: 0x26858, offset: 0x81814, size: 0x8, addend: 0x0, symName: __ZNKSt3__16vectorIP9ContinentNS_9allocatorIS2_EEE4sizeB8ue170006Ev, symObjAddr: 0x16CF4, symBinAddr: 0x100052178, symSize: 0xB0 }
  - { offsetInCU: 0x2687E, offset: 0x8183A, size: 0x8, addend: 0x0, symName: __ZNSt3__19allocatorIP9ContinentE10deallocateB8ue170006EPS2_m, symObjAddr: 0x16DA4, symBinAddr: 0x100052228, symSize: 0x4C }
  - { offsetInCU: 0x268C0, offset: 0x8187C, size: 0x8, addend: 0x0, symName: __ZNSt3__117__compressed_pairIPP9ContinentNS_9allocatorIS2_EEE6secondB8ue170006Ev, symObjAddr: 0x16F18, symBinAddr: 0x100052274, symSize: 0x24 }
  - { offsetInCU: 0x268E6, offset: 0x818A2, size: 0x8, addend: 0x0, symName: __ZNSt3__122__compressed_pair_elemINS_9allocatorIP9ContinentEELi1ELb1EE5__getB8ue170006Ev, symObjAddr: 0x16F3C, symBinAddr: 0x100052298, symSize: 0x14 }
  - { offsetInCU: 0x2690C, offset: 0x818C8, size: 0x8, addend: 0x0, symName: __ZNKSt3__16vectorIP9ContinentNS_9allocatorIS2_EEE9__end_capB8ue170006Ev, symObjAddr: 0x16F50, symBinAddr: 0x1000522AC, symSize: 0x28 }
  - { offsetInCU: 0x26932, offset: 0x818EE, size: 0x8, addend: 0x0, symName: __ZNKSt3__117__compressed_pairIPP9ContinentNS_9allocatorIS2_EEE5firstB8ue170006Ev, symObjAddr: 0x16F78, symBinAddr: 0x1000522D4, symSize: 0x24 }
  - { offsetInCU: 0x26958, offset: 0x81914, size: 0x8, addend: 0x0, symName: __ZNKSt3__122__compressed_pair_elemIPP9ContinentLi0ELb0EE5__getB8ue170006Ev, symObjAddr: 0x16F9C, symBinAddr: 0x1000522F8, symSize: 0x14 }
  - { offsetInCU: 0x2697E, offset: 0x8193A, size: 0x8, addend: 0x0, symName: __ZNSt3__16vectorIP9TerritoryNS_9allocatorIS2_EEEC2B8ue170006Ev, symObjAddr: 0x16FB0, symBinAddr: 0x10005230C, symSize: 0x2E8 }
  - { offsetInCU: 0x269A9, offset: 0x81965, size: 0x8, addend: 0x0, symName: __ZNSt3__117__compressed_pairIPP9TerritoryNS_9allocatorIS2_EEEC1B8ue170006IDnNS_18__default_init_tagEEEOT_OT0_, symObjAddr: 0x17298, symBinAddr: 0x1000525F4, symSize: 0x3C }
  - { offsetInCU: 0x26A01, offset: 0x819BD, size: 0x8, addend: 0x0, symName: __ZNSt3__117__compressed_pairIPP9TerritoryNS_9allocatorIS2_EEEC2B8ue170006IDnNS_18__default_init_tagEEEOT_OT0_, symObjAddr: 0x172D4, symBinAddr: 0x100052630, symSize: 0x40 }
  - { offsetInCU: 0x26A59, offset: 0x81A15, size: 0x8, addend: 0x0, symName: __ZNSt3__122__compressed_pair_elemIPP9TerritoryLi0ELb0EEC2B8ue170006IDnvEEOT_, symObjAddr: 0x17314, symBinAddr: 0x100052670, symSize: 0x64 }
  - { offsetInCU: 0x26A9B, offset: 0x81A57, size: 0x8, addend: 0x0, symName: __ZNSt3__122__compressed_pair_elemINS_9allocatorIP9TerritoryEELi1ELb1EEC2B8ue170006ENS_18__default_init_tagE, symObjAddr: 0x17378, symBinAddr: 0x1000526D4, symSize: 0x2C }
  - { offsetInCU: 0x26AD0, offset: 0x81A8C, size: 0x8, addend: 0x0, symName: __ZNSt3__19allocatorIP9TerritoryEC2B8ue170006Ev, symObjAddr: 0x173A4, symBinAddr: 0x100052700, symSize: 0x2C }
  - { offsetInCU: 0x26AFA, offset: 0x81AB6, size: 0x8, addend: 0x0, symName: __ZNSt3__116__non_trivial_ifILb1ENS_9allocatorIP9TerritoryEEEC2B8ue170006Ev, symObjAddr: 0x173D0, symBinAddr: 0x10005272C, symSize: 0x14 }
  - { offsetInCU: 0x26B24, offset: 0x81AE0, size: 0x8, addend: 0x0, symName: __ZNSt3__16vectorIP9ContinentNS_9allocatorIS2_EEE11__make_iterB8ue170006EPS2_, symObjAddr: 0x173E4, symBinAddr: 0x100052740, symSize: 0x1FC }
  - { offsetInCU: 0x26B5B, offset: 0x81B17, size: 0x8, addend: 0x0, symName: __ZNSt3__111__wrap_iterIPP9ContinentEC1B8ue170006ES3_, symObjAddr: 0x175E0, symBinAddr: 0x10005293C, symSize: 0x34 }
  - { offsetInCU: 0x26B93, offset: 0x81B4F, size: 0x8, addend: 0x0, symName: __ZNSt3__111__wrap_iterIPP9ContinentEC2B8ue170006ES3_, symObjAddr: 0x17614, symBinAddr: 0x100052970, symSize: 0x70 }
  - { offsetInCU: 0x26BCB, offset: 0x81B87, size: 0x8, addend: 0x0, symName: __ZNKSt3__111__wrap_iterIPP9ContinentE4baseB8ue170006Ev, symObjAddr: 0x176CC, symBinAddr: 0x100052A28, symSize: 0x60 }
  - { offsetInCU: 0x26BF1, offset: 0x81BAD, size: 0x8, addend: 0x0, symName: __ZNSt3__16vectorIP9TerritoryNS_9allocatorIS2_EEE11__make_iterB8ue170006EPS2_, symObjAddr: 0x1772C, symBinAddr: 0x100052A88, symSize: 0x1FC }
  - { offsetInCU: 0x26C28, offset: 0x81BE4, size: 0x8, addend: 0x0, symName: __ZNSt3__111__wrap_iterIPP9TerritoryEC1B8ue170006ES3_, symObjAddr: 0x17928, symBinAddr: 0x100052C84, symSize: 0x34 }
  - { offsetInCU: 0x26C60, offset: 0x81C1C, size: 0x8, addend: 0x0, symName: __ZNSt3__111__wrap_iterIPP9TerritoryEC2B8ue170006ES3_, symObjAddr: 0x1795C, symBinAddr: 0x100052CB8, symSize: 0x70 }
  - { offsetInCU: 0x26C98, offset: 0x81C54, size: 0x8, addend: 0x0, symName: __ZNKSt3__111__wrap_iterIPP9TerritoryE4baseB8ue170006Ev, symObjAddr: 0x17A14, symBinAddr: 0x100052D70, symSize: 0x60 }
  - { offsetInCU: 0x26CBE, offset: 0x81C7A, size: 0x8, addend: 0x0, symName: __ZNSt3__16vectorIP9TerritoryNS_9allocatorIS2_EEE9__end_capB8ue170006Ev, symObjAddr: 0x17A74, symBinAddr: 0x100052DD0, symSize: 0x28 }
  - { offsetInCU: 0x26CE9, offset: 0x81CA5, size: 0x8, addend: 0x0, symName: __ZNSt3__16vectorIP9TerritoryNS_9allocatorIS2_EEE22__construct_one_at_endB8ue170006IJRKS2_EEEvDpOT_, symObjAddr: 0x17A9C, symBinAddr: 0x100052DF8, symSize: 0x36C }
  - { offsetInCU: 0x26D3E, offset: 0x81CFA, size: 0x8, addend: 0x0, symName: __ZNSt3__16vectorIP9TerritoryNS_9allocatorIS2_EEE21__push_back_slow_pathIRKS2_EEvOT_, symObjAddr: 0x17E08, symBinAddr: 0x100053164, symSize: 0x3C0 }
  - { offsetInCU: 0x26DA3, offset: 0x81D5F, size: 0x8, addend: 0x0, symName: __ZNSt3__117__compressed_pairIPP9TerritoryNS_9allocatorIS2_EEE5firstB8ue170006Ev, symObjAddr: 0x181C8, symBinAddr: 0x100053524, symSize: 0x24 }
  - { offsetInCU: 0x26DC9, offset: 0x81D85, size: 0x8, addend: 0x0, symName: __ZNSt3__122__compressed_pair_elemIPP9TerritoryLi0ELb0EE5__getB8ue170006Ev, symObjAddr: 0x181EC, symBinAddr: 0x100053548, symSize: 0x14 }
  - { offsetInCU: 0x26E08, offset: 0x81DC4, size: 0x8, addend: 0x0, symName: __ZNSt3__16vectorIP9TerritoryNS_9allocatorIS2_EEE21_ConstructTransactionC1B8ue170006ERS5_m, symObjAddr: 0x18200, symBinAddr: 0x10005355C, symSize: 0x3C }
  - { offsetInCU: 0x26E50, offset: 0x81E0C, size: 0x8, addend: 0x0, symName: __ZNSt3__116allocator_traitsINS_9allocatorIP9TerritoryEEE9constructB8ue170006IS3_JRKS3_EvvEEvRS4_PT_DpOT0_, symObjAddr: 0x1823C, symBinAddr: 0x100053598, symSize: 0x30 }
  - { offsetInCU: 0x26EA4, offset: 0x81E60, size: 0x8, addend: 0x0, symName: __ZNSt3__16vectorIP9TerritoryNS_9allocatorIS2_EEE7__allocB8ue170006Ev, symObjAddr: 0x1826C, symBinAddr: 0x1000535C8, symSize: 0x28 }
  - { offsetInCU: 0x26ECA, offset: 0x81E86, size: 0x8, addend: 0x0, symName: __ZNSt3__16vectorIP9TerritoryNS_9allocatorIS2_EEE21_ConstructTransactionD1B8ue170006Ev, symObjAddr: 0x182A8, symBinAddr: 0x100053604, symSize: 0x2C }
  - { offsetInCU: 0x26EF4, offset: 0x81EB0, size: 0x8, addend: 0x0, symName: __ZNSt3__16vectorIP9TerritoryNS_9allocatorIS2_EEE21_ConstructTransactionC2B8ue170006ERS5_m, symObjAddr: 0x182D4, symBinAddr: 0x100053630, symSize: 0x1D0 }
  - { offsetInCU: 0x26F3C, offset: 0x81EF8, size: 0x8, addend: 0x0, symName: __ZNKSt3__16vectorIP9TerritoryNS_9allocatorIS2_EEE19__annotate_increaseB8ue170006Em, symObjAddr: 0x184A4, symBinAddr: 0x100053800, symSize: 0xD8 }
  - { offsetInCU: 0x26F71, offset: 0x81F2D, size: 0x8, addend: 0x0, symName: __ZNKSt3__16vectorIP9TerritoryNS_9allocatorIS2_EEE31__annotate_contiguous_containerEPKvS7_S7_S7_, symObjAddr: 0x1857C, symBinAddr: 0x1000538D8, symSize: 0x58 }
  - { offsetInCU: 0x26FD3, offset: 0x81F8F, size: 0x8, addend: 0x0, symName: __ZNKSt3__16vectorIP9TerritoryNS_9allocatorIS2_EEE4dataB8ue170006Ev, symObjAddr: 0x185D4, symBinAddr: 0x100053930, symSize: 0x64 }
  - { offsetInCU: 0x26FF9, offset: 0x81FB5, size: 0x8, addend: 0x0, symName: __ZNKSt3__16vectorIP9TerritoryNS_9allocatorIS2_EEE8capacityB8ue170006Ev, symObjAddr: 0x18638, symBinAddr: 0x100053994, symSize: 0xBC }
  - { offsetInCU: 0x2701F, offset: 0x81FDB, size: 0x8, addend: 0x0, symName: __ZNKSt3__16vectorIP9TerritoryNS_9allocatorIS2_EEE9__end_capB8ue170006Ev, symObjAddr: 0x186F4, symBinAddr: 0x100053A50, symSize: 0x28 }
  - { offsetInCU: 0x27045, offset: 0x82001, size: 0x8, addend: 0x0, symName: __ZNKSt3__117__compressed_pairIPP9TerritoryNS_9allocatorIS2_EEE5firstB8ue170006Ev, symObjAddr: 0x1871C, symBinAddr: 0x100053A78, symSize: 0x24 }
  - { offsetInCU: 0x2706B, offset: 0x82027, size: 0x8, addend: 0x0, symName: __ZNKSt3__122__compressed_pair_elemIPP9TerritoryLi0ELb0EE5__getB8ue170006Ev, symObjAddr: 0x18740, symBinAddr: 0x100053A9C, symSize: 0x14 }
  - { offsetInCU: 0x27091, offset: 0x8204D, size: 0x8, addend: 0x0, symName: __ZNSt3__117__compressed_pairIPP9TerritoryNS_9allocatorIS2_EEE6secondB8ue170006Ev, symObjAddr: 0x1880C, symBinAddr: 0x100053B68, symSize: 0x24 }
  - { offsetInCU: 0x270B7, offset: 0x82073, size: 0x8, addend: 0x0, symName: __ZNSt3__122__compressed_pair_elemINS_9allocatorIP9TerritoryEELi1ELb1EE5__getB8ue170006Ev, symObjAddr: 0x18830, symBinAddr: 0x100053B8C, symSize: 0x14 }
  - { offsetInCU: 0x270DD, offset: 0x82099, size: 0x8, addend: 0x0, symName: __ZNSt3__16vectorIP9TerritoryNS_9allocatorIS2_EEE21_ConstructTransactionD2B8ue170006Ev, symObjAddr: 0x18844, symBinAddr: 0x100053BA0, symSize: 0x278 }
  - { offsetInCU: 0x27107, offset: 0x820C3, size: 0x8, addend: 0x0, symName: __ZNKSt3__16vectorIP9TerritoryNS_9allocatorIS2_EEE17__annotate_shrinkB8ue170006Em, symObjAddr: 0x18ABC, symBinAddr: 0x100053E18, symSize: 0xC8 }
  - { offsetInCU: 0x2713C, offset: 0x820F8, size: 0x8, addend: 0x0, symName: __ZNKSt3__16vectorIP9TerritoryNS_9allocatorIS2_EEE11__recommendB8ue170006Em, symObjAddr: 0x18B84, symBinAddr: 0x100053EE0, symSize: 0x384 }
  - { offsetInCU: 0x27198, offset: 0x82154, size: 0x8, addend: 0x0, symName: __ZNSt3__114__split_bufferIP9TerritoryRNS_9allocatorIS2_EEEC1EmmS5_, symObjAddr: 0x18F08, symBinAddr: 0x100054264, symSize: 0x44 }
  - { offsetInCU: 0x271EE, offset: 0x821AA, size: 0x8, addend: 0x0, symName: __ZNSt3__114__split_bufferIP9TerritoryRNS_9allocatorIS2_EEED1Ev, symObjAddr: 0x194B8, symBinAddr: 0x100054814, symSize: 0x2C }
  - { offsetInCU: 0x2721A, offset: 0x821D6, size: 0x8, addend: 0x0, symName: __ZNKSt3__16vectorIP9TerritoryNS_9allocatorIS2_EEE8max_sizeEv, symObjAddr: 0x194E4, symBinAddr: 0x100054840, symSize: 0x2FC }
  - { offsetInCU: 0x27243, offset: 0x821FF, size: 0x8, addend: 0x0, symName: __ZNKSt3__16vectorIP9TerritoryNS_9allocatorIS2_EEE20__throw_length_errorB8ue170006Ev, symObjAddr: 0x197E0, symBinAddr: 0x100054B3C, symSize: 0x20 }
  - { offsetInCU: 0x27273, offset: 0x8222F, size: 0x8, addend: 0x0, symName: __ZNSt3__116allocator_traitsINS_9allocatorIP9TerritoryEEE8max_sizeB8ue170006IS4_vvEEmRKS4_, symObjAddr: 0x1982C, symBinAddr: 0x100054B5C, symSize: 0x28 }
  - { offsetInCU: 0x2729E, offset: 0x8225A, size: 0x8, addend: 0x0, symName: __ZNKSt3__16vectorIP9TerritoryNS_9allocatorIS2_EEE7__allocB8ue170006Ev, symObjAddr: 0x19854, symBinAddr: 0x100054B84, symSize: 0x28 }
  - { offsetInCU: 0x272C4, offset: 0x82280, size: 0x8, addend: 0x0, symName: __ZNKSt3__117__compressed_pairIPP9TerritoryNS_9allocatorIS2_EEE6secondB8ue170006Ev, symObjAddr: 0x198AC, symBinAddr: 0x100054BAC, symSize: 0x24 }
  - { offsetInCU: 0x272EA, offset: 0x822A6, size: 0x8, addend: 0x0, symName: __ZNKSt3__122__compressed_pair_elemINS_9allocatorIP9TerritoryEELi1ELb1EE5__getB8ue170006Ev, symObjAddr: 0x198D0, symBinAddr: 0x100054BD0, symSize: 0x14 }
  - { offsetInCU: 0x27310, offset: 0x822CC, size: 0x8, addend: 0x0, symName: __ZNSt3__114__split_bufferIP9TerritoryRNS_9allocatorIS2_EEEC2EmmS5_, symObjAddr: 0x19BFC, symBinAddr: 0x100054BE4, symSize: 0x520 }
  - { offsetInCU: 0x2738B, offset: 0x82347, size: 0x8, addend: 0x0, symName: __ZNSt3__117__compressed_pairIPP9TerritoryRNS_9allocatorIS2_EEEC1B8ue170006IDnS6_EEOT_OT0_, symObjAddr: 0x1A11C, symBinAddr: 0x100055104, symSize: 0x3C }
  - { offsetInCU: 0x273E3, offset: 0x8239F, size: 0x8, addend: 0x0, symName: __ZNSt3__114__split_bufferIP9TerritoryRNS_9allocatorIS2_EEE7__allocB8ue170006Ev, symObjAddr: 0x1A3E4, symBinAddr: 0x1000553CC, symSize: 0x28 }
  - { offsetInCU: 0x27409, offset: 0x823C5, size: 0x8, addend: 0x0, symName: __ZNSt3__114__split_bufferIP9TerritoryRNS_9allocatorIS2_EEE9__end_capB8ue170006Ev, symObjAddr: 0x1A40C, symBinAddr: 0x1000553F4, symSize: 0x28 }
  - { offsetInCU: 0x2742F, offset: 0x823EB, size: 0x8, addend: 0x0, symName: __ZNSt3__117__compressed_pairIPP9TerritoryRNS_9allocatorIS2_EEEC2B8ue170006IDnS6_EEOT_OT0_, symObjAddr: 0x1A434, symBinAddr: 0x10005541C, symSize: 0x48 }
  - { offsetInCU: 0x27487, offset: 0x82443, size: 0x8, addend: 0x0, symName: __ZNSt3__122__compressed_pair_elemIRNS_9allocatorIP9TerritoryEELi1ELb0EEC2B8ue170006IS5_vEEOT_, symObjAddr: 0x1A47C, symBinAddr: 0x100055464, symSize: 0x70 }
  - { offsetInCU: 0x274C9, offset: 0x82485, size: 0x8, addend: 0x0, symName: __ZNSt3__19allocatorIP9TerritoryE8allocateB8ue170006Em, symObjAddr: 0x1A4EC, symBinAddr: 0x1000554D4, symSize: 0x5C }
  - { offsetInCU: 0x274FD, offset: 0x824B9, size: 0x8, addend: 0x0, symName: __ZNSt3__117__compressed_pairIPP9TerritoryRNS_9allocatorIS2_EEE6secondB8ue170006Ev, symObjAddr: 0x1A630, symBinAddr: 0x100055530, symSize: 0x28 }
  - { offsetInCU: 0x27523, offset: 0x824DF, size: 0x8, addend: 0x0, symName: __ZNSt3__122__compressed_pair_elemIRNS_9allocatorIP9TerritoryEELi1ELb0EE5__getB8ue170006Ev, symObjAddr: 0x1A658, symBinAddr: 0x100055558, symSize: 0x60 }
  - { offsetInCU: 0x27549, offset: 0x82505, size: 0x8, addend: 0x0, symName: __ZNSt3__117__compressed_pairIPP9TerritoryRNS_9allocatorIS2_EEE5firstB8ue170006Ev, symObjAddr: 0x1A6B8, symBinAddr: 0x1000555B8, symSize: 0x24 }
  - { offsetInCU: 0x2756F, offset: 0x8252B, size: 0x8, addend: 0x0, symName: __ZNKSt3__16vectorIP9TerritoryNS_9allocatorIS2_EEE17__annotate_deleteB8ue170006Ev, symObjAddr: 0x1A6DC, symBinAddr: 0x1000555DC, symSize: 0xCC }
  - { offsetInCU: 0x27595, offset: 0x82551, size: 0x8, addend: 0x0, symName: __ZNSt3__116reverse_iteratorIPP9TerritoryEC1B8ue170006ES3_, symObjAddr: 0x1AC50, symBinAddr: 0x100055B50, symSize: 0x34 }
  - { offsetInCU: 0x275CD, offset: 0x82589, size: 0x8, addend: 0x0, symName: __ZNKSt3__116reverse_iteratorIPP9TerritoryE4baseB8ue170006Ev, symObjAddr: 0x1AC84, symBinAddr: 0x100055B84, symSize: 0x64 }
  - { offsetInCU: 0x275F3, offset: 0x825AF, size: 0x8, addend: 0x0, symName: __ZNKSt3__16vectorIP9TerritoryNS_9allocatorIS2_EEE14__annotate_newB8ue170006Em, symObjAddr: 0x1AE1C, symBinAddr: 0x100055D1C, symSize: 0xC0 }
  - { offsetInCU: 0x2764B, offset: 0x82607, size: 0x8, addend: 0x0, symName: __ZNKSt3__111__move_loopINS_17_ClassicAlgPolicyEEclB8ue170006INS_16reverse_iteratorIPP9TerritoryEES8_S8_EENS_4pairIT_T1_EESA_T0_SB_, symObjAddr: 0x1C7B0, symBinAddr: 0x1000576B0, symSize: 0x3A8 }
  - { offsetInCU: 0x276C3, offset: 0x8267F, size: 0x8, addend: 0x0, symName: __ZNSt3__119__unwrap_range_implINS_16reverse_iteratorIPP9TerritoryEES5_E8__unwrapB8ue170006ES5_S5_, symObjAddr: 0x1D638, symBinAddr: 0x100058538, symSize: 0x448 }
  - { offsetInCU: 0x27701, offset: 0x826BD, size: 0x8, addend: 0x0, symName: __ZNSt3__14pairINS_16reverse_iteratorIPP9TerritoryEES5_EC1B8ue170006IS5_S5_LPv0EEEOT_OT0_, symObjAddr: 0x1DA80, symBinAddr: 0x100058980, symSize: 0x3C }
  - { offsetInCU: 0x2775F, offset: 0x8271B, size: 0x8, addend: 0x0, symName: __ZNSt3__14pairINS_16reverse_iteratorIPP9TerritoryEES5_EC2B8ue170006IS5_S5_LPv0EEEOT_OT0_, symObjAddr: 0x1DABC, symBinAddr: 0x1000589BC, symSize: 0x54 }
  - { offsetInCU: 0x277C2, offset: 0x8277E, size: 0x8, addend: 0x0, symName: __ZNSt3__18_IterOpsINS_17_ClassicAlgPolicyEE11__iter_moveB8ue170006IRNS_16reverse_iteratorIPP9TerritoryEEEENS_9enable_ifIXsr12is_referenceIDTdeclsr3stdE7declvalIRT_EEEEE5valueEDTclsr3stdE4movedeclsr3stdE7declvalISC_EEEEE4typeEOSB_, symObjAddr: 0x1DB58, symBinAddr: 0x100058A58, symSize: 0x28 }
  - { offsetInCU: 0x277EE, offset: 0x827AA, size: 0x8, addend: 0x0, symName: __ZNKSt3__116reverse_iteratorIPP9TerritoryEdeB8ue170006Ev, symObjAddr: 0x1DB80, symBinAddr: 0x100058A80, symSize: 0x74 }
  - { offsetInCU: 0x27822, offset: 0x827DE, size: 0x8, addend: 0x0, symName: __ZNSt3__116reverse_iteratorIPP9TerritoryEppB8ue170006Ev, symObjAddr: 0x1DBF4, symBinAddr: 0x100058AF4, symSize: 0x6C }
  - { offsetInCU: 0x27848, offset: 0x82804, size: 0x8, addend: 0x0, symName: __ZNSt3__18_IterOpsINS_17_ClassicAlgPolicyEE25__validate_iter_referenceB8ue170006IRNS_16reverse_iteratorIPP9TerritoryEEEEvv, symObjAddr: 0x1DC60, symBinAddr: 0x100058B60, symSize: 0x4 }
  - { offsetInCU: 0x27866, offset: 0x82822, size: 0x8, addend: 0x0, symName: __ZNSt3__118__unwrap_iter_implINS_16reverse_iteratorIPP9TerritoryEELb0EE8__unwrapB8ue170006ES5_, symObjAddr: 0x1DC64, symBinAddr: 0x100058B64, symSize: 0x274 }
  - { offsetInCU: 0x2788D, offset: 0x82849, size: 0x8, addend: 0x0, symName: __ZNSt3__119__unwrap_range_implINS_16reverse_iteratorIPP9TerritoryEES5_E8__rewrapB8ue170006ES5_S5_, symObjAddr: 0x1DED8, symBinAddr: 0x100058DD8, symSize: 0x3D4 }
  - { offsetInCU: 0x278C6, offset: 0x82882, size: 0x8, addend: 0x0, symName: __ZNSt3__118__unwrap_iter_implINS_16reverse_iteratorIPP9TerritoryEELb0EE8__rewrapB8ue170006ES5_S5_, symObjAddr: 0x1E2AC, symBinAddr: 0x1000591AC, symSize: 0x2E0 }
  - { offsetInCU: 0x278FC, offset: 0x828B8, size: 0x8, addend: 0x0, symName: __ZNSt3__116reverse_iteratorIPP9TerritoryEC2B8ue170006ES3_, symObjAddr: 0x1E58C, symBinAddr: 0x10005948C, symSize: 0xB8 }
  - { offsetInCU: 0x27934, offset: 0x828F0, size: 0x8, addend: 0x0, symName: __ZNSt3__114__split_bufferIP9TerritoryRNS_9allocatorIS2_EEED2Ev, symObjAddr: 0x1E644, symBinAddr: 0x100059544, symSize: 0x104 }
  - { offsetInCU: 0x27960, offset: 0x8291C, size: 0x8, addend: 0x0, symName: __ZNSt3__114__split_bufferIP9TerritoryRNS_9allocatorIS2_EEE5clearB8ue170006Ev, symObjAddr: 0x1E748, symBinAddr: 0x100059648, symSize: 0x68 }
  - { offsetInCU: 0x27986, offset: 0x82942, size: 0x8, addend: 0x0, symName: __ZNSt3__116allocator_traitsINS_9allocatorIP9TerritoryEEE10deallocateB8ue170006ERS4_PS3_m, symObjAddr: 0x1E7B0, symBinAddr: 0x1000596B0, symSize: 0x34 }
  - { offsetInCU: 0x279C8, offset: 0x82984, size: 0x8, addend: 0x0, symName: __ZNKSt3__114__split_bufferIP9TerritoryRNS_9allocatorIS2_EEE8capacityB8ue170006Ev, symObjAddr: 0x1E7E4, symBinAddr: 0x1000596E4, symSize: 0xBC }
  - { offsetInCU: 0x279EE, offset: 0x829AA, size: 0x8, addend: 0x0, symName: __ZNSt3__114__split_bufferIP9TerritoryRNS_9allocatorIS2_EEE17__destruct_at_endB8ue170006EPS2_, symObjAddr: 0x1E8A0, symBinAddr: 0x1000597A0, symSize: 0x2C }
  - { offsetInCU: 0x27A22, offset: 0x829DE, size: 0x8, addend: 0x0, symName: __ZNSt3__114__split_bufferIP9TerritoryRNS_9allocatorIS2_EEE17__destruct_at_endB8ue170006EPS2_NS_17integral_constantIbLb0EEE, symObjAddr: 0x1E8CC, symBinAddr: 0x1000597CC, symSize: 0x10C }
  - { offsetInCU: 0x27A63, offset: 0x82A1F, size: 0x8, addend: 0x0, symName: __ZNSt3__116allocator_traitsINS_9allocatorIP9TerritoryEEE7destroyB8ue170006IS3_vvEEvRS4_PT_, symObjAddr: 0x1E9D8, symBinAddr: 0x1000598D8, symSize: 0x28 }
  - { offsetInCU: 0x27A9D, offset: 0x82A59, size: 0x8, addend: 0x0, symName: __ZNSt3__19allocatorIP9TerritoryE10deallocateB8ue170006EPS2_m, symObjAddr: 0x1EA34, symBinAddr: 0x100059934, symSize: 0x4C }
  - { offsetInCU: 0x27ADF, offset: 0x82A9B, size: 0x8, addend: 0x0, symName: __ZNKSt3__114__split_bufferIP9TerritoryRNS_9allocatorIS2_EEE9__end_capB8ue170006Ev, symObjAddr: 0x1EA80, symBinAddr: 0x100059980, symSize: 0x28 }
  - { offsetInCU: 0x27B05, offset: 0x82AC1, size: 0x8, addend: 0x0, symName: __ZNKSt3__117__compressed_pairIPP9TerritoryRNS_9allocatorIS2_EEE5firstB8ue170006Ev, symObjAddr: 0x1EAA8, symBinAddr: 0x1000599A8, symSize: 0x24 }
  - { offsetInCU: 0x27B2B, offset: 0x82AE7, size: 0x8, addend: 0x0, symName: __ZNSt3__16vectorIP9TerritoryNS_9allocatorIS2_EEED2B8ue170006Ev, symObjAddr: 0x1EACC, symBinAddr: 0x1000599CC, symSize: 0x1F8 }
  - { offsetInCU: 0x27B56, offset: 0x82B12, size: 0x8, addend: 0x0, symName: __ZNSt3__16vectorIP9TerritoryNS_9allocatorIS2_EEE16__destroy_vectorC1B8ue170006ERS5_, symObjAddr: 0x1ECC4, symBinAddr: 0x100059BC4, symSize: 0x34 }
  - { offsetInCU: 0x27B8F, offset: 0x82B4B, size: 0x8, addend: 0x0, symName: __ZNSt3__16vectorIP9TerritoryNS_9allocatorIS2_EEE16__destroy_vectorclB8ue170006Ev, symObjAddr: 0x1ECF8, symBinAddr: 0x100059BF8, symSize: 0x228 }
  - { offsetInCU: 0x27BB5, offset: 0x82B71, size: 0x8, addend: 0x0, symName: __ZNSt3__16vectorIP9TerritoryNS_9allocatorIS2_EEE16__destroy_vectorC2B8ue170006ERS5_, symObjAddr: 0x1EF20, symBinAddr: 0x100059E20, symSize: 0x70 }
  - { offsetInCU: 0x27BEE, offset: 0x82BAA, size: 0x8, addend: 0x0, symName: __ZNSt3__16vectorIP9TerritoryNS_9allocatorIS2_EEE7__clearB8ue170006Ev, symObjAddr: 0x1EF90, symBinAddr: 0x100059E90, symSize: 0x64 }
  - { offsetInCU: 0x27C14, offset: 0x82BD0, size: 0x8, addend: 0x0, symName: __ZNSt3__16vectorIP9TerritoryNS_9allocatorIS2_EEE22__base_destruct_at_endB8ue170006EPS2_, symObjAddr: 0x1EFF4, symBinAddr: 0x100059EF4, symSize: 0x114 }
  - { offsetInCU: 0x27C58, offset: 0x82C14, size: 0x8, addend: 0x0, symName: __ZNSt3__16vectorIP6PlayerNS_9allocatorIS2_EEE9__end_capB8ue170006Ev, symObjAddr: 0x1F108, symBinAddr: 0x10005A008, symSize: 0x28 }
  - { offsetInCU: 0x27C7E, offset: 0x82C3A, size: 0x8, addend: 0x0, symName: __ZNSt3__16vectorIP6PlayerNS_9allocatorIS2_EEE22__construct_one_at_endB8ue170006IJRKS2_EEEvDpOT_, symObjAddr: 0x1F130, symBinAddr: 0x10005A030, symSize: 0x36C }
  - { offsetInCU: 0x27CD3, offset: 0x82C8F, size: 0x8, addend: 0x0, symName: __ZNSt3__16vectorIP6PlayerNS_9allocatorIS2_EEE21__push_back_slow_pathIRKS2_EEvOT_, symObjAddr: 0x1F49C, symBinAddr: 0x10005A39C, symSize: 0x3C0 }
  - { offsetInCU: 0x27D38, offset: 0x82CF4, size: 0x8, addend: 0x0, symName: __ZNSt3__117__compressed_pairIPP6PlayerNS_9allocatorIS2_EEE5firstB8ue170006Ev, symObjAddr: 0x1F85C, symBinAddr: 0x10005A75C, symSize: 0x24 }
  - { offsetInCU: 0x27D5E, offset: 0x82D1A, size: 0x8, addend: 0x0, symName: __ZNSt3__122__compressed_pair_elemIPP6PlayerLi0ELb0EE5__getB8ue170006Ev, symObjAddr: 0x1F880, symBinAddr: 0x10005A780, symSize: 0x14 }
  - { offsetInCU: 0x27D9D, offset: 0x82D59, size: 0x8, addend: 0x0, symName: __ZNSt3__16vectorIP6PlayerNS_9allocatorIS2_EEE21_ConstructTransactionC1B8ue170006ERS5_m, symObjAddr: 0x1F894, symBinAddr: 0x10005A794, symSize: 0x3C }
  - { offsetInCU: 0x27DE5, offset: 0x82DA1, size: 0x8, addend: 0x0, symName: __ZNSt3__116allocator_traitsINS_9allocatorIP6PlayerEEE9constructB8ue170006IS3_JRKS3_EvvEEvRS4_PT_DpOT0_, symObjAddr: 0x1F8D0, symBinAddr: 0x10005A7D0, symSize: 0x30 }
  - { offsetInCU: 0x27E39, offset: 0x82DF5, size: 0x8, addend: 0x0, symName: __ZNSt3__16vectorIP6PlayerNS_9allocatorIS2_EEE21_ConstructTransactionD1B8ue170006Ev, symObjAddr: 0x1F900, symBinAddr: 0x10005A800, symSize: 0x2C }
  - { offsetInCU: 0x27E63, offset: 0x82E1F, size: 0x8, addend: 0x0, symName: __ZNSt3__16vectorIP6PlayerNS_9allocatorIS2_EEE21_ConstructTransactionC2B8ue170006ERS5_m, symObjAddr: 0x1F92C, symBinAddr: 0x10005A82C, symSize: 0x1D0 }
  - { offsetInCU: 0x27EAB, offset: 0x82E67, size: 0x8, addend: 0x0, symName: __ZNKSt3__16vectorIP6PlayerNS_9allocatorIS2_EEE19__annotate_increaseB8ue170006Em, symObjAddr: 0x1FAFC, symBinAddr: 0x10005A9FC, symSize: 0xD8 }
  - { offsetInCU: 0x27EE0, offset: 0x82E9C, size: 0x8, addend: 0x0, symName: __ZNSt3__16vectorIP6PlayerNS_9allocatorIS2_EEE21_ConstructTransactionD2B8ue170006Ev, symObjAddr: 0x1FC8C, symBinAddr: 0x10005AB8C, symSize: 0x278 }
  - { offsetInCU: 0x27F0A, offset: 0x82EC6, size: 0x8, addend: 0x0, symName: __ZNKSt3__16vectorIP6PlayerNS_9allocatorIS2_EEE11__recommendB8ue170006Em, symObjAddr: 0x1FF04, symBinAddr: 0x10005AE04, symSize: 0x384 }
  - { offsetInCU: 0x27F66, offset: 0x82F22, size: 0x8, addend: 0x0, symName: __ZNSt3__114__split_bufferIP6PlayerRNS_9allocatorIS2_EEEC1EmmS5_, symObjAddr: 0x20288, symBinAddr: 0x10005B188, symSize: 0x44 }
  - { offsetInCU: 0x27FBC, offset: 0x82F78, size: 0x8, addend: 0x0, symName: __ZNSt3__114__split_bufferIP6PlayerRNS_9allocatorIS2_EEED1Ev, symObjAddr: 0x20838, symBinAddr: 0x10005B738, symSize: 0x2C }
  - { offsetInCU: 0x27FE8, offset: 0x82FA4, size: 0x8, addend: 0x0, symName: __ZNKSt3__16vectorIP6PlayerNS_9allocatorIS2_EEE8max_sizeEv, symObjAddr: 0x20864, symBinAddr: 0x10005B764, symSize: 0x2FC }
  - { offsetInCU: 0x28011, offset: 0x82FCD, size: 0x8, addend: 0x0, symName: __ZNKSt3__16vectorIP6PlayerNS_9allocatorIS2_EEE20__throw_length_errorB8ue170006Ev, symObjAddr: 0x20B60, symBinAddr: 0x10005BA60, symSize: 0x20 }
  - { offsetInCU: 0x28041, offset: 0x82FFD, size: 0x8, addend: 0x0, symName: __ZNSt3__116allocator_traitsINS_9allocatorIP6PlayerEEE8max_sizeB8ue170006IS4_vvEEmRKS4_, symObjAddr: 0x20B80, symBinAddr: 0x10005BA80, symSize: 0x28 }
  - { offsetInCU: 0x2806C, offset: 0x83028, size: 0x8, addend: 0x0, symName: __ZNKSt3__16vectorIP6PlayerNS_9allocatorIS2_EEE7__allocB8ue170006Ev, symObjAddr: 0x20BA8, symBinAddr: 0x10005BAA8, symSize: 0x28 }
  - { offsetInCU: 0x28092, offset: 0x8304E, size: 0x8, addend: 0x0, symName: __ZNKSt3__117__compressed_pairIPP6PlayerNS_9allocatorIS2_EEE6secondB8ue170006Ev, symObjAddr: 0x20BD0, symBinAddr: 0x10005BAD0, symSize: 0x24 }
  - { offsetInCU: 0x280B8, offset: 0x83074, size: 0x8, addend: 0x0, symName: __ZNKSt3__122__compressed_pair_elemINS_9allocatorIP6PlayerEELi1ELb1EE5__getB8ue170006Ev, symObjAddr: 0x20BF4, symBinAddr: 0x10005BAF4, symSize: 0x14 }
  - { offsetInCU: 0x280DE, offset: 0x8309A, size: 0x8, addend: 0x0, symName: __ZNSt3__114__split_bufferIP6PlayerRNS_9allocatorIS2_EEEC2EmmS5_, symObjAddr: 0x20C08, symBinAddr: 0x10005BB08, symSize: 0x520 }
  - { offsetInCU: 0x28159, offset: 0x83115, size: 0x8, addend: 0x0, symName: __ZNSt3__117__compressed_pairIPP6PlayerRNS_9allocatorIS2_EEEC1B8ue170006IDnS6_EEOT_OT0_, symObjAddr: 0x21128, symBinAddr: 0x10005C028, symSize: 0x3C }
  - { offsetInCU: 0x281B1, offset: 0x8316D, size: 0x8, addend: 0x0, symName: __ZNSt3__114__split_bufferIP6PlayerRNS_9allocatorIS2_EEE7__allocB8ue170006Ev, symObjAddr: 0x213F0, symBinAddr: 0x10005C2F0, symSize: 0x28 }
  - { offsetInCU: 0x281D7, offset: 0x83193, size: 0x8, addend: 0x0, symName: __ZNSt3__114__split_bufferIP6PlayerRNS_9allocatorIS2_EEE9__end_capB8ue170006Ev, symObjAddr: 0x21418, symBinAddr: 0x10005C318, symSize: 0x28 }
  - { offsetInCU: 0x281FD, offset: 0x831B9, size: 0x8, addend: 0x0, symName: __ZNSt3__117__compressed_pairIPP6PlayerRNS_9allocatorIS2_EEEC2B8ue170006IDnS6_EEOT_OT0_, symObjAddr: 0x21440, symBinAddr: 0x10005C340, symSize: 0x48 }
  - { offsetInCU: 0x28255, offset: 0x83211, size: 0x8, addend: 0x0, symName: __ZNSt3__122__compressed_pair_elemIRNS_9allocatorIP6PlayerEELi1ELb0EEC2B8ue170006IS5_vEEOT_, symObjAddr: 0x21488, symBinAddr: 0x10005C388, symSize: 0x70 }
  - { offsetInCU: 0x28297, offset: 0x83253, size: 0x8, addend: 0x0, symName: __ZNSt3__19allocatorIP6PlayerE8allocateB8ue170006Em, symObjAddr: 0x214F8, symBinAddr: 0x10005C3F8, symSize: 0x5C }
  - { offsetInCU: 0x282CB, offset: 0x83287, size: 0x8, addend: 0x0, symName: __ZNSt3__117__compressed_pairIPP6PlayerRNS_9allocatorIS2_EEE6secondB8ue170006Ev, symObjAddr: 0x21554, symBinAddr: 0x10005C454, symSize: 0x28 }
  - { offsetInCU: 0x282F1, offset: 0x832AD, size: 0x8, addend: 0x0, symName: __ZNSt3__122__compressed_pair_elemIRNS_9allocatorIP6PlayerEELi1ELb0EE5__getB8ue170006Ev, symObjAddr: 0x2157C, symBinAddr: 0x10005C47C, symSize: 0x60 }
  - { offsetInCU: 0x28317, offset: 0x832D3, size: 0x8, addend: 0x0, symName: __ZNSt3__117__compressed_pairIPP6PlayerRNS_9allocatorIS2_EEE5firstB8ue170006Ev, symObjAddr: 0x215DC, symBinAddr: 0x10005C4DC, symSize: 0x24 }
  - { offsetInCU: 0x2833D, offset: 0x832F9, size: 0x8, addend: 0x0, symName: __ZNKSt3__16vectorIP6PlayerNS_9allocatorIS2_EEE17__annotate_deleteB8ue170006Ev, symObjAddr: 0x21600, symBinAddr: 0x10005C500, symSize: 0xCC }
  - { offsetInCU: 0x28363, offset: 0x8331F, size: 0x8, addend: 0x0, symName: __ZNSt3__116reverse_iteratorIPP6PlayerEC1B8ue170006ES3_, symObjAddr: 0x21B74, symBinAddr: 0x10005CA74, symSize: 0x34 }
  - { offsetInCU: 0x2839B, offset: 0x83357, size: 0x8, addend: 0x0, symName: __ZNKSt3__116reverse_iteratorIPP6PlayerE4baseB8ue170006Ev, symObjAddr: 0x21BA8, symBinAddr: 0x10005CAA8, symSize: 0x64 }
  - { offsetInCU: 0x283C1, offset: 0x8337D, size: 0x8, addend: 0x0, symName: __ZNKSt3__16vectorIP6PlayerNS_9allocatorIS2_EEE14__annotate_newB8ue170006Em, symObjAddr: 0x21D40, symBinAddr: 0x10005CC40, symSize: 0xC0 }
  - { offsetInCU: 0x2840F, offset: 0x833CB, size: 0x8, addend: 0x0, symName: __ZNKSt3__111__move_loopINS_17_ClassicAlgPolicyEEclB8ue170006INS_16reverse_iteratorIPP6PlayerEES8_S8_EENS_4pairIT_T1_EESA_T0_SB_, symObjAddr: 0x236D4, symBinAddr: 0x10005E5D4, symSize: 0x3A8 }
  - { offsetInCU: 0x28487, offset: 0x83443, size: 0x8, addend: 0x0, symName: __ZNSt3__119__unwrap_range_implINS_16reverse_iteratorIPP6PlayerEES5_E8__unwrapB8ue170006ES5_S5_, symObjAddr: 0x2455C, symBinAddr: 0x10005F45C, symSize: 0x448 }
  - { offsetInCU: 0x284C5, offset: 0x83481, size: 0x8, addend: 0x0, symName: __ZNSt3__14pairINS_16reverse_iteratorIPP6PlayerEES5_EC1B8ue170006IS5_S5_LPv0EEEOT_OT0_, symObjAddr: 0x249A4, symBinAddr: 0x10005F8A4, symSize: 0x3C }
  - { offsetInCU: 0x28523, offset: 0x834DF, size: 0x8, addend: 0x0, symName: __ZNSt3__14pairINS_16reverse_iteratorIPP6PlayerEES5_EC2B8ue170006IS5_S5_LPv0EEEOT_OT0_, symObjAddr: 0x249E0, symBinAddr: 0x10005F8E0, symSize: 0x54 }
  - { offsetInCU: 0x28586, offset: 0x83542, size: 0x8, addend: 0x0, symName: __ZNSt3__18_IterOpsINS_17_ClassicAlgPolicyEE11__iter_moveB8ue170006IRNS_16reverse_iteratorIPP6PlayerEEEENS_9enable_ifIXsr12is_referenceIDTdeclsr3stdE7declvalIRT_EEEEE5valueEDTclsr3stdE4movedeclsr3stdE7declvalISC_EEEEE4typeEOSB_, symObjAddr: 0x24A7C, symBinAddr: 0x10005F97C, symSize: 0x28 }
  - { offsetInCU: 0x285B2, offset: 0x8356E, size: 0x8, addend: 0x0, symName: __ZNKSt3__116reverse_iteratorIPP6PlayerEdeB8ue170006Ev, symObjAddr: 0x24AA4, symBinAddr: 0x10005F9A4, symSize: 0x74 }
  - { offsetInCU: 0x285E6, offset: 0x835A2, size: 0x8, addend: 0x0, symName: __ZNSt3__116reverse_iteratorIPP6PlayerEppB8ue170006Ev, symObjAddr: 0x24B18, symBinAddr: 0x10005FA18, symSize: 0x6C }
  - { offsetInCU: 0x2860C, offset: 0x835C8, size: 0x8, addend: 0x0, symName: __ZNSt3__18_IterOpsINS_17_ClassicAlgPolicyEE25__validate_iter_referenceB8ue170006IRNS_16reverse_iteratorIPP6PlayerEEEEvv, symObjAddr: 0x24B84, symBinAddr: 0x10005FA84, symSize: 0x4 }
  - { offsetInCU: 0x2862A, offset: 0x835E6, size: 0x8, addend: 0x0, symName: __ZNSt3__118__unwrap_iter_implINS_16reverse_iteratorIPP6PlayerEELb0EE8__unwrapB8ue170006ES5_, symObjAddr: 0x24B88, symBinAddr: 0x10005FA88, symSize: 0x274 }
  - { offsetInCU: 0x28651, offset: 0x8360D, size: 0x8, addend: 0x0, symName: __ZNSt3__119__unwrap_range_implINS_16reverse_iteratorIPP6PlayerEES5_E8__rewrapB8ue170006ES5_S5_, symObjAddr: 0x24DFC, symBinAddr: 0x10005FCFC, symSize: 0x3D4 }
  - { offsetInCU: 0x2868A, offset: 0x83646, size: 0x8, addend: 0x0, symName: __ZNSt3__118__unwrap_iter_implINS_16reverse_iteratorIPP6PlayerEELb0EE8__rewrapB8ue170006ES5_S5_, symObjAddr: 0x251D0, symBinAddr: 0x1000600D0, symSize: 0x2E0 }
  - { offsetInCU: 0x286C0, offset: 0x8367C, size: 0x8, addend: 0x0, symName: __ZNSt3__116reverse_iteratorIPP6PlayerEC2B8ue170006ES3_, symObjAddr: 0x254B0, symBinAddr: 0x1000603B0, symSize: 0xB8 }
  - { offsetInCU: 0x286F8, offset: 0x836B4, size: 0x8, addend: 0x0, symName: __ZNSt3__114__split_bufferIP6PlayerRNS_9allocatorIS2_EEED2Ev, symObjAddr: 0x25568, symBinAddr: 0x100060468, symSize: 0x104 }
  - { offsetInCU: 0x28724, offset: 0x836E0, size: 0x8, addend: 0x0, symName: __ZNSt3__114__split_bufferIP6PlayerRNS_9allocatorIS2_EEE5clearB8ue170006Ev, symObjAddr: 0x2566C, symBinAddr: 0x10006056C, symSize: 0x68 }
  - { offsetInCU: 0x2874A, offset: 0x83706, size: 0x8, addend: 0x0, symName: __ZNSt3__116allocator_traitsINS_9allocatorIP6PlayerEEE10deallocateB8ue170006ERS4_PS3_m, symObjAddr: 0x256D4, symBinAddr: 0x1000605D4, symSize: 0x34 }
  - { offsetInCU: 0x2878C, offset: 0x83748, size: 0x8, addend: 0x0, symName: __ZNKSt3__114__split_bufferIP6PlayerRNS_9allocatorIS2_EEE8capacityB8ue170006Ev, symObjAddr: 0x25708, symBinAddr: 0x100060608, symSize: 0xBC }
  - { offsetInCU: 0x287B2, offset: 0x8376E, size: 0x8, addend: 0x0, symName: __ZNSt3__114__split_bufferIP6PlayerRNS_9allocatorIS2_EEE17__destruct_at_endB8ue170006EPS2_, symObjAddr: 0x257C4, symBinAddr: 0x1000606C4, symSize: 0x2C }
  - { offsetInCU: 0x287E6, offset: 0x837A2, size: 0x8, addend: 0x0, symName: __ZNSt3__114__split_bufferIP6PlayerRNS_9allocatorIS2_EEE17__destruct_at_endB8ue170006EPS2_NS_17integral_constantIbLb0EEE, symObjAddr: 0x257F0, symBinAddr: 0x1000606F0, symSize: 0x10C }
  - { offsetInCU: 0x28827, offset: 0x837E3, size: 0x8, addend: 0x0, symName: __ZNSt3__19allocatorIP6PlayerE10deallocateB8ue170006EPS2_m, symObjAddr: 0x258FC, symBinAddr: 0x1000607FC, symSize: 0x4C }
  - { offsetInCU: 0x28869, offset: 0x83825, size: 0x8, addend: 0x0, symName: __ZNKSt3__114__split_bufferIP6PlayerRNS_9allocatorIS2_EEE9__end_capB8ue170006Ev, symObjAddr: 0x25948, symBinAddr: 0x100060848, symSize: 0x28 }
  - { offsetInCU: 0x2888F, offset: 0x8384B, size: 0x8, addend: 0x0, symName: __ZNKSt3__117__compressed_pairIPP6PlayerRNS_9allocatorIS2_EEE5firstB8ue170006Ev, symObjAddr: 0x25970, symBinAddr: 0x100060870, symSize: 0x24 }
  - { offsetInCU: 0x288B5, offset: 0x83871, size: 0x8, addend: 0x0, symName: __ZN10OrdersListD2Ev, symObjAddr: 0x25994, symBinAddr: 0x100060894, symSize: 0x38 }
  - { offsetInCU: 0x288E1, offset: 0x8389D, size: 0x8, addend: 0x0, symName: __ZNSt3__16vectorINS_12basic_stringIcNS_11char_traitsIcEENS_9allocatorIcEEEENS4_IS6_EEE13__move_assignERS8_NS_17integral_constantIbLb1EEE, symObjAddr: 0x25E3C, symBinAddr: 0x1000608CC, symSize: 0x28C }
  - { offsetInCU: 0x28923, offset: 0x838DF, size: 0x8, addend: 0x0, symName: __ZNSt3__16vectorINS_12basic_stringIcNS_11char_traitsIcEENS_9allocatorIcEEEENS4_IS6_EEE13__vdeallocateEv, symObjAddr: 0x260C8, symBinAddr: 0x100060B58, symSize: 0x194 }
  - { offsetInCU: 0x2894B, offset: 0x83907, size: 0x8, addend: 0x0, symName: __ZNSt3__16vectorINS_12basic_stringIcNS_11char_traitsIcEENS_9allocatorIcEEEENS4_IS6_EEE19__move_assign_allocB8ue170006ERS8_, symObjAddr: 0x2625C, symBinAddr: 0x100060CEC, symSize: 0x2C }
  - { offsetInCU: 0x28980, offset: 0x8393C, size: 0x8, addend: 0x0, symName: __ZNSt3__16vectorINS_12basic_stringIcNS_11char_traitsIcEENS_9allocatorIcEEEENS4_IS6_EEE5clearB8ue170006Ev, symObjAddr: 0x262B0, symBinAddr: 0x100060D18, symSize: 0x44 }
  - { offsetInCU: 0x289B5, offset: 0x83971, size: 0x8, addend: 0x0, symName: __ZNSt3__16vectorINS_12basic_stringIcNS_11char_traitsIcEENS_9allocatorIcEEEENS4_IS6_EEE19__move_assign_allocB8ue170006ERS8_NS_17integral_constantIbLb1EEE, symObjAddr: 0x26978, symBinAddr: 0x100060D5C, symSize: 0x38 }
  - { offsetInCU: 0x289FA, offset: 0x839B6, size: 0x8, addend: 0x0, symName: __ZNSt3__16vectorIP6PlayerNS_9allocatorIS2_EEE22__construct_one_at_endB8ue170006IJS2_EEEvDpOT_, symObjAddr: 0x271A8, symBinAddr: 0x100060D94, symSize: 0x36C }
  - { offsetInCU: 0x28A4F, offset: 0x83A0B, size: 0x8, addend: 0x0, symName: __ZNSt3__16vectorIP6PlayerNS_9allocatorIS2_EEE21__push_back_slow_pathIS2_EEvOT_, symObjAddr: 0x27514, symBinAddr: 0x100061100, symSize: 0x3C0 }
  - { offsetInCU: 0x28AB4, offset: 0x83A70, size: 0x8, addend: 0x0, symName: __ZNSt3__116allocator_traitsINS_9allocatorIP6PlayerEEE9constructB8ue170006IS3_JS3_EvvEEvRS4_PT_DpOT0_, symObjAddr: 0x278D4, symBinAddr: 0x1000614C0, symSize: 0x30 }
  - { offsetInCU: 0x28B08, offset: 0x83AC4, size: 0x8, addend: 0x0, symName: __ZNSt3__110__get_pairILm0EE3getB8ue170006IKNS_12basic_stringIcNS_11char_traitsIcEENS_9allocatorIcEEEENS_6vectorIS8_NS6_IS8_EEEEEERKT_RKNS_4pairISD_T0_EE, symObjAddr: 0x27A30, symBinAddr: 0x1000615A8, symSize: 0x14 }
  - { offsetInCU: 0x28B3E, offset: 0x83AFA, size: 0x8, addend: 0x0, symName: __ZNSt3__110__get_pairILm1EE3getB8ue170006IKNS_12basic_stringIcNS_11char_traitsIcEENS_9allocatorIcEEEENS_6vectorIS8_NS6_IS8_EEEEEERKT0_RKNS_4pairIT_SD_EE, symObjAddr: 0x27A44, symBinAddr: 0x1000615BC, symSize: 0x18 }
  - { offsetInCU: 0x28B74, offset: 0x83B30, size: 0x8, addend: 0x0, symName: __ZNSt3__112basic_stringIcNS_11char_traitsIcEENS_9allocatorIcEEE6appendB8ue170006ERKS5_, symObjAddr: 0x27A5C, symBinAddr: 0x1000615D4, symSize: 0x4C }
  - { offsetInCU: 0x28BA9, offset: 0x83B65, size: 0x8, addend: 0x0, symName: __ZNKSt3__16vectorINS_12basic_stringIcNS_11char_traitsIcEENS_9allocatorIcEEEENS4_IS6_EEE11__make_iterB8ue170006EPKS6_, symObjAddr: 0x27AA8, symBinAddr: 0x100061620, symSize: 0x1FC }
  - { offsetInCU: 0x28BE0, offset: 0x83B9C, size: 0x8, addend: 0x0, symName: __ZNSt3__111__wrap_iterIPKNS_12basic_stringIcNS_11char_traitsIcEENS_9allocatorIcEEEEEC1B8ue170006ES8_, symObjAddr: 0x27CA4, symBinAddr: 0x10006181C, symSize: 0x34 }
  - { offsetInCU: 0x28C18, offset: 0x83BD4, size: 0x8, addend: 0x0, symName: __ZNSt3__111__wrap_iterIPKNS_12basic_stringIcNS_11char_traitsIcEENS_9allocatorIcEEEEEC2B8ue170006ES8_, symObjAddr: 0x27CD8, symBinAddr: 0x100061850, symSize: 0x70 }
  - { offsetInCU: 0x28C50, offset: 0x83C0C, size: 0x8, addend: 0x0, symName: __ZNKSt3__111__wrap_iterIPKNS_12basic_stringIcNS_11char_traitsIcEENS_9allocatorIcEEEEE4baseB8ue170006Ev, symObjAddr: 0x27D90, symBinAddr: 0x100061908, symSize: 0x60 }
  - { offsetInCU: 0x28C80, offset: 0x83C3C, size: 0x8, addend: 0x0, symName: __ZNSt3__116allocator_traitsINS_9allocatorIcEEE37select_on_container_copy_constructionB8ue170006IS2_vvEES2_RKS2_, symObjAddr: 0x27DF0, symBinAddr: 0x100061968, symSize: 0x10 }
  - { offsetInCU: 0x28CAF, offset: 0x83C6B, size: 0x8, addend: 0x0, symName: __ZNSt3__112basic_stringIcNS_11char_traitsIcEENS_9allocatorIcEEEC1B8ue170006ENS_24__uninitialized_size_tagEmRKS4_, symObjAddr: 0x27E24, symBinAddr: 0x100061978, symSize: 0x3C }
  - { offsetInCU: 0x28D02, offset: 0x83CBE, size: 0x8, addend: 0x0, symName: __ZNSt3__111char_traitsIcE4copyB8ue170006EPcPKcm, symObjAddr: 0x27EC8, symBinAddr: 0x1000619B4, symSize: 0x4C }
  - { offsetInCU: 0x28D41, offset: 0x83CFD, size: 0x8, addend: 0x0, symName: __ZNSt3__111char_traitsIcE6assignB8ue170006EPcmc, symObjAddr: 0x27F14, symBinAddr: 0x100061A00, symSize: 0x23C }
  - { offsetInCU: 0x28D86, offset: 0x83D42, size: 0x8, addend: 0x0, symName: __ZNSt3__112basic_stringIcNS_11char_traitsIcEENS_9allocatorIcEEEC2B8ue170006ENS_24__uninitialized_size_tagEmRKS4_, symObjAddr: 0x281AC, symBinAddr: 0x100061C3C, symSize: 0x324 }
  - { offsetInCU: 0x28E0B, offset: 0x83DC7, size: 0x8, addend: 0x0, symName: __ZNKSt3__112basic_stringIcNS_11char_traitsIcEENS_9allocatorIcEEE20__throw_length_errorB8ue170006Ev, symObjAddr: 0x285C8, symBinAddr: 0x100061F60, symSize: 0x20 }
  - { offsetInCU: 0x28E31, offset: 0x83DED, size: 0x8, addend: 0x0, symName: __ZNSt3__112basic_stringIcNS_11char_traitsIcEENS_9allocatorIcEEE13__fits_in_ssoB8ue170006Em, symObjAddr: 0x285E8, symBinAddr: 0x100061F80, symSize: 0x20 }
  - { offsetInCU: 0x28E55, offset: 0x83E11, size: 0x8, addend: 0x0, symName: __ZNSt3__112basic_stringIcNS_11char_traitsIcEENS_9allocatorIcEEE11__recommendB8ue170006Em, symObjAddr: 0x28738, symBinAddr: 0x100061FA0, symSize: 0x84 }
  - { offsetInCU: 0x28E88, offset: 0x83E44, size: 0x8, addend: 0x0, symName: __ZNSt3__116allocator_traitsINS_9allocatorIcEEE8allocateB8ue170006ERS2_m, symObjAddr: 0x287BC, symBinAddr: 0x100062024, symSize: 0x2C }
  - { offsetInCU: 0x28EBB, offset: 0x83E77, size: 0x8, addend: 0x0, symName: __ZNSt3__112basic_stringIcNS_11char_traitsIcEENS_9allocatorIcEEE7__allocB8ue170006Ev, symObjAddr: 0x287E8, symBinAddr: 0x100062050, symSize: 0x24 }
  - { offsetInCU: 0x28EE1, offset: 0x83E9D, size: 0x8, addend: 0x0, symName: __ZNSt3__112basic_stringIcNS_11char_traitsIcEENS_9allocatorIcEEE16__begin_lifetimeB8ue170006EPcm, symObjAddr: 0x2880C, symBinAddr: 0x100062074, symSize: 0x14 }
  - { offsetInCU: 0x28F14, offset: 0x83ED0, size: 0x8, addend: 0x0, symName: __ZNSt3__112basic_stringIcNS_11char_traitsIcEENS_9allocatorIcEEE14__set_long_capB8ue170006Em, symObjAddr: 0x28820, symBinAddr: 0x100062088, symSize: 0xEC }
  - { offsetInCU: 0x28F49, offset: 0x83F05, size: 0x8, addend: 0x0, symName: __ZNSt3__112basic_stringIcNS_11char_traitsIcEENS_9allocatorIcEEE18__set_long_pointerB8ue170006EPc, symObjAddr: 0x2890C, symBinAddr: 0x100062174, symSize: 0x7C }
  - { offsetInCU: 0x28F7E, offset: 0x83F3A, size: 0x8, addend: 0x0, symName: __ZNSt3__112basic_stringIcNS_11char_traitsIcEENS_9allocatorIcEEE10__align_itB8ue170006ILm16EEEmm, symObjAddr: 0x28A88, symBinAddr: 0x1000621F0, symSize: 0x1C }
  - { offsetInCU: 0x28FAC, offset: 0x83F68, size: 0x8, addend: 0x0, symName: __ZNSt3__19allocatorIcE8allocateB8ue170006Em, symObjAddr: 0x28AA4, symBinAddr: 0x10006220C, symSize: 0x5C }
  - { offsetInCU: 0x28FE0, offset: 0x83F9C, size: 0x8, addend: 0x0, symName: __ZNSt3__117__compressed_pairINS_12basic_stringIcNS_11char_traitsIcEENS_9allocatorIcEEE5__repES5_E6secondB8ue170006Ev, symObjAddr: 0x28B00, symBinAddr: 0x100062268, symSize: 0x24 }
  - { offsetInCU: 0x29006, offset: 0x83FC2, size: 0x8, addend: 0x0, symName: __ZNSt3__122__compressed_pair_elemINS_9allocatorIcEELi1ELb1EE5__getB8ue170006Ev, symObjAddr: 0x28B24, symBinAddr: 0x10006228C, symSize: 0x14 }
  - { offsetInCU: 0x2904F, offset: 0x8400B, size: 0x8, addend: 0x0, symName: __ZNKSt3__114__copy_trivialclB8ue170006IKccLi0EEENS_4pairIPT_PT0_EES5_S5_S7_, symObjAddr: 0x29AB0, symBinAddr: 0x100063170, symSize: 0x230 }
  - { offsetInCU: 0x290D4, offset: 0x84090, size: 0x8, addend: 0x0, symName: __ZNSt3__119__unwrap_range_implIPKcS2_E8__unwrapB8ue170006ES2_S2_, symObjAddr: 0x29F84, symBinAddr: 0x100063644, symSize: 0x30C }
  - { offsetInCU: 0x2910C, offset: 0x840C8, size: 0x8, addend: 0x0, symName: __ZNSt3__14pairIPKcS2_EC1B8ue170006IS2_S2_LPv0EEEOT_OT0_, symObjAddr: 0x2A2B4, symBinAddr: 0x100063974, symSize: 0x3C }
  - { offsetInCU: 0x2916A, offset: 0x84126, size: 0x8, addend: 0x0, symName: __ZNSt3__118__unwrap_iter_implIPKcLb1EE8__unwrapB8ue170006ES2_, symObjAddr: 0x2A2F0, symBinAddr: 0x1000639B0, symSize: 0x24 }
  - { offsetInCU: 0x2918D, offset: 0x84149, size: 0x8, addend: 0x0, symName: __ZNSt3__14pairIPKcS2_EC2B8ue170006IS2_S2_LPv0EEEOT_OT0_, symObjAddr: 0x2A314, symBinAddr: 0x1000639D4, symSize: 0x138 }
  - { offsetInCU: 0x291F5, offset: 0x841B1, size: 0x8, addend: 0x0, symName: __ZNSt3__14pairIPKcPcEC1B8ue170006IRS2_S3_LPv0EEEOT_OT0_, symObjAddr: 0x2AA68, symBinAddr: 0x100064128, symSize: 0x3C }
  - { offsetInCU: 0x29253, offset: 0x8420F, size: 0x8, addend: 0x0, symName: __ZNSt3__14pairIPKcPcEC2B8ue170006IRS2_S3_LPv0EEEOT_OT0_, symObjAddr: 0x2AAA4, symBinAddr: 0x100064164, symSize: 0x138 }
  - { offsetInCU: 0x292B1, offset: 0x8426D, size: 0x8, addend: 0x0, symName: __ZNSt3__118__unwrap_iter_implIPcLb1EE8__unwrapB8ue170006ES1_, symObjAddr: 0x2ABDC, symBinAddr: 0x10006429C, symSize: 0x24 }
  - { offsetInCU: 0x292D4, offset: 0x84290, size: 0x8, addend: 0x0, symName: __ZNSt3__14pairIPKcPcEC1B8ue170006IS2_S3_LPv0EEEOT_OT0_, symObjAddr: 0x2AC00, symBinAddr: 0x1000642C0, symSize: 0x3C }
  - { offsetInCU: 0x29332, offset: 0x842EE, size: 0x8, addend: 0x0, symName: __ZNSt3__14pairIPKcPcEC2B8ue170006IS2_S3_LPv0EEEOT_OT0_, symObjAddr: 0x2AC3C, symBinAddr: 0x1000642FC, symSize: 0x138 }
  - { offsetInCU: 0x29390, offset: 0x8434C, size: 0x8, addend: 0x0, symName: __ZNSt3__119__unwrap_range_implIPKcS2_E8__rewrapB8ue170006ES2_S2_, symObjAddr: 0x2AD74, symBinAddr: 0x100064434, symSize: 0x2C }
  - { offsetInCU: 0x293C1, offset: 0x8437D, size: 0x8, addend: 0x0, symName: __ZNSt3__118__unwrap_iter_implIPKcLb1EE8__rewrapB8ue170006ES2_S2_, symObjAddr: 0x2ADE8, symBinAddr: 0x1000644A8, symSize: 0x48 }
  - { offsetInCU: 0x293F2, offset: 0x843AE, size: 0x8, addend: 0x0, symName: __ZNSt3__118__unwrap_iter_implIPcLb1EE8__rewrapB8ue170006ES1_S1_, symObjAddr: 0x2AE30, symBinAddr: 0x1000644F0, symSize: 0x48 }
  - { offsetInCU: 0x29423, offset: 0x843DF, size: 0x8, addend: 0x0, symName: __ZNSt3__16vectorINS_12basic_stringIcNS_11char_traitsIcEENS_9allocatorIcEEEENS4_IS6_EEE11__make_iterB8ue170006EPS6_, symObjAddr: 0x2BFE8, symBinAddr: 0x1000646C8, symSize: 0x1FC }
  - { offsetInCU: 0x2945A, offset: 0x84416, size: 0x8, addend: 0x0, symName: __ZNSt3__111__wrap_iterIPNS_12basic_stringIcNS_11char_traitsIcEENS_9allocatorIcEEEEEC1B8ue170006ES7_, symObjAddr: 0x2C1E4, symBinAddr: 0x1000648C4, symSize: 0x34 }
  - { offsetInCU: 0x29492, offset: 0x8444E, size: 0x8, addend: 0x0, symName: __ZNSt3__111__wrap_iterIPNS_12basic_stringIcNS_11char_traitsIcEENS_9allocatorIcEEEEEC2B8ue170006ES7_, symObjAddr: 0x2C218, symBinAddr: 0x1000648F8, symSize: 0x70 }
  - { offsetInCU: 0x294CA, offset: 0x84486, size: 0x8, addend: 0x0, symName: __ZNKSt3__111__wrap_iterIPNS_12basic_stringIcNS_11char_traitsIcEENS_9allocatorIcEEEEE4baseB8ue170006Ev, symObjAddr: 0x2C2D0, symBinAddr: 0x1000649B0, symSize: 0x60 }
  - { offsetInCU: 0x294F0, offset: 0x844AC, size: 0x8, addend: 0x0, symName: __ZNSt3__112basic_stringIcNS_11char_traitsIcEENS_9allocatorIcEEE13__move_assignB8ue170006ERS5_NS_17integral_constantIbLb1EEE, symObjAddr: 0x2C764, symBinAddr: 0x100064A10, symSize: 0x2D0 }
  - { offsetInCU: 0x29535, offset: 0x844F1, size: 0x8, addend: 0x0, symName: __ZNSt3__116allocator_traitsINS_9allocatorIcEEE10deallocateB8ue170006ERS2_Pcm, symObjAddr: 0x2CA34, symBinAddr: 0x100064CE0, symSize: 0x34 }
  - { offsetInCU: 0x29577, offset: 0x84533, size: 0x8, addend: 0x0, symName: __ZNSt3__112basic_stringIcNS_11char_traitsIcEENS_9allocatorIcEEE19__move_assign_allocB8ue170006ERS5_, symObjAddr: 0x2CAE0, symBinAddr: 0x100064D14, symSize: 0x2C }
  - { offsetInCU: 0x295AC, offset: 0x84568, size: 0x8, addend: 0x0, symName: __ZNSt3__19allocatorIcE10deallocateB8ue170006EPcm, symObjAddr: 0x2CC00, symBinAddr: 0x100064D40, symSize: 0x4C }
  - { offsetInCU: 0x295EE, offset: 0x845AA, size: 0x8, addend: 0x0, symName: __ZNSt3__112basic_stringIcNS_11char_traitsIcEENS_9allocatorIcEEE19__move_assign_allocB8ue170006ERS5_NS_17integral_constantIbLb1EEE, symObjAddr: 0x2CC4C, symBinAddr: 0x100064D8C, symSize: 0x38 }
  - { offsetInCU: 0x29656, offset: 0x84612, size: 0x8, addend: 0x0, symName: __ZNSt3__16vectorINS_12basic_stringIcNS_11char_traitsIcEENS_9allocatorIcEEEENS4_IS6_EEE19__copy_assign_allocB8ue170006ERKS8_, symObjAddr: 0x31CB0, symBinAddr: 0x100064DC4, symSize: 0x2C }
  - { offsetInCU: 0x2968B, offset: 0x84647, size: 0x8, addend: 0x0, symName: __ZNSt3__16vectorINS_12basic_stringIcNS_11char_traitsIcEENS_9allocatorIcEEEENS4_IS6_EEE6assignIPS6_Li0EEEvT_SB_, symObjAddr: 0x31CDC, symBinAddr: 0x100064DF0, symSize: 0x5C }
  - { offsetInCU: 0x296E0, offset: 0x8469C, size: 0x8, addend: 0x0, symName: __ZNSt3__16vectorINS_12basic_stringIcNS_11char_traitsIcEENS_9allocatorIcEEEENS4_IS6_EEE19__copy_assign_allocB8ue170006ERKS8_NS_17integral_constantIbLb0EEE, symObjAddr: 0x31D38, symBinAddr: 0x100064E4C, symSize: 0x14 }
  - { offsetInCU: 0x2971C, offset: 0x846D8, size: 0x8, addend: 0x0, symName: __ZNSt3__16vectorINS_12basic_stringIcNS_11char_traitsIcEENS_9allocatorIcEEEENS4_IS6_EEE18__assign_with_sizeB8ue170006IPS6_SA_EEvT_T0_l, symObjAddr: 0x31D4C, symBinAddr: 0x100064E60, symSize: 0x408 }
  - { offsetInCU: 0x297D3, offset: 0x8478F, size: 0x8, addend: 0x0, symName: __ZNSt3__16vectorINS_12basic_stringIcNS_11char_traitsIcEENS_9allocatorIcEEEENS4_IS6_EEE18__construct_at_endIPS6_SA_EEvT_T0_m, symObjAddr: 0x32624, symBinAddr: 0x100065738, symSize: 0x380 }
  - { offsetInCU: 0x29851, offset: 0x8480D, size: 0x8, addend: 0x0, symName: __ZNSt3__16vectorINS_12basic_stringIcNS_11char_traitsIcEENS_9allocatorIcEEEENS4_IS6_EEE17__destruct_at_endB8ue170006EPS6_, symObjAddr: 0x32BD0, symBinAddr: 0x100065CE4, symSize: 0x4C }
  - { offsetInCU: 0x29895, offset: 0x84851, size: 0x8, addend: 0x0, symName: __ZNSt3__16vectorINS_12basic_stringIcNS_11char_traitsIcEENS_9allocatorIcEEEENS4_IS6_EEE11__vallocateB8ue170006Em, symObjAddr: 0x32C1C, symBinAddr: 0x100065D30, symSize: 0x428 }
  - { offsetInCU: 0x298F8, offset: 0x848B4, size: 0x8, addend: 0x0, symName: __ZNSt3__119__unwrap_range_implIPNS_12basic_stringIcNS_11char_traitsIcEENS_9allocatorIcEEEES7_E8__unwrapB8ue170006ES7_S7_, symObjAddr: 0x33AD0, symBinAddr: 0x100066BE4, symSize: 0x30C }
  - { offsetInCU: 0x29930, offset: 0x848EC, size: 0x8, addend: 0x0, symName: __ZNSt3__14pairIPNS_12basic_stringIcNS_11char_traitsIcEENS_9allocatorIcEEEES7_EC1B8ue170006IS7_S7_LPv0EEEOT_OT0_, symObjAddr: 0x33DDC, symBinAddr: 0x100066EF0, symSize: 0x3C }
  - { offsetInCU: 0x2998E, offset: 0x8494A, size: 0x8, addend: 0x0, symName: __ZNSt3__14pairIPNS_12basic_stringIcNS_11char_traitsIcEENS_9allocatorIcEEEES7_EC2B8ue170006IS7_S7_LPv0EEEOT_OT0_, symObjAddr: 0x33E18, symBinAddr: 0x100066F2C, symSize: 0x138 }
  - { offsetInCU: 0x299EC, offset: 0x849A8, size: 0x8, addend: 0x0, symName: __ZNSt3__129_AllocatorDestroyRangeReverseINS_9allocatorINS_12basic_stringIcNS_11char_traitsIcEENS1_IcEEEEEEPS6_EC1B8ue170006ERS7_RS8_SB_, symObjAddr: 0x34148, symBinAddr: 0x10006725C, symSize: 0x44 }
  - { offsetInCU: 0x29A43, offset: 0x849FF, size: 0x8, addend: 0x0, symName: __ZNSt3__116allocator_traitsINS_9allocatorINS_12basic_stringIcNS_11char_traitsIcEENS1_IcEEEEEEE9constructB8ue170006IS6_JRS6_EvvEEvRS7_PT_DpOT0_, symObjAddr: 0x3418C, symBinAddr: 0x1000672A0, symSize: 0x30 }
  - { offsetInCU: 0x29A97, offset: 0x84A53, size: 0x8, addend: 0x0, symName: __ZNSt3__128__exception_guard_exceptionsINS_29_AllocatorDestroyRangeReverseINS_9allocatorINS_12basic_stringIcNS_11char_traitsIcEENS2_IcEEEEEEPS7_EEE10__completeB8ue170006Ev, symObjAddr: 0x341BC, symBinAddr: 0x1000672D0, symSize: 0x8C }
  - { offsetInCU: 0x29ABD, offset: 0x84A79, size: 0x8, addend: 0x0, symName: __ZNSt3__128__exception_guard_exceptionsINS_29_AllocatorDestroyRangeReverseINS_9allocatorINS_12basic_stringIcNS_11char_traitsIcEENS2_IcEEEEEEPS7_EEED1B8ue170006Ev, symObjAddr: 0x34248, symBinAddr: 0x10006735C, symSize: 0x2C }
  - { offsetInCU: 0x29AE7, offset: 0x84AA3, size: 0x8, addend: 0x0, symName: __ZNSt3__128__exception_guard_exceptionsINS_29_AllocatorDestroyRangeReverseINS_9allocatorINS_12basic_stringIcNS_11char_traitsIcEENS2_IcEEEEEEPS7_EEEC1B8ue170006ESA_, symObjAddr: 0x34274, symBinAddr: 0x100067388, symSize: 0x34 }
  - { offsetInCU: 0x29B20, offset: 0x84ADC, size: 0x8, addend: 0x0, symName: __ZNSt3__128__exception_guard_exceptionsINS_29_AllocatorDestroyRangeReverseINS_9allocatorINS_12basic_stringIcNS_11char_traitsIcEENS2_IcEEEEEEPS7_EEEC2B8ue170006ESA_, symObjAddr: 0x342A8, symBinAddr: 0x1000673BC, symSize: 0xA4 }
  - { offsetInCU: 0x29B59, offset: 0x84B15, size: 0x8, addend: 0x0, symName: __ZNSt3__129_AllocatorDestroyRangeReverseINS_9allocatorINS_12basic_stringIcNS_11char_traitsIcEENS1_IcEEEEEEPS6_EC2B8ue170006ERS7_RS8_SB_, symObjAddr: 0x3434C, symBinAddr: 0x100067460, symSize: 0x104 }
  - { offsetInCU: 0x29BB0, offset: 0x84B6C, size: 0x8, addend: 0x0, symName: __ZNSt3__128__exception_guard_exceptionsINS_29_AllocatorDestroyRangeReverseINS_9allocatorINS_12basic_stringIcNS_11char_traitsIcEENS2_IcEEEEEEPS7_EEED2B8ue170006Ev, symObjAddr: 0x3448C, symBinAddr: 0x1000675A0, symSize: 0xBC }
  - { offsetInCU: 0x29BDA, offset: 0x84B96, size: 0x8, addend: 0x0, symName: __ZNKSt3__129_AllocatorDestroyRangeReverseINS_9allocatorINS_12basic_stringIcNS_11char_traitsIcEENS1_IcEEEEEEPS6_EclB8ue170006Ev, symObjAddr: 0x34548, symBinAddr: 0x10006765C, symSize: 0x39C }
  - { offsetInCU: 0x29C01, offset: 0x84BBD, size: 0x8, addend: 0x0, symName: __ZNSt3__118__unwrap_iter_implIPNS_12basic_stringIcNS_11char_traitsIcEENS_9allocatorIcEEEELb1EE8__unwrapB8ue170006ES7_, symObjAddr: 0x34B9C, symBinAddr: 0x100067CB0, symSize: 0x24 }
  - { offsetInCU: 0x29C24, offset: 0x84BE0, size: 0x8, addend: 0x0, symName: __ZNSt3__118__unwrap_iter_implIPNS_12basic_stringIcNS_11char_traitsIcEENS_9allocatorIcEEEELb1EE8__rewrapB8ue170006ES7_S7_, symObjAddr: 0x34BC0, symBinAddr: 0x100067CD4, symSize: 0x58 }
  - { offsetInCU: 0x29C5F, offset: 0x84C1B, size: 0x8, addend: 0x0, symName: __ZNKSt3__111__copy_loopINS_17_ClassicAlgPolicyEEclB8ue170006IPNS_12basic_stringIcNS_11char_traitsIcEENS_9allocatorIcEEEESA_SA_EENS_4pairIT_T1_EESC_T0_SD_, symObjAddr: 0x353E8, symBinAddr: 0x1000684FC, symSize: 0x458 }
  - { offsetInCU: 0x29CD4, offset: 0x84C90, size: 0x8, addend: 0x0, symName: __ZNSt3__119__unwrap_range_implIPNS_12basic_stringIcNS_11char_traitsIcEENS_9allocatorIcEEEES7_E8__rewrapB8ue170006ES7_S7_, symObjAddr: 0x35A78, symBinAddr: 0x100068B8C, symSize: 0x2C }
  - { offsetInCU: 0x29D05, offset: 0x84CC1, size: 0x8, addend: 0x0, symName: __ZNSt3__16vectorIP11LogObserverNS_9allocatorIS2_EEED2B8ue170006Ev, symObjAddr: 0x35ACC, symBinAddr: 0x100068BE0, symSize: 0x1F8 }
  - { offsetInCU: 0x29D30, offset: 0x84CEC, size: 0x8, addend: 0x0, symName: __ZNSt3__16vectorIP11LogObserverNS_9allocatorIS2_EEE16__destroy_vectorC1B8ue170006ERS5_, symObjAddr: 0x35CC4, symBinAddr: 0x100068DD8, symSize: 0x34 }
  - { offsetInCU: 0x29D69, offset: 0x84D25, size: 0x8, addend: 0x0, symName: __ZNSt3__16vectorIP11LogObserverNS_9allocatorIS2_EEE16__destroy_vectorclB8ue170006Ev, symObjAddr: 0x35CF8, symBinAddr: 0x100068E0C, symSize: 0x228 }
  - { offsetInCU: 0x29D8F, offset: 0x84D4B, size: 0x8, addend: 0x0, symName: __ZNSt3__16vectorIP11LogObserverNS_9allocatorIS2_EEE16__destroy_vectorC2B8ue170006ERS5_, symObjAddr: 0x35F20, symBinAddr: 0x100069034, symSize: 0x70 }
  - { offsetInCU: 0x29DC8, offset: 0x84D84, size: 0x8, addend: 0x0, symName: __ZNSt3__16vectorIP11LogObserverNS_9allocatorIS2_EEE7__clearB8ue170006Ev, symObjAddr: 0x35F90, symBinAddr: 0x1000690A4, symSize: 0x64 }
  - { offsetInCU: 0x29DEE, offset: 0x84DAA, size: 0x8, addend: 0x0, symName: __ZNKSt3__16vectorIP11LogObserverNS_9allocatorIS2_EEE17__annotate_deleteB8ue170006Ev, symObjAddr: 0x35FF4, symBinAddr: 0x100069108, symSize: 0xCC }
  - { offsetInCU: 0x29E14, offset: 0x84DD0, size: 0x8, addend: 0x0, symName: __ZNSt3__116allocator_traitsINS_9allocatorIP11LogObserverEEE10deallocateB8ue170006ERS4_PS3_m, symObjAddr: 0x360C0, symBinAddr: 0x1000691D4, symSize: 0x34 }
  - { offsetInCU: 0x29E56, offset: 0x84E12, size: 0x8, addend: 0x0, symName: __ZNSt3__16vectorIP11LogObserverNS_9allocatorIS2_EEE7__allocB8ue170006Ev, symObjAddr: 0x360F4, symBinAddr: 0x100069208, symSize: 0x28 }
  - { offsetInCU: 0x29E7C, offset: 0x84E38, size: 0x8, addend: 0x0, symName: __ZNKSt3__16vectorIP11LogObserverNS_9allocatorIS2_EEE8capacityB8ue170006Ev, symObjAddr: 0x3611C, symBinAddr: 0x100069230, symSize: 0xBC }
  - { offsetInCU: 0x29EA2, offset: 0x84E5E, size: 0x8, addend: 0x0, symName: __ZNSt3__16vectorIP11LogObserverNS_9allocatorIS2_EEE22__base_destruct_at_endB8ue170006EPS2_, symObjAddr: 0x361D8, symBinAddr: 0x1000692EC, symSize: 0x114 }
  - { offsetInCU: 0x29EE6, offset: 0x84EA2, size: 0x8, addend: 0x0, symName: __ZNSt3__116allocator_traitsINS_9allocatorIP11LogObserverEEE7destroyB8ue170006IS3_vvEEvRS4_PT_, symObjAddr: 0x362EC, symBinAddr: 0x100069400, symSize: 0x28 }
  - { offsetInCU: 0x29F20, offset: 0x84EDC, size: 0x8, addend: 0x0, symName: __ZNKSt3__16vectorIP11LogObserverNS_9allocatorIS2_EEE31__annotate_contiguous_containerEPKvS7_S7_S7_, symObjAddr: 0x3635C, symBinAddr: 0x100069470, symSize: 0x58 }
  - { offsetInCU: 0x29F82, offset: 0x84F3E, size: 0x8, addend: 0x0, symName: __ZNKSt3__16vectorIP11LogObserverNS_9allocatorIS2_EEE4dataB8ue170006Ev, symObjAddr: 0x363B4, symBinAddr: 0x1000694C8, symSize: 0x64 }
  - { offsetInCU: 0x29FA8, offset: 0x84F64, size: 0x8, addend: 0x0, symName: __ZNKSt3__16vectorIP11LogObserverNS_9allocatorIS2_EEE4sizeB8ue170006Ev, symObjAddr: 0x36418, symBinAddr: 0x10006952C, symSize: 0xB0 }
  - { offsetInCU: 0x29FCE, offset: 0x84F8A, size: 0x8, addend: 0x0, symName: __ZNSt3__19allocatorIP11LogObserverE10deallocateB8ue170006EPS2_m, symObjAddr: 0x364C8, symBinAddr: 0x1000695DC, symSize: 0x4C }
  - { offsetInCU: 0x2A010, offset: 0x84FCC, size: 0x8, addend: 0x0, symName: __ZNSt3__117__compressed_pairIPP11LogObserverNS_9allocatorIS2_EEE6secondB8ue170006Ev, symObjAddr: 0x36514, symBinAddr: 0x100069628, symSize: 0x24 }
  - { offsetInCU: 0x2A036, offset: 0x84FF2, size: 0x8, addend: 0x0, symName: __ZNSt3__122__compressed_pair_elemINS_9allocatorIP11LogObserverEELi1ELb1EE5__getB8ue170006Ev, symObjAddr: 0x36538, symBinAddr: 0x10006964C, symSize: 0x14 }
  - { offsetInCU: 0x2A05C, offset: 0x85018, size: 0x8, addend: 0x0, symName: __ZNKSt3__16vectorIP11LogObserverNS_9allocatorIS2_EEE9__end_capB8ue170006Ev, symObjAddr: 0x3654C, symBinAddr: 0x100069660, symSize: 0x28 }
  - { offsetInCU: 0x2A082, offset: 0x8503E, size: 0x8, addend: 0x0, symName: __ZNKSt3__117__compressed_pairIPP11LogObserverNS_9allocatorIS2_EEE5firstB8ue170006Ev, symObjAddr: 0x36574, symBinAddr: 0x100069688, symSize: 0x24 }
  - { offsetInCU: 0x2A0A8, offset: 0x85064, size: 0x8, addend: 0x0, symName: __ZNKSt3__122__compressed_pair_elemIPP11LogObserverLi0ELb0EE5__getB8ue170006Ev, symObjAddr: 0x36598, symBinAddr: 0x1000696AC, symSize: 0x14 }
  - { offsetInCU: 0x2A0CE, offset: 0x8508A, size: 0x8, addend: 0x0, symName: __ZNSt3__16vectorIP10OrdersListNS_9allocatorIS2_EEED2B8ue170006Ev, symObjAddr: 0x365AC, symBinAddr: 0x1000696C0, symSize: 0x1F8 }
  - { offsetInCU: 0x2A0F9, offset: 0x850B5, size: 0x8, addend: 0x0, symName: __ZNSt3__16vectorIP10OrdersListNS_9allocatorIS2_EEE16__destroy_vectorC1B8ue170006ERS5_, symObjAddr: 0x367A4, symBinAddr: 0x1000698B8, symSize: 0x34 }
  - { offsetInCU: 0x2A132, offset: 0x850EE, size: 0x8, addend: 0x0, symName: __ZNSt3__16vectorIP10OrdersListNS_9allocatorIS2_EEE16__destroy_vectorclB8ue170006Ev, symObjAddr: 0x367D8, symBinAddr: 0x1000698EC, symSize: 0x228 }
  - { offsetInCU: 0x2A158, offset: 0x85114, size: 0x8, addend: 0x0, symName: __ZNSt3__16vectorIP10OrdersListNS_9allocatorIS2_EEE16__destroy_vectorC2B8ue170006ERS5_, symObjAddr: 0x36A00, symBinAddr: 0x100069B14, symSize: 0x70 }
  - { offsetInCU: 0x2A191, offset: 0x8514D, size: 0x8, addend: 0x0, symName: __ZNSt3__16vectorIP10OrdersListNS_9allocatorIS2_EEE7__clearB8ue170006Ev, symObjAddr: 0x36A70, symBinAddr: 0x100069B84, symSize: 0x64 }
  - { offsetInCU: 0x2A1B7, offset: 0x85173, size: 0x8, addend: 0x0, symName: __ZNKSt3__16vectorIP10OrdersListNS_9allocatorIS2_EEE17__annotate_deleteB8ue170006Ev, symObjAddr: 0x36AD4, symBinAddr: 0x100069BE8, symSize: 0xCC }
  - { offsetInCU: 0x2A1DD, offset: 0x85199, size: 0x8, addend: 0x0, symName: __ZNSt3__116allocator_traitsINS_9allocatorIP10OrdersListEEE10deallocateB8ue170006ERS4_PS3_m, symObjAddr: 0x36BA0, symBinAddr: 0x100069CB4, symSize: 0x34 }
  - { offsetInCU: 0x2A21F, offset: 0x851DB, size: 0x8, addend: 0x0, symName: __ZNSt3__16vectorIP10OrdersListNS_9allocatorIS2_EEE7__allocB8ue170006Ev, symObjAddr: 0x36BD4, symBinAddr: 0x100069CE8, symSize: 0x28 }
  - { offsetInCU: 0x2A245, offset: 0x85201, size: 0x8, addend: 0x0, symName: __ZNKSt3__16vectorIP10OrdersListNS_9allocatorIS2_EEE8capacityB8ue170006Ev, symObjAddr: 0x36BFC, symBinAddr: 0x100069D10, symSize: 0xBC }
  - { offsetInCU: 0x2A26B, offset: 0x85227, size: 0x8, addend: 0x0, symName: __ZNSt3__16vectorIP10OrdersListNS_9allocatorIS2_EEE22__base_destruct_at_endB8ue170006EPS2_, symObjAddr: 0x36CB8, symBinAddr: 0x100069DCC, symSize: 0x114 }
  - { offsetInCU: 0x2A2AF, offset: 0x8526B, size: 0x8, addend: 0x0, symName: __ZNSt3__116allocator_traitsINS_9allocatorIP10OrdersListEEE7destroyB8ue170006IS3_vvEEvRS4_PT_, symObjAddr: 0x36DCC, symBinAddr: 0x100069EE0, symSize: 0x28 }
  - { offsetInCU: 0x2A2E9, offset: 0x852A5, size: 0x8, addend: 0x0, symName: __ZNKSt3__16vectorIP10OrdersListNS_9allocatorIS2_EEE31__annotate_contiguous_containerEPKvS7_S7_S7_, symObjAddr: 0x36E3C, symBinAddr: 0x100069F50, symSize: 0x58 }
  - { offsetInCU: 0x2A34B, offset: 0x85307, size: 0x8, addend: 0x0, symName: __ZNKSt3__16vectorIP10OrdersListNS_9allocatorIS2_EEE4dataB8ue170006Ev, symObjAddr: 0x36E94, symBinAddr: 0x100069FA8, symSize: 0x64 }
  - { offsetInCU: 0x2A371, offset: 0x8532D, size: 0x8, addend: 0x0, symName: __ZNKSt3__16vectorIP10OrdersListNS_9allocatorIS2_EEE4sizeB8ue170006Ev, symObjAddr: 0x36EF8, symBinAddr: 0x10006A00C, symSize: 0xB0 }
  - { offsetInCU: 0x2A397, offset: 0x85353, size: 0x8, addend: 0x0, symName: __ZNSt3__19allocatorIP10OrdersListE10deallocateB8ue170006EPS2_m, symObjAddr: 0x36FA8, symBinAddr: 0x10006A0BC, symSize: 0x4C }
  - { offsetInCU: 0x2A3D9, offset: 0x85395, size: 0x8, addend: 0x0, symName: __ZNSt3__117__compressed_pairIPP10OrdersListNS_9allocatorIS2_EEE6secondB8ue170006Ev, symObjAddr: 0x36FF4, symBinAddr: 0x10006A108, symSize: 0x24 }
  - { offsetInCU: 0x2A3FF, offset: 0x853BB, size: 0x8, addend: 0x0, symName: __ZNSt3__122__compressed_pair_elemINS_9allocatorIP10OrdersListEELi1ELb1EE5__getB8ue170006Ev, symObjAddr: 0x37018, symBinAddr: 0x10006A12C, symSize: 0x14 }
  - { offsetInCU: 0x2A425, offset: 0x853E1, size: 0x8, addend: 0x0, symName: __ZNKSt3__16vectorIP10OrdersListNS_9allocatorIS2_EEE9__end_capB8ue170006Ev, symObjAddr: 0x3702C, symBinAddr: 0x10006A140, symSize: 0x28 }
  - { offsetInCU: 0x2A44B, offset: 0x85407, size: 0x8, addend: 0x0, symName: __ZNKSt3__117__compressed_pairIPP10OrdersListNS_9allocatorIS2_EEE5firstB8ue170006Ev, symObjAddr: 0x37054, symBinAddr: 0x10006A168, symSize: 0x24 }
  - { offsetInCU: 0x2A471, offset: 0x8542D, size: 0x8, addend: 0x0, symName: __ZNKSt3__122__compressed_pair_elemIPP10OrdersListLi0ELb0EE5__getB8ue170006Ev, symObjAddr: 0x37078, symBinAddr: 0x10006A18C, symSize: 0x14 }
  - { offsetInCU: 0x2A497, offset: 0x85453, size: 0x8, addend: 0x0, symName: __ZNSt3__16vectorIP14PlayerStrategyNS_9allocatorIS2_EEED2B8ue170006Ev, symObjAddr: 0x3708C, symBinAddr: 0x10006A1A0, symSize: 0x1F8 }
  - { offsetInCU: 0x2A4C2, offset: 0x8547E, size: 0x8, addend: 0x0, symName: __ZNSt3__16vectorIP14PlayerStrategyNS_9allocatorIS2_EEE16__destroy_vectorC1B8ue170006ERS5_, symObjAddr: 0x37284, symBinAddr: 0x10006A398, symSize: 0x34 }
  - { offsetInCU: 0x2A4FB, offset: 0x854B7, size: 0x8, addend: 0x0, symName: __ZNSt3__16vectorIP14PlayerStrategyNS_9allocatorIS2_EEE16__destroy_vectorclB8ue170006Ev, symObjAddr: 0x372B8, symBinAddr: 0x10006A3CC, symSize: 0x228 }
  - { offsetInCU: 0x2A521, offset: 0x854DD, size: 0x8, addend: 0x0, symName: __ZNSt3__16vectorIP14PlayerStrategyNS_9allocatorIS2_EEE16__destroy_vectorC2B8ue170006ERS5_, symObjAddr: 0x374E0, symBinAddr: 0x10006A5F4, symSize: 0x70 }
  - { offsetInCU: 0x2A55A, offset: 0x85516, size: 0x8, addend: 0x0, symName: __ZNSt3__16vectorIP14PlayerStrategyNS_9allocatorIS2_EEE7__clearB8ue170006Ev, symObjAddr: 0x37550, symBinAddr: 0x10006A664, symSize: 0x64 }
  - { offsetInCU: 0x2A580, offset: 0x8553C, size: 0x8, addend: 0x0, symName: __ZNKSt3__16vectorIP14PlayerStrategyNS_9allocatorIS2_EEE17__annotate_deleteB8ue170006Ev, symObjAddr: 0x375B4, symBinAddr: 0x10006A6C8, symSize: 0xCC }
  - { offsetInCU: 0x2A5A6, offset: 0x85562, size: 0x8, addend: 0x0, symName: __ZNSt3__116allocator_traitsINS_9allocatorIP14PlayerStrategyEEE10deallocateB8ue170006ERS4_PS3_m, symObjAddr: 0x37680, symBinAddr: 0x10006A794, symSize: 0x34 }
  - { offsetInCU: 0x2A5E8, offset: 0x855A4, size: 0x8, addend: 0x0, symName: __ZNSt3__16vectorIP14PlayerStrategyNS_9allocatorIS2_EEE7__allocB8ue170006Ev, symObjAddr: 0x376B4, symBinAddr: 0x10006A7C8, symSize: 0x28 }
  - { offsetInCU: 0x2A60E, offset: 0x855CA, size: 0x8, addend: 0x0, symName: __ZNKSt3__16vectorIP14PlayerStrategyNS_9allocatorIS2_EEE8capacityB8ue170006Ev, symObjAddr: 0x376DC, symBinAddr: 0x10006A7F0, symSize: 0xBC }
  - { offsetInCU: 0x2A634, offset: 0x855F0, size: 0x8, addend: 0x0, symName: __ZNSt3__16vectorIP14PlayerStrategyNS_9allocatorIS2_EEE22__base_destruct_at_endB8ue170006EPS2_, symObjAddr: 0x37798, symBinAddr: 0x10006A8AC, symSize: 0x114 }
  - { offsetInCU: 0x2A678, offset: 0x85634, size: 0x8, addend: 0x0, symName: __ZNSt3__116allocator_traitsINS_9allocatorIP14PlayerStrategyEEE7destroyB8ue170006IS3_vvEEvRS4_PT_, symObjAddr: 0x378AC, symBinAddr: 0x10006A9C0, symSize: 0x28 }
  - { offsetInCU: 0x2A6B2, offset: 0x8566E, size: 0x8, addend: 0x0, symName: __ZNKSt3__16vectorIP14PlayerStrategyNS_9allocatorIS2_EEE31__annotate_contiguous_containerEPKvS7_S7_S7_, symObjAddr: 0x3791C, symBinAddr: 0x10006AA30, symSize: 0x58 }
  - { offsetInCU: 0x2A714, offset: 0x856D0, size: 0x8, addend: 0x0, symName: __ZNKSt3__16vectorIP14PlayerStrategyNS_9allocatorIS2_EEE4dataB8ue170006Ev, symObjAddr: 0x37974, symBinAddr: 0x10006AA88, symSize: 0x64 }
  - { offsetInCU: 0x2A73A, offset: 0x856F6, size: 0x8, addend: 0x0, symName: __ZNKSt3__16vectorIP14PlayerStrategyNS_9allocatorIS2_EEE4sizeB8ue170006Ev, symObjAddr: 0x379D8, symBinAddr: 0x10006AAEC, symSize: 0xB0 }
  - { offsetInCU: 0x2A760, offset: 0x8571C, size: 0x8, addend: 0x0, symName: __ZNSt3__19allocatorIP14PlayerStrategyE10deallocateB8ue170006EPS2_m, symObjAddr: 0x37A88, symBinAddr: 0x10006AB9C, symSize: 0x4C }
  - { offsetInCU: 0x2A7A2, offset: 0x8575E, size: 0x8, addend: 0x0, symName: __ZNSt3__117__compressed_pairIPP14PlayerStrategyNS_9allocatorIS2_EEE6secondB8ue170006Ev, symObjAddr: 0x37AD4, symBinAddr: 0x10006ABE8, symSize: 0x24 }
  - { offsetInCU: 0x2A7C8, offset: 0x85784, size: 0x8, addend: 0x0, symName: __ZNSt3__122__compressed_pair_elemINS_9allocatorIP14PlayerStrategyEELi1ELb1EE5__getB8ue170006Ev, symObjAddr: 0x37AF8, symBinAddr: 0x10006AC0C, symSize: 0x14 }
  - { offsetInCU: 0x2A7EE, offset: 0x857AA, size: 0x8, addend: 0x0, symName: __ZNKSt3__16vectorIP14PlayerStrategyNS_9allocatorIS2_EEE9__end_capB8ue170006Ev, symObjAddr: 0x37B0C, symBinAddr: 0x10006AC20, symSize: 0x28 }
  - { offsetInCU: 0x2A814, offset: 0x857D0, size: 0x8, addend: 0x0, symName: __ZNKSt3__117__compressed_pairIPP14PlayerStrategyNS_9allocatorIS2_EEE5firstB8ue170006Ev, symObjAddr: 0x37B34, symBinAddr: 0x10006AC48, symSize: 0x24 }
  - { offsetInCU: 0x2A83A, offset: 0x857F6, size: 0x8, addend: 0x0, symName: __ZNKSt3__122__compressed_pair_elemIPP14PlayerStrategyLi0ELb0EE5__getB8ue170006Ev, symObjAddr: 0x37B58, symBinAddr: 0x10006AC6C, symSize: 0x14 }
  - { offsetInCU: 0x2A860, offset: 0x8581C, size: 0x8, addend: 0x0, symName: __ZNSt3__16vectorIP11LogObserverNS_9allocatorIS2_EEE9__end_capB8ue170006Ev, symObjAddr: 0x37B6C, symBinAddr: 0x10006AC80, symSize: 0x28 }
  - { offsetInCU: 0x2A88B, offset: 0x85847, size: 0x8, addend: 0x0, symName: __ZNSt3__16vectorIP11LogObserverNS_9allocatorIS2_EEE22__construct_one_at_endB8ue170006IJRKS2_EEEvDpOT_, symObjAddr: 0x37B94, symBinAddr: 0x10006ACA8, symSize: 0x36C }
  - { offsetInCU: 0x2A8E0, offset: 0x8589C, size: 0x8, addend: 0x0, symName: __ZNSt3__16vectorIP11LogObserverNS_9allocatorIS2_EEE21__push_back_slow_pathIRKS2_EEvOT_, symObjAddr: 0x37F00, symBinAddr: 0x10006B014, symSize: 0x3C0 }
  - { offsetInCU: 0x2A945, offset: 0x85901, size: 0x8, addend: 0x0, symName: __ZNSt3__117__compressed_pairIPP11LogObserverNS_9allocatorIS2_EEE5firstB8ue170006Ev, symObjAddr: 0x382C0, symBinAddr: 0x10006B3D4, symSize: 0x24 }
  - { offsetInCU: 0x2A96B, offset: 0x85927, size: 0x8, addend: 0x0, symName: __ZNSt3__122__compressed_pair_elemIPP11LogObserverLi0ELb0EE5__getB8ue170006Ev, symObjAddr: 0x382E4, symBinAddr: 0x10006B3F8, symSize: 0x14 }
  - { offsetInCU: 0x2A9AA, offset: 0x85966, size: 0x8, addend: 0x0, symName: __ZNSt3__16vectorIP11LogObserverNS_9allocatorIS2_EEE21_ConstructTransactionC1B8ue170006ERS5_m, symObjAddr: 0x382F8, symBinAddr: 0x10006B40C, symSize: 0x3C }
  - { offsetInCU: 0x2A9F2, offset: 0x859AE, size: 0x8, addend: 0x0, symName: __ZNSt3__116allocator_traitsINS_9allocatorIP11LogObserverEEE9constructB8ue170006IS3_JRKS3_EvvEEvRS4_PT_DpOT0_, symObjAddr: 0x38334, symBinAddr: 0x10006B448, symSize: 0x30 }
  - { offsetInCU: 0x2AA46, offset: 0x85A02, size: 0x8, addend: 0x0, symName: __ZNSt3__16vectorIP11LogObserverNS_9allocatorIS2_EEE21_ConstructTransactionD1B8ue170006Ev, symObjAddr: 0x38364, symBinAddr: 0x10006B478, symSize: 0x2C }
  - { offsetInCU: 0x2AA70, offset: 0x85A2C, size: 0x8, addend: 0x0, symName: __ZNSt3__16vectorIP11LogObserverNS_9allocatorIS2_EEE21_ConstructTransactionC2B8ue170006ERS5_m, symObjAddr: 0x38390, symBinAddr: 0x10006B4A4, symSize: 0x1D0 }
  - { offsetInCU: 0x2AAB8, offset: 0x85A74, size: 0x8, addend: 0x0, symName: __ZNKSt3__16vectorIP11LogObserverNS_9allocatorIS2_EEE19__annotate_increaseB8ue170006Em, symObjAddr: 0x38560, symBinAddr: 0x10006B674, symSize: 0xD8 }
  - { offsetInCU: 0x2AAED, offset: 0x85AA9, size: 0x8, addend: 0x0, symName: __ZNSt3__16vectorIP11LogObserverNS_9allocatorIS2_EEE21_ConstructTransactionD2B8ue170006Ev, symObjAddr: 0x386F0, symBinAddr: 0x10006B804, symSize: 0x278 }
  - { offsetInCU: 0x2AB17, offset: 0x85AD3, size: 0x8, addend: 0x0, symName: __ZNKSt3__16vectorIP11LogObserverNS_9allocatorIS2_EEE17__annotate_shrinkB8ue170006Em, symObjAddr: 0x38968, symBinAddr: 0x10006BA7C, symSize: 0xC8 }
  - { offsetInCU: 0x2AB4C, offset: 0x85B08, size: 0x8, addend: 0x0, symName: __ZNKSt3__16vectorIP11LogObserverNS_9allocatorIS2_EEE11__recommendB8ue170006Em, symObjAddr: 0x38A30, symBinAddr: 0x10006BB44, symSize: 0x384 }
  - { offsetInCU: 0x2ABA8, offset: 0x85B64, size: 0x8, addend: 0x0, symName: __ZNSt3__114__split_bufferIP11LogObserverRNS_9allocatorIS2_EEEC1EmmS5_, symObjAddr: 0x38DB4, symBinAddr: 0x10006BEC8, symSize: 0x44 }
  - { offsetInCU: 0x2ABFE, offset: 0x85BBA, size: 0x8, addend: 0x0, symName: __ZNSt3__114__split_bufferIP11LogObserverRNS_9allocatorIS2_EEED1Ev, symObjAddr: 0x39364, symBinAddr: 0x10006C478, symSize: 0x2C }
  - { offsetInCU: 0x2AC2A, offset: 0x85BE6, size: 0x8, addend: 0x0, symName: __ZNKSt3__16vectorIP11LogObserverNS_9allocatorIS2_EEE8max_sizeEv, symObjAddr: 0x39390, symBinAddr: 0x10006C4A4, symSize: 0x2FC }
  - { offsetInCU: 0x2AC53, offset: 0x85C0F, size: 0x8, addend: 0x0, symName: __ZNKSt3__16vectorIP11LogObserverNS_9allocatorIS2_EEE20__throw_length_errorB8ue170006Ev, symObjAddr: 0x3968C, symBinAddr: 0x10006C7A0, symSize: 0x20 }
  - { offsetInCU: 0x2AC83, offset: 0x85C3F, size: 0x8, addend: 0x0, symName: __ZNSt3__116allocator_traitsINS_9allocatorIP11LogObserverEEE8max_sizeB8ue170006IS4_vvEEmRKS4_, symObjAddr: 0x396AC, symBinAddr: 0x10006C7C0, symSize: 0x28 }
  - { offsetInCU: 0x2ACAE, offset: 0x85C6A, size: 0x8, addend: 0x0, symName: __ZNKSt3__16vectorIP11LogObserverNS_9allocatorIS2_EEE7__allocB8ue170006Ev, symObjAddr: 0x396D4, symBinAddr: 0x10006C7E8, symSize: 0x28 }
  - { offsetInCU: 0x2ACD4, offset: 0x85C90, size: 0x8, addend: 0x0, symName: __ZNKSt3__117__compressed_pairIPP11LogObserverNS_9allocatorIS2_EEE6secondB8ue170006Ev, symObjAddr: 0x396FC, symBinAddr: 0x10006C810, symSize: 0x24 }
  - { offsetInCU: 0x2ACFA, offset: 0x85CB6, size: 0x8, addend: 0x0, symName: __ZNKSt3__122__compressed_pair_elemINS_9allocatorIP11LogObserverEELi1ELb1EE5__getB8ue170006Ev, symObjAddr: 0x39720, symBinAddr: 0x10006C834, symSize: 0x14 }
  - { offsetInCU: 0x2AD20, offset: 0x85CDC, size: 0x8, addend: 0x0, symName: __ZNSt3__114__split_bufferIP11LogObserverRNS_9allocatorIS2_EEEC2EmmS5_, symObjAddr: 0x39734, symBinAddr: 0x10006C848, symSize: 0x520 }
  - { offsetInCU: 0x2AD9B, offset: 0x85D57, size: 0x8, addend: 0x0, symName: __ZNSt3__117__compressed_pairIPP11LogObserverRNS_9allocatorIS2_EEEC1B8ue170006IDnS6_EEOT_OT0_, symObjAddr: 0x39C54, symBinAddr: 0x10006CD68, symSize: 0x3C }
  - { offsetInCU: 0x2ADF3, offset: 0x85DAF, size: 0x8, addend: 0x0, symName: __ZNSt3__114__split_bufferIP11LogObserverRNS_9allocatorIS2_EEE7__allocB8ue170006Ev, symObjAddr: 0x39F1C, symBinAddr: 0x10006D030, symSize: 0x28 }
  - { offsetInCU: 0x2AE19, offset: 0x85DD5, size: 0x8, addend: 0x0, symName: __ZNSt3__114__split_bufferIP11LogObserverRNS_9allocatorIS2_EEE9__end_capB8ue170006Ev, symObjAddr: 0x39F44, symBinAddr: 0x10006D058, symSize: 0x28 }
  - { offsetInCU: 0x2AE3F, offset: 0x85DFB, size: 0x8, addend: 0x0, symName: __ZNSt3__117__compressed_pairIPP11LogObserverRNS_9allocatorIS2_EEEC2B8ue170006IDnS6_EEOT_OT0_, symObjAddr: 0x39F6C, symBinAddr: 0x10006D080, symSize: 0x48 }
  - { offsetInCU: 0x2AE97, offset: 0x85E53, size: 0x8, addend: 0x0, symName: __ZNSt3__122__compressed_pair_elemIPP11LogObserverLi0ELb0EEC2B8ue170006IDnvEEOT_, symObjAddr: 0x39FB4, symBinAddr: 0x10006D0C8, symSize: 0x64 }
  - { offsetInCU: 0x2AED9, offset: 0x85E95, size: 0x8, addend: 0x0, symName: __ZNSt3__122__compressed_pair_elemIRNS_9allocatorIP11LogObserverEELi1ELb0EEC2B8ue170006IS5_vEEOT_, symObjAddr: 0x3A018, symBinAddr: 0x10006D12C, symSize: 0x70 }
  - { offsetInCU: 0x2AF1B, offset: 0x85ED7, size: 0x8, addend: 0x0, symName: __ZNSt3__19allocatorIP11LogObserverE8allocateB8ue170006Em, symObjAddr: 0x3A088, symBinAddr: 0x10006D19C, symSize: 0x5C }
  - { offsetInCU: 0x2AF4F, offset: 0x85F0B, size: 0x8, addend: 0x0, symName: __ZNSt3__117__compressed_pairIPP11LogObserverRNS_9allocatorIS2_EEE6secondB8ue170006Ev, symObjAddr: 0x3A0E4, symBinAddr: 0x10006D1F8, symSize: 0x28 }
  - { offsetInCU: 0x2AF75, offset: 0x85F31, size: 0x8, addend: 0x0, symName: __ZNSt3__122__compressed_pair_elemIRNS_9allocatorIP11LogObserverEELi1ELb0EE5__getB8ue170006Ev, symObjAddr: 0x3A10C, symBinAddr: 0x10006D220, symSize: 0x60 }
  - { offsetInCU: 0x2AF9B, offset: 0x85F57, size: 0x8, addend: 0x0, symName: __ZNSt3__117__compressed_pairIPP11LogObserverRNS_9allocatorIS2_EEE5firstB8ue170006Ev, symObjAddr: 0x3A16C, symBinAddr: 0x10006D280, symSize: 0x24 }
  - { offsetInCU: 0x2AFC1, offset: 0x85F7D, size: 0x8, addend: 0x0, symName: __ZNSt3__116reverse_iteratorIPP11LogObserverEC1B8ue170006ES3_, symObjAddr: 0x3A638, symBinAddr: 0x10006D74C, symSize: 0x34 }
  - { offsetInCU: 0x2AFF9, offset: 0x85FB5, size: 0x8, addend: 0x0, symName: __ZNKSt3__116reverse_iteratorIPP11LogObserverE4baseB8ue170006Ev, symObjAddr: 0x3A66C, symBinAddr: 0x10006D780, symSize: 0x64 }
  - { offsetInCU: 0x2B01F, offset: 0x85FDB, size: 0x8, addend: 0x0, symName: __ZNKSt3__16vectorIP11LogObserverNS_9allocatorIS2_EEE14__annotate_newB8ue170006Em, symObjAddr: 0x3A804, symBinAddr: 0x10006D918, symSize: 0xC0 }
  - { offsetInCU: 0x2B06D, offset: 0x86029, size: 0x8, addend: 0x0, symName: __ZNKSt3__111__move_loopINS_17_ClassicAlgPolicyEEclB8ue170006INS_16reverse_iteratorIPP11LogObserverEES8_S8_EENS_4pairIT_T1_EESA_T0_SB_, symObjAddr: 0x3C198, symBinAddr: 0x10006F2AC, symSize: 0x3A8 }
  - { offsetInCU: 0x2B0E5, offset: 0x860A1, size: 0x8, addend: 0x0, symName: __ZNSt3__119__unwrap_range_implINS_16reverse_iteratorIPP11LogObserverEES5_E8__unwrapB8ue170006ES5_S5_, symObjAddr: 0x3D020, symBinAddr: 0x100070134, symSize: 0x448 }
  - { offsetInCU: 0x2B123, offset: 0x860DF, size: 0x8, addend: 0x0, symName: __ZNSt3__14pairINS_16reverse_iteratorIPP11LogObserverEES5_EC1B8ue170006IS5_S5_LPv0EEEOT_OT0_, symObjAddr: 0x3D468, symBinAddr: 0x10007057C, symSize: 0x3C }
  - { offsetInCU: 0x2B181, offset: 0x8613D, size: 0x8, addend: 0x0, symName: __ZNSt3__14pairINS_16reverse_iteratorIPP11LogObserverEES5_EC2B8ue170006IS5_S5_LPv0EEEOT_OT0_, symObjAddr: 0x3D4A4, symBinAddr: 0x1000705B8, symSize: 0x54 }
  - { offsetInCU: 0x2B1E4, offset: 0x861A0, size: 0x8, addend: 0x0, symName: __ZNSt3__18_IterOpsINS_17_ClassicAlgPolicyEE11__iter_moveB8ue170006IRNS_16reverse_iteratorIPP11LogObserverEEEENS_9enable_ifIXsr12is_referenceIDTdeclsr3stdE7declvalIRT_EEEEE5valueEDTclsr3stdE4movedeclsr3stdE7declvalISC_EEEEE4typeEOSB_, symObjAddr: 0x3D540, symBinAddr: 0x100070654, symSize: 0x28 }
  - { offsetInCU: 0x2B210, offset: 0x861CC, size: 0x8, addend: 0x0, symName: __ZNKSt3__116reverse_iteratorIPP11LogObserverEdeB8ue170006Ev, symObjAddr: 0x3D568, symBinAddr: 0x10007067C, symSize: 0x74 }
  - { offsetInCU: 0x2B244, offset: 0x86200, size: 0x8, addend: 0x0, symName: __ZNSt3__116reverse_iteratorIPP11LogObserverEppB8ue170006Ev, symObjAddr: 0x3D5DC, symBinAddr: 0x1000706F0, symSize: 0x6C }
  - { offsetInCU: 0x2B26A, offset: 0x86226, size: 0x8, addend: 0x0, symName: __ZNSt3__18_IterOpsINS_17_ClassicAlgPolicyEE25__validate_iter_referenceB8ue170006IRNS_16reverse_iteratorIPP11LogObserverEEEEvv, symObjAddr: 0x3D648, symBinAddr: 0x10007075C, symSize: 0x4 }
  - { offsetInCU: 0x2B288, offset: 0x86244, size: 0x8, addend: 0x0, symName: __ZNSt3__118__unwrap_iter_implINS_16reverse_iteratorIPP11LogObserverEELb0EE8__unwrapB8ue170006ES5_, symObjAddr: 0x3D64C, symBinAddr: 0x100070760, symSize: 0x274 }
  - { offsetInCU: 0x2B2AF, offset: 0x8626B, size: 0x8, addend: 0x0, symName: __ZNSt3__119__unwrap_range_implINS_16reverse_iteratorIPP11LogObserverEES5_E8__rewrapB8ue170006ES5_S5_, symObjAddr: 0x3D8C0, symBinAddr: 0x1000709D4, symSize: 0x3D4 }
  - { offsetInCU: 0x2B2E8, offset: 0x862A4, size: 0x8, addend: 0x0, symName: __ZNSt3__118__unwrap_iter_implINS_16reverse_iteratorIPP11LogObserverEELb0EE8__rewrapB8ue170006ES5_S5_, symObjAddr: 0x3DC94, symBinAddr: 0x100070DA8, symSize: 0x2E0 }
  - { offsetInCU: 0x2B31E, offset: 0x862DA, size: 0x8, addend: 0x0, symName: __ZNSt3__116reverse_iteratorIPP11LogObserverEC2B8ue170006ES3_, symObjAddr: 0x3DF74, symBinAddr: 0x100071088, symSize: 0xB8 }
  - { offsetInCU: 0x2B356, offset: 0x86312, size: 0x8, addend: 0x0, symName: __ZNSt3__114__split_bufferIP11LogObserverRNS_9allocatorIS2_EEED2Ev, symObjAddr: 0x3E02C, symBinAddr: 0x100071140, symSize: 0x104 }
  - { offsetInCU: 0x2B382, offset: 0x8633E, size: 0x8, addend: 0x0, symName: __ZNSt3__114__split_bufferIP11LogObserverRNS_9allocatorIS2_EEE5clearB8ue170006Ev, symObjAddr: 0x3E130, symBinAddr: 0x100071244, symSize: 0x68 }
  - { offsetInCU: 0x2B3A8, offset: 0x86364, size: 0x8, addend: 0x0, symName: __ZNKSt3__114__split_bufferIP11LogObserverRNS_9allocatorIS2_EEE8capacityB8ue170006Ev, symObjAddr: 0x3E198, symBinAddr: 0x1000712AC, symSize: 0xBC }
  - { offsetInCU: 0x2B3CE, offset: 0x8638A, size: 0x8, addend: 0x0, symName: __ZNSt3__114__split_bufferIP11LogObserverRNS_9allocatorIS2_EEE17__destruct_at_endB8ue170006EPS2_, symObjAddr: 0x3E254, symBinAddr: 0x100071368, symSize: 0x2C }
  - { offsetInCU: 0x2B402, offset: 0x863BE, size: 0x8, addend: 0x0, symName: __ZNSt3__114__split_bufferIP11LogObserverRNS_9allocatorIS2_EEE17__destruct_at_endB8ue170006EPS2_NS_17integral_constantIbLb0EEE, symObjAddr: 0x3E280, symBinAddr: 0x100071394, symSize: 0x10C }
  - { offsetInCU: 0x2B443, offset: 0x863FF, size: 0x8, addend: 0x0, symName: __ZNKSt3__114__split_bufferIP11LogObserverRNS_9allocatorIS2_EEE9__end_capB8ue170006Ev, symObjAddr: 0x3E38C, symBinAddr: 0x1000714A0, symSize: 0x28 }
  - { offsetInCU: 0x2B469, offset: 0x86425, size: 0x8, addend: 0x0, symName: __ZNKSt3__117__compressed_pairIPP11LogObserverRNS_9allocatorIS2_EEE5firstB8ue170006Ev, symObjAddr: 0x3E3B4, symBinAddr: 0x1000714C8, symSize: 0x24 }
  - { offsetInCU: 0x2B48F, offset: 0x8644B, size: 0x8, addend: 0x0, symName: __ZNSt3__16vectorIP14PlayerStrategyNS_9allocatorIS2_EEE9__end_capB8ue170006Ev, symObjAddr: 0x3E3D8, symBinAddr: 0x1000714EC, symSize: 0x28 }
  - { offsetInCU: 0x2B4BA, offset: 0x86476, size: 0x8, addend: 0x0, symName: __ZNSt3__16vectorIP14PlayerStrategyNS_9allocatorIS2_EEE22__construct_one_at_endB8ue170006IJRKS2_EEEvDpOT_, symObjAddr: 0x3E400, symBinAddr: 0x100071514, symSize: 0x36C }
  - { offsetInCU: 0x2B50F, offset: 0x864CB, size: 0x8, addend: 0x0, symName: __ZNSt3__16vectorIP14PlayerStrategyNS_9allocatorIS2_EEE21__push_back_slow_pathIRKS2_EEvOT_, symObjAddr: 0x3E76C, symBinAddr: 0x100071880, symSize: 0x3C0 }
  - { offsetInCU: 0x2B574, offset: 0x86530, size: 0x8, addend: 0x0, symName: __ZNSt3__117__compressed_pairIPP14PlayerStrategyNS_9allocatorIS2_EEE5firstB8ue170006Ev, symObjAddr: 0x3EB2C, symBinAddr: 0x100071C40, symSize: 0x24 }
  - { offsetInCU: 0x2B59A, offset: 0x86556, size: 0x8, addend: 0x0, symName: __ZNSt3__122__compressed_pair_elemIPP14PlayerStrategyLi0ELb0EE5__getB8ue170006Ev, symObjAddr: 0x3EB50, symBinAddr: 0x100071C64, symSize: 0x14 }
  - { offsetInCU: 0x2B5D9, offset: 0x86595, size: 0x8, addend: 0x0, symName: __ZNSt3__16vectorIP14PlayerStrategyNS_9allocatorIS2_EEE21_ConstructTransactionC1B8ue170006ERS5_m, symObjAddr: 0x3EB64, symBinAddr: 0x100071C78, symSize: 0x3C }
  - { offsetInCU: 0x2B621, offset: 0x865DD, size: 0x8, addend: 0x0, symName: __ZNSt3__116allocator_traitsINS_9allocatorIP14PlayerStrategyEEE9constructB8ue170006IS3_JRKS3_EvvEEvRS4_PT_DpOT0_, symObjAddr: 0x3EBA0, symBinAddr: 0x100071CB4, symSize: 0x30 }
  - { offsetInCU: 0x2B675, offset: 0x86631, size: 0x8, addend: 0x0, symName: __ZNSt3__16vectorIP14PlayerStrategyNS_9allocatorIS2_EEE21_ConstructTransactionD1B8ue170006Ev, symObjAddr: 0x3EBD0, symBinAddr: 0x100071CE4, symSize: 0x2C }
  - { offsetInCU: 0x2B69F, offset: 0x8665B, size: 0x8, addend: 0x0, symName: __ZNSt3__16vectorIP14PlayerStrategyNS_9allocatorIS2_EEE21_ConstructTransactionC2B8ue170006ERS5_m, symObjAddr: 0x3EBFC, symBinAddr: 0x100071D10, symSize: 0x1D0 }
  - { offsetInCU: 0x2B6E7, offset: 0x866A3, size: 0x8, addend: 0x0, symName: __ZNKSt3__16vectorIP14PlayerStrategyNS_9allocatorIS2_EEE19__annotate_increaseB8ue170006Em, symObjAddr: 0x3EDCC, symBinAddr: 0x100071EE0, symSize: 0xD8 }
  - { offsetInCU: 0x2B71C, offset: 0x866D8, size: 0x8, addend: 0x0, symName: __ZNSt3__16vectorIP14PlayerStrategyNS_9allocatorIS2_EEE21_ConstructTransactionD2B8ue170006Ev, symObjAddr: 0x3EF5C, symBinAddr: 0x100072070, symSize: 0x278 }
  - { offsetInCU: 0x2B746, offset: 0x86702, size: 0x8, addend: 0x0, symName: __ZNKSt3__16vectorIP14PlayerStrategyNS_9allocatorIS2_EEE17__annotate_shrinkB8ue170006Em, symObjAddr: 0x3F1D4, symBinAddr: 0x1000722E8, symSize: 0xC8 }
  - { offsetInCU: 0x2B77B, offset: 0x86737, size: 0x8, addend: 0x0, symName: __ZNKSt3__16vectorIP14PlayerStrategyNS_9allocatorIS2_EEE11__recommendB8ue170006Em, symObjAddr: 0x3F29C, symBinAddr: 0x1000723B0, symSize: 0x384 }
  - { offsetInCU: 0x2B7D7, offset: 0x86793, size: 0x8, addend: 0x0, symName: __ZNSt3__114__split_bufferIP14PlayerStrategyRNS_9allocatorIS2_EEEC1EmmS5_, symObjAddr: 0x3F620, symBinAddr: 0x100072734, symSize: 0x44 }
  - { offsetInCU: 0x2B82D, offset: 0x867E9, size: 0x8, addend: 0x0, symName: __ZNSt3__114__split_bufferIP14PlayerStrategyRNS_9allocatorIS2_EEED1Ev, symObjAddr: 0x3FBD0, symBinAddr: 0x100072CE4, symSize: 0x2C }
  - { offsetInCU: 0x2B859, offset: 0x86815, size: 0x8, addend: 0x0, symName: __ZNKSt3__16vectorIP14PlayerStrategyNS_9allocatorIS2_EEE8max_sizeEv, symObjAddr: 0x3FBFC, symBinAddr: 0x100072D10, symSize: 0x2FC }
  - { offsetInCU: 0x2B882, offset: 0x8683E, size: 0x8, addend: 0x0, symName: __ZNKSt3__16vectorIP14PlayerStrategyNS_9allocatorIS2_EEE20__throw_length_errorB8ue170006Ev, symObjAddr: 0x3FEF8, symBinAddr: 0x10007300C, symSize: 0x20 }
  - { offsetInCU: 0x2B8B2, offset: 0x8686E, size: 0x8, addend: 0x0, symName: __ZNSt3__116allocator_traitsINS_9allocatorIP14PlayerStrategyEEE8max_sizeB8ue170006IS4_vvEEmRKS4_, symObjAddr: 0x3FF18, symBinAddr: 0x10007302C, symSize: 0x28 }
  - { offsetInCU: 0x2B8DD, offset: 0x86899, size: 0x8, addend: 0x0, symName: __ZNKSt3__16vectorIP14PlayerStrategyNS_9allocatorIS2_EEE7__allocB8ue170006Ev, symObjAddr: 0x3FF40, symBinAddr: 0x100073054, symSize: 0x28 }
  - { offsetInCU: 0x2B903, offset: 0x868BF, size: 0x8, addend: 0x0, symName: __ZNKSt3__117__compressed_pairIPP14PlayerStrategyNS_9allocatorIS2_EEE6secondB8ue170006Ev, symObjAddr: 0x3FF68, symBinAddr: 0x10007307C, symSize: 0x24 }
  - { offsetInCU: 0x2B929, offset: 0x868E5, size: 0x8, addend: 0x0, symName: __ZNKSt3__122__compressed_pair_elemINS_9allocatorIP14PlayerStrategyEELi1ELb1EE5__getB8ue170006Ev, symObjAddr: 0x3FF8C, symBinAddr: 0x1000730A0, symSize: 0x14 }
  - { offsetInCU: 0x2B94F, offset: 0x8690B, size: 0x8, addend: 0x0, symName: __ZNSt3__114__split_bufferIP14PlayerStrategyRNS_9allocatorIS2_EEEC2EmmS5_, symObjAddr: 0x3FFA0, symBinAddr: 0x1000730B4, symSize: 0x520 }
  - { offsetInCU: 0x2B9CA, offset: 0x86986, size: 0x8, addend: 0x0, symName: __ZNSt3__117__compressed_pairIPP14PlayerStrategyRNS_9allocatorIS2_EEEC1B8ue170006IDnS6_EEOT_OT0_, symObjAddr: 0x404C0, symBinAddr: 0x1000735D4, symSize: 0x3C }
  - { offsetInCU: 0x2BA22, offset: 0x869DE, size: 0x8, addend: 0x0, symName: __ZNSt3__114__split_bufferIP14PlayerStrategyRNS_9allocatorIS2_EEE7__allocB8ue170006Ev, symObjAddr: 0x40788, symBinAddr: 0x10007389C, symSize: 0x28 }
  - { offsetInCU: 0x2BA48, offset: 0x86A04, size: 0x8, addend: 0x0, symName: __ZNSt3__114__split_bufferIP14PlayerStrategyRNS_9allocatorIS2_EEE9__end_capB8ue170006Ev, symObjAddr: 0x407B0, symBinAddr: 0x1000738C4, symSize: 0x28 }
  - { offsetInCU: 0x2BA6E, offset: 0x86A2A, size: 0x8, addend: 0x0, symName: __ZNSt3__117__compressed_pairIPP14PlayerStrategyRNS_9allocatorIS2_EEEC2B8ue170006IDnS6_EEOT_OT0_, symObjAddr: 0x407D8, symBinAddr: 0x1000738EC, symSize: 0x48 }
  - { offsetInCU: 0x2BAC6, offset: 0x86A82, size: 0x8, addend: 0x0, symName: __ZNSt3__122__compressed_pair_elemIPP14PlayerStrategyLi0ELb0EEC2B8ue170006IDnvEEOT_, symObjAddr: 0x40820, symBinAddr: 0x100073934, symSize: 0x64 }
  - { offsetInCU: 0x2BB08, offset: 0x86AC4, size: 0x8, addend: 0x0, symName: __ZNSt3__122__compressed_pair_elemIRNS_9allocatorIP14PlayerStrategyEELi1ELb0EEC2B8ue170006IS5_vEEOT_, symObjAddr: 0x40884, symBinAddr: 0x100073998, symSize: 0x70 }
  - { offsetInCU: 0x2BB4A, offset: 0x86B06, size: 0x8, addend: 0x0, symName: __ZNSt3__19allocatorIP14PlayerStrategyE8allocateB8ue170006Em, symObjAddr: 0x408F4, symBinAddr: 0x100073A08, symSize: 0x5C }
  - { offsetInCU: 0x2BB7E, offset: 0x86B3A, size: 0x8, addend: 0x0, symName: __ZNSt3__117__compressed_pairIPP14PlayerStrategyRNS_9allocatorIS2_EEE6secondB8ue170006Ev, symObjAddr: 0x40950, symBinAddr: 0x100073A64, symSize: 0x28 }
  - { offsetInCU: 0x2BBA4, offset: 0x86B60, size: 0x8, addend: 0x0, symName: __ZNSt3__122__compressed_pair_elemIRNS_9allocatorIP14PlayerStrategyEELi1ELb0EE5__getB8ue170006Ev, symObjAddr: 0x40978, symBinAddr: 0x100073A8C, symSize: 0x60 }
  - { offsetInCU: 0x2BBCA, offset: 0x86B86, size: 0x8, addend: 0x0, symName: __ZNSt3__117__compressed_pairIPP14PlayerStrategyRNS_9allocatorIS2_EEE5firstB8ue170006Ev, symObjAddr: 0x409D8, symBinAddr: 0x100073AEC, symSize: 0x24 }
  - { offsetInCU: 0x2BBF0, offset: 0x86BAC, size: 0x8, addend: 0x0, symName: __ZNSt3__116reverse_iteratorIPP14PlayerStrategyEC1B8ue170006ES3_, symObjAddr: 0x40EA4, symBinAddr: 0x100073FB8, symSize: 0x34 }
  - { offsetInCU: 0x2BC28, offset: 0x86BE4, size: 0x8, addend: 0x0, symName: __ZNKSt3__116reverse_iteratorIPP14PlayerStrategyE4baseB8ue170006Ev, symObjAddr: 0x40ED8, symBinAddr: 0x100073FEC, symSize: 0x64 }
  - { offsetInCU: 0x2BC4E, offset: 0x86C0A, size: 0x8, addend: 0x0, symName: __ZNKSt3__16vectorIP14PlayerStrategyNS_9allocatorIS2_EEE14__annotate_newB8ue170006Em, symObjAddr: 0x41070, symBinAddr: 0x100074184, symSize: 0xC0 }
  - { offsetInCU: 0x2BC9C, offset: 0x86C58, size: 0x8, addend: 0x0, symName: __ZNKSt3__111__move_loopINS_17_ClassicAlgPolicyEEclB8ue170006INS_16reverse_iteratorIPP14PlayerStrategyEES8_S8_EENS_4pairIT_T1_EESA_T0_SB_, symObjAddr: 0x42A04, symBinAddr: 0x100075B18, symSize: 0x3A8 }
  - { offsetInCU: 0x2BD14, offset: 0x86CD0, size: 0x8, addend: 0x0, symName: __ZNSt3__119__unwrap_range_implINS_16reverse_iteratorIPP14PlayerStrategyEES5_E8__unwrapB8ue170006ES5_S5_, symObjAddr: 0x4388C, symBinAddr: 0x1000769A0, symSize: 0x448 }
  - { offsetInCU: 0x2BD52, offset: 0x86D0E, size: 0x8, addend: 0x0, symName: __ZNSt3__14pairINS_16reverse_iteratorIPP14PlayerStrategyEES5_EC1B8ue170006IS5_S5_LPv0EEEOT_OT0_, symObjAddr: 0x43CD4, symBinAddr: 0x100076DE8, symSize: 0x3C }
  - { offsetInCU: 0x2BDB0, offset: 0x86D6C, size: 0x8, addend: 0x0, symName: __ZNSt3__14pairINS_16reverse_iteratorIPP14PlayerStrategyEES5_EC2B8ue170006IS5_S5_LPv0EEEOT_OT0_, symObjAddr: 0x43D10, symBinAddr: 0x100076E24, symSize: 0x54 }
  - { offsetInCU: 0x2BE13, offset: 0x86DCF, size: 0x8, addend: 0x0, symName: __ZNSt3__18_IterOpsINS_17_ClassicAlgPolicyEE11__iter_moveB8ue170006IRNS_16reverse_iteratorIPP14PlayerStrategyEEEENS_9enable_ifIXsr12is_referenceIDTdeclsr3stdE7declvalIRT_EEEEE5valueEDTclsr3stdE4movedeclsr3stdE7declvalISC_EEEEE4typeEOSB_, symObjAddr: 0x43DAC, symBinAddr: 0x100076EC0, symSize: 0x28 }
  - { offsetInCU: 0x2BE3F, offset: 0x86DFB, size: 0x8, addend: 0x0, symName: __ZNKSt3__116reverse_iteratorIPP14PlayerStrategyEdeB8ue170006Ev, symObjAddr: 0x43DD4, symBinAddr: 0x100076EE8, symSize: 0x74 }
  - { offsetInCU: 0x2BE73, offset: 0x86E2F, size: 0x8, addend: 0x0, symName: __ZNSt3__116reverse_iteratorIPP14PlayerStrategyEppB8ue170006Ev, symObjAddr: 0x43E48, symBinAddr: 0x100076F5C, symSize: 0x6C }
  - { offsetInCU: 0x2BE99, offset: 0x86E55, size: 0x8, addend: 0x0, symName: __ZNSt3__18_IterOpsINS_17_ClassicAlgPolicyEE25__validate_iter_referenceB8ue170006IRNS_16reverse_iteratorIPP14PlayerStrategyEEEEvv, symObjAddr: 0x43EB4, symBinAddr: 0x100076FC8, symSize: 0x4 }
  - { offsetInCU: 0x2BEB7, offset: 0x86E73, size: 0x8, addend: 0x0, symName: __ZNSt3__118__unwrap_iter_implINS_16reverse_iteratorIPP14PlayerStrategyEELb0EE8__unwrapB8ue170006ES5_, symObjAddr: 0x43EB8, symBinAddr: 0x100076FCC, symSize: 0x274 }
  - { offsetInCU: 0x2BEDE, offset: 0x86E9A, size: 0x8, addend: 0x0, symName: __ZNSt3__119__unwrap_range_implINS_16reverse_iteratorIPP14PlayerStrategyEES5_E8__rewrapB8ue170006ES5_S5_, symObjAddr: 0x4412C, symBinAddr: 0x100077240, symSize: 0x3D4 }
  - { offsetInCU: 0x2BF17, offset: 0x86ED3, size: 0x8, addend: 0x0, symName: __ZNSt3__118__unwrap_iter_implINS_16reverse_iteratorIPP14PlayerStrategyEELb0EE8__rewrapB8ue170006ES5_S5_, symObjAddr: 0x44500, symBinAddr: 0x100077614, symSize: 0x2E0 }
  - { offsetInCU: 0x2BF4D, offset: 0x86F09, size: 0x8, addend: 0x0, symName: __ZNSt3__116reverse_iteratorIPP14PlayerStrategyEC2B8ue170006ES3_, symObjAddr: 0x447E0, symBinAddr: 0x1000778F4, symSize: 0xB8 }
  - { offsetInCU: 0x2BF85, offset: 0x86F41, size: 0x8, addend: 0x0, symName: __ZNSt3__114__split_bufferIP14PlayerStrategyRNS_9allocatorIS2_EEED2Ev, symObjAddr: 0x44898, symBinAddr: 0x1000779AC, symSize: 0x104 }
  - { offsetInCU: 0x2BFB1, offset: 0x86F6D, size: 0x8, addend: 0x0, symName: __ZNSt3__114__split_bufferIP14PlayerStrategyRNS_9allocatorIS2_EEE5clearB8ue170006Ev, symObjAddr: 0x4499C, symBinAddr: 0x100077AB0, symSize: 0x68 }
  - { offsetInCU: 0x2BFD7, offset: 0x86F93, size: 0x8, addend: 0x0, symName: __ZNKSt3__114__split_bufferIP14PlayerStrategyRNS_9allocatorIS2_EEE8capacityB8ue170006Ev, symObjAddr: 0x44A04, symBinAddr: 0x100077B18, symSize: 0xBC }
  - { offsetInCU: 0x2BFFD, offset: 0x86FB9, size: 0x8, addend: 0x0, symName: __ZNSt3__114__split_bufferIP14PlayerStrategyRNS_9allocatorIS2_EEE17__destruct_at_endB8ue170006EPS2_, symObjAddr: 0x44AC0, symBinAddr: 0x100077BD4, symSize: 0x2C }
  - { offsetInCU: 0x2C031, offset: 0x86FED, size: 0x8, addend: 0x0, symName: __ZNSt3__114__split_bufferIP14PlayerStrategyRNS_9allocatorIS2_EEE17__destruct_at_endB8ue170006EPS2_NS_17integral_constantIbLb0EEE, symObjAddr: 0x44AEC, symBinAddr: 0x100077C00, symSize: 0x10C }
  - { offsetInCU: 0x2C072, offset: 0x8702E, size: 0x8, addend: 0x0, symName: __ZNKSt3__114__split_bufferIP14PlayerStrategyRNS_9allocatorIS2_EEE9__end_capB8ue170006Ev, symObjAddr: 0x44BF8, symBinAddr: 0x100077D0C, symSize: 0x28 }
  - { offsetInCU: 0x2C098, offset: 0x87054, size: 0x8, addend: 0x0, symName: __ZNKSt3__117__compressed_pairIPP14PlayerStrategyRNS_9allocatorIS2_EEE5firstB8ue170006Ev, symObjAddr: 0x44C20, symBinAddr: 0x100077D34, symSize: 0x24 }
  - { offsetInCU: 0x2C0BE, offset: 0x8707A, size: 0x8, addend: 0x0, symName: __ZNSt3__16vectorIP11LogObserverNS_9allocatorIS2_EEE11__make_iterB8ue170006EPS2_, symObjAddr: 0x44C44, symBinAddr: 0x100077D58, symSize: 0x1FC }
  - { offsetInCU: 0x2C0F5, offset: 0x870B1, size: 0x8, addend: 0x0, symName: __ZNSt3__111__wrap_iterIPP11LogObserverEC1B8ue170006ES3_, symObjAddr: 0x44E40, symBinAddr: 0x100077F54, symSize: 0x34 }
  - { offsetInCU: 0x2C12D, offset: 0x870E9, size: 0x8, addend: 0x0, symName: __ZNSt3__111__wrap_iterIPP11LogObserverEC2B8ue170006ES3_, symObjAddr: 0x44E74, symBinAddr: 0x100077F88, symSize: 0x70 }
  - { offsetInCU: 0x2C165, offset: 0x87121, size: 0x8, addend: 0x0, symName: __ZNKSt3__111__wrap_iterIPP11LogObserverE4baseB8ue170006Ev, symObjAddr: 0x44F2C, symBinAddr: 0x100078040, symSize: 0x60 }
  - { offsetInCU: 0x2C18B, offset: 0x87147, size: 0x8, addend: 0x0, symName: __ZNSt3__16vectorIP6PlayerNS_9allocatorIS2_EEE7__clearB8ue170006Ev, symObjAddr: 0x44F8C, symBinAddr: 0x1000780A0, symSize: 0x64 }
  - { offsetInCU: 0x2C1ED, offset: 0x871A9, size: 0x8, addend: 0x0, symName: __ZNSt3__16__treeINS_12__value_typeINS_12basic_stringIcNS_11char_traitsIcEENS_9allocatorIcEEEENS_6vectorIS7_NS5_IS7_EEEEEENS_19__map_value_compareIS7_SB_NS_4lessIS7_EELb1EEENS5_ISB_EEE5beginB8ue170006Ev, symObjAddr: 0x481F8, symBinAddr: 0x100078104, symSize: 0x238 }
  - { offsetInCU: 0x2C214, offset: 0x871D0, size: 0x8, addend: 0x0, symName: __ZNSt3__114__map_iteratorINS_15__tree_iteratorINS_12__value_typeINS_12basic_stringIcNS_11char_traitsIcEENS_9allocatorIcEEEENS_6vectorIS8_NS6_IS8_EEEEEEPNS_11__tree_nodeISC_PvEElEEEC1B8ue170006ESH_, symObjAddr: 0x48430, symBinAddr: 0x10007833C, symSize: 0x238 }
  - { offsetInCU: 0x2C252, offset: 0x8720E, size: 0x8, addend: 0x0, symName: __ZNSt3__115__tree_iteratorINS_12__value_typeINS_12basic_stringIcNS_11char_traitsIcEENS_9allocatorIcEEEENS_6vectorIS7_NS5_IS7_EEEEEEPNS_11__tree_nodeISB_PvEElEC1B8ue170006EPNS_15__tree_end_nodeIPNS_16__tree_node_baseISD_EEEE, symObjAddr: 0x48668, symBinAddr: 0x100078574, symSize: 0x34 }
  - { offsetInCU: 0x2C28B, offset: 0x87247, size: 0x8, addend: 0x0, symName: __ZNSt3__115__tree_iteratorINS_12__value_typeINS_12basic_stringIcNS_11char_traitsIcEENS_9allocatorIcEEEENS_6vectorIS7_NS5_IS7_EEEEEEPNS_11__tree_nodeISB_PvEElEC2B8ue170006EPNS_15__tree_end_nodeIPNS_16__tree_node_baseISD_EEEE, symObjAddr: 0x4869C, symBinAddr: 0x1000785A8, symSize: 0x70 }
  - { offsetInCU: 0x2C2C4, offset: 0x87280, size: 0x8, addend: 0x0, symName: __ZNSt3__114__map_iteratorINS_15__tree_iteratorINS_12__value_typeINS_12basic_stringIcNS_11char_traitsIcEENS_9allocatorIcEEEENS_6vectorIS8_NS6_IS8_EEEEEEPNS_11__tree_nodeISC_PvEElEEEC2B8ue170006ESH_, symObjAddr: 0x4870C, symBinAddr: 0x100078618, symSize: 0x204 }
  - { offsetInCU: 0x2C302, offset: 0x872BE, size: 0x8, addend: 0x0, symName: __ZNSt3__16__treeINS_12__value_typeINS_12basic_stringIcNS_11char_traitsIcEENS_9allocatorIcEEEENS_6vectorIS7_NS5_IS7_EEEEEENS_19__map_value_compareIS7_SB_NS_4lessIS7_EELb1EEENS5_ISB_EEE3endB8ue170006Ev, symObjAddr: 0x48910, symBinAddr: 0x10007881C, symSize: 0x204 }
  - { offsetInCU: 0x2C329, offset: 0x872E5, size: 0x8, addend: 0x0, symName: __ZNSt3__115__tree_iteratorINS_12__value_typeINS_12basic_stringIcNS_11char_traitsIcEENS_9allocatorIcEEEENS_6vectorIS7_NS5_IS7_EEEEEEPNS_11__tree_nodeISB_PvEElEppB8ue170006Ev, symObjAddr: 0x48C00, symBinAddr: 0x100078B0C, symSize: 0xA8 }
  - { offsetInCU: 0x2C34F, offset: 0x8730B, size: 0x8, addend: 0x0, symName: __ZNKSt3__115__tree_iteratorINS_12__value_typeINS_12basic_stringIcNS_11char_traitsIcEENS_9allocatorIcEEEENS_6vectorIS7_NS5_IS7_EEEEEEPNS_11__tree_nodeISB_PvEElEptB8ue170006Ev, symObjAddr: 0x48FD8, symBinAddr: 0x100078BB4, symSize: 0x2C }
  - { offsetInCU: 0x2C375, offset: 0x87331, size: 0x8, addend: 0x0, symName: __ZNSt3__114pointer_traitsIPNS_12__value_typeINS_12basic_stringIcNS_11char_traitsIcEENS_9allocatorIcEEEENS_6vectorIS7_NS5_IS7_EEEEEEE10pointer_toB8ue170006ERSB_, symObjAddr: 0x49004, symBinAddr: 0x100078BE0, symSize: 0x14 }
  - { offsetInCU: 0x2C398, offset: 0x87354, size: 0x8, addend: 0x0, symName: __ZNKSt3__115__tree_iteratorINS_12__value_typeINS_12basic_stringIcNS_11char_traitsIcEENS_9allocatorIcEEEENS_6vectorIS7_NS5_IS7_EEEEEEPNS_11__tree_nodeISB_PvEElE8__get_npB8ue170006Ev, symObjAddr: 0x49018, symBinAddr: 0x100078BF4, symSize: 0x60 }
  - { offsetInCU: 0x2C3BE, offset: 0x8737A, size: 0x8, addend: 0x0, symName: __ZNSt3__126linear_congruential_engineIjLj48271ELj0ELj2147483647EEC1B8ue170006Ej, symObjAddr: 0x498F0, symBinAddr: 0x100078C54, symSize: 0x34 }
  - { offsetInCU: 0x2C3F6, offset: 0x873B2, size: 0x8, addend: 0x0, symName: __ZNSt3__126linear_congruential_engineIjLj48271ELj0ELj2147483647EEC2B8ue170006Ej, symObjAddr: 0x49924, symBinAddr: 0x100078C88, symSize: 0x34 }
  - { offsetInCU: 0x2C42E, offset: 0x873EA, size: 0x8, addend: 0x0, symName: __ZNSt3__126linear_congruential_engineIjLj48271ELj0ELj2147483647EE4seedB8ue170006Ej, symObjAddr: 0x49958, symBinAddr: 0x100078CBC, symSize: 0x2C }
  - { offsetInCU: 0x2C462, offset: 0x8741E, size: 0x8, addend: 0x0, symName: __ZNSt3__126linear_congruential_engineIjLj48271ELj0ELj2147483647EE4seedB8ue170006ENS_17integral_constantIbLb0EEENS2_IbLb1EEEj, symObjAddr: 0x49984, symBinAddr: 0x100078CE8, symSize: 0xF0 }
  - { offsetInCU: 0x2C4AD, offset: 0x87469, size: 0x8, addend: 0x0, symName: __ZNSt3__18_IterOpsINS_17_ClassicAlgPolicyEE4nextB8ue170006INS_11__wrap_iterIPP6PlayerEEEET_S9_S9_, symObjAddr: 0x4A028, symBinAddr: 0x10007938C, symSize: 0x2D4 }
  - { offsetInCU: 0x2C4EC, offset: 0x874A8, size: 0x8, addend: 0x0, symName: __ZNSt3__124uniform_int_distributionIlEC1B8ue170006Ev, symObjAddr: 0x4A344, symBinAddr: 0x1000796A8, symSize: 0x3C }
  - { offsetInCU: 0x2C516, offset: 0x874D2, size: 0x8, addend: 0x0, symName: __ZNSt3__111__wrap_iterIPP6PlayerEmmB8ue170006Ev, symObjAddr: 0x4A380, symBinAddr: 0x1000796E4, symSize: 0x68 }
  - { offsetInCU: 0x2C53C, offset: 0x874F8, size: 0x8, addend: 0x0, symName: __ZNSt3__124uniform_int_distributionIlE10param_typeC1B8ue170006Ell, symObjAddr: 0x4A7F4, symBinAddr: 0x100079B58, symSize: 0x3C }
  - { offsetInCU: 0x2C587, offset: 0x87543, size: 0x8, addend: 0x0, symName: __ZNSt3__18_IterOpsINS_17_ClassicAlgPolicyEE9iter_swapB8ue170006IRNS_11__wrap_iterIPP6PlayerEES8_EEvOT_OT0_, symObjAddr: 0x4A830, symBinAddr: 0x100079B94, symSize: 0x290 }
  - { offsetInCU: 0x2C5CC, offset: 0x87588, size: 0x8, addend: 0x0, symName: __ZNSt3__124uniform_int_distributionIlEC1B8ue170006Ell, symObjAddr: 0x4AAC0, symBinAddr: 0x100079E24, symSize: 0x3C }
  - { offsetInCU: 0x2C612, offset: 0x875CE, size: 0x8, addend: 0x0, symName: __ZNSt3__124uniform_int_distributionIlEC2B8ue170006Ell, symObjAddr: 0x4AAFC, symBinAddr: 0x100079E60, symSize: 0x3C }
  - { offsetInCU: 0x2C658, offset: 0x87614, size: 0x8, addend: 0x0, symName: __ZNKSt3__124uniform_int_distributionIlE10param_type1bB8ue170006Ev, symObjAddr: 0x4AB38, symBinAddr: 0x100079E9C, symSize: 0x64 }
  - { offsetInCU: 0x2C67E, offset: 0x8763A, size: 0x8, addend: 0x0, symName: __ZNKSt3__124uniform_int_distributionIlE10param_type1aB8ue170006Ev, symObjAddr: 0x4AB9C, symBinAddr: 0x100079F00, symSize: 0x60 }
  - { offsetInCU: 0x2C6A4, offset: 0x87660, size: 0x8, addend: 0x0, symName: __ZNSt3__125__independent_bits_engineINS_26linear_congruential_engineIjLj48271ELj0ELj2147483647EEEmEC1ERS2_m, symObjAddr: 0x4ABFC, symBinAddr: 0x100079F60, symSize: 0x3C }
  - { offsetInCU: 0x2C6EB, offset: 0x876A7, size: 0x8, addend: 0x0, symName: __ZNSt3__125__independent_bits_engineINS_26linear_congruential_engineIjLj48271ELj0ELj2147483647EEEmEclB8ue170006Ev, symObjAddr: 0x4AC38, symBinAddr: 0x100079F9C, symSize: 0x24 }
  - { offsetInCU: 0x2C711, offset: 0x876CD, size: 0x8, addend: 0x0, symName: __ZNSt3__125__independent_bits_engineINS_26linear_congruential_engineIjLj48271ELj0ELj2147483647EEEmEC2ERS2_m, symObjAddr: 0x4ACB0, symBinAddr: 0x10007A014, symSize: 0xB9C }
  - { offsetInCU: 0x2C758, offset: 0x87714, size: 0x8, addend: 0x0, symName: __ZNSt3__125__independent_bits_engineINS_26linear_congruential_engineIjLj48271ELj0ELj2147483647EEEmE6__evalENS_17integral_constantIbLb1EEE, symObjAddr: 0x4B84C, symBinAddr: 0x10007ABB0, symSize: 0x52C }
  - { offsetInCU: 0x2C818, offset: 0x877D4, size: 0x8, addend: 0x0, symName: __ZNSt3__126linear_congruential_engineIjLj48271ELj0ELj2147483647EEclB8ue170006Ev, symObjAddr: 0x4BD78, symBinAddr: 0x10007B0DC, symSize: 0xF8 }
  - { offsetInCU: 0x2C83E, offset: 0x877FA, size: 0x8, addend: 0x0, symName: __ZNSt3__126linear_congruential_engineIjLj48271ELj0ELj2147483647EE3minB8ue170006Ev, symObjAddr: 0x4BE70, symBinAddr: 0x10007B1D4, symSize: 0x8 }
  - { offsetInCU: 0x2C85D, offset: 0x87819, size: 0x8, addend: 0x0, symName: __ZNSt3__18__lce_taILy48271ELy0ELy2147483647ELy4294967295ELb1EE4nextB8ue170006Ej, symObjAddr: 0x4BE78, symBinAddr: 0x10007B1DC, symSize: 0x88 }
  - { offsetInCU: 0x2C8D4, offset: 0x87890, size: 0x8, addend: 0x0, symName: __ZNSt3__124uniform_int_distributionIlE10param_typeC2B8ue170006Ell, symObjAddr: 0x4BF1C, symBinAddr: 0x10007B280, symSize: 0xBC }
  - { offsetInCU: 0x2C92E, offset: 0x878EA, size: 0x8, addend: 0x0, symName: __ZNSt3__16__treeINS_12__value_typeINS_12basic_stringIcNS_11char_traitsIcEENS_9allocatorIcEEEENS_6vectorIS7_NS5_IS7_EEEEEENS_19__map_value_compareIS7_SB_NS_4lessIS7_EELb1EEENS5_ISB_EEE25__emplace_unique_key_argsIS7_JRKNS_21piecewise_construct_tENS_5tupleIJRKS7_EEENSM_IJEEEEEENS_4pairINS_15__tree_iteratorISB_PNS_11__tree_nodeISB_PvEElEEbEERKT_DpOT0_, symObjAddr: 0x4C394, symBinAddr: 0x10007B6F8, symSize: 0x520 }
  - { offsetInCU: 0x2CA14, offset: 0x879D0, size: 0x8, addend: 0x0, symName: __ZNSt3__16__treeINS_12__value_typeINS_12basic_stringIcNS_11char_traitsIcEENS_9allocatorIcEEEENS_6vectorIS7_NS5_IS7_EEEEEENS_19__map_value_compareIS7_SB_NS_4lessIS7_EELb1EEENS5_ISB_EEE12__find_equalIS7_EERPNS_16__tree_node_baseIPvEERPNS_15__tree_end_nodeISM_EERKT_, symObjAddr: 0x4CAB0, symBinAddr: 0x10007BE14, symSize: 0x3F0 }
  - { offsetInCU: 0x2CA81, offset: 0x87A3D, size: 0x8, addend: 0x0, symName: __ZNSt3__16__treeINS_12__value_typeINS_12basic_stringIcNS_11char_traitsIcEENS_9allocatorIcEEEENS_6vectorIS7_NS5_IS7_EEEEEENS_19__map_value_compareIS7_SB_NS_4lessIS7_EELb1EEENS5_ISB_EEE16__construct_nodeIJRKNS_21piecewise_construct_tENS_5tupleIJRKS7_EEENSM_IJEEEEEENS_10unique_ptrINS_11__tree_nodeISB_PvEENS_22__tree_node_destructorINS5_ISU_EEEEEEDpOT_, symObjAddr: 0x4CEA0, symBinAddr: 0x10007C204, symSize: 0x394 }
  - { offsetInCU: 0x2CB10, offset: 0x87ACC, size: 0x8, addend: 0x0, symName: __ZNSt3__16__treeINS_12__value_typeINS_12basic_stringIcNS_11char_traitsIcEENS_9allocatorIcEEEENS_6vectorIS7_NS5_IS7_EEEEEENS_19__map_value_compareIS7_SB_NS_4lessIS7_EELb1EEENS5_ISB_EEE16__insert_node_atEPNS_15__tree_end_nodeIPNS_16__tree_node_baseIPvEEEERSM_SM_, symObjAddr: 0x4D234, symBinAddr: 0x10007C598, symSize: 0x370 }
  - { offsetInCU: 0x2CB65, offset: 0x87B21, size: 0x8, addend: 0x0, symName: __ZNKSt3__110unique_ptrINS_11__tree_nodeINS_12__value_typeINS_12basic_stringIcNS_11char_traitsIcEENS_9allocatorIcEEEENS_6vectorIS8_NS6_IS8_EEEEEEPvEENS_22__tree_node_destructorINS6_ISE_EEEEE3getB8ue170006Ev, symObjAddr: 0x4D5A4, symBinAddr: 0x10007C908, symSize: 0x6C }
  - { offsetInCU: 0x2CB8B, offset: 0x87B47, size: 0x8, addend: 0x0, symName: __ZNSt3__110unique_ptrINS_11__tree_nodeINS_12__value_typeINS_12basic_stringIcNS_11char_traitsIcEENS_9allocatorIcEEEENS_6vectorIS8_NS6_IS8_EEEEEEPvEENS_22__tree_node_destructorINS6_ISE_EEEEE7releaseB8ue170006Ev, symObjAddr: 0x4D610, symBinAddr: 0x10007C974, symSize: 0xB8 }
  - { offsetInCU: 0x2CBC0, offset: 0x87B7C, size: 0x8, addend: 0x0, symName: __ZNSt3__110unique_ptrINS_11__tree_nodeINS_12__value_typeINS_12basic_stringIcNS_11char_traitsIcEENS_9allocatorIcEEEENS_6vectorIS8_NS6_IS8_EEEEEEPvEENS_22__tree_node_destructorINS6_ISE_EEEEED1B8ue170006Ev, symObjAddr: 0x4D6C8, symBinAddr: 0x10007CA2C, symSize: 0x2C }
  - { offsetInCU: 0x2CBEA, offset: 0x87BA6, size: 0x8, addend: 0x0, symName: __ZNSt3__115__tree_iteratorINS_12__value_typeINS_12basic_stringIcNS_11char_traitsIcEENS_9allocatorIcEEEENS_6vectorIS7_NS5_IS7_EEEEEEPNS_11__tree_nodeISB_PvEElEC1B8ue170006ESF_, symObjAddr: 0x4D6F4, symBinAddr: 0x10007CA58, symSize: 0x34 }
  - { offsetInCU: 0x2CC28, offset: 0x87BE4, size: 0x8, addend: 0x0, symName: __ZNSt3__14pairINS_15__tree_iteratorINS_12__value_typeINS_12basic_stringIcNS_11char_traitsIcEENS_9allocatorIcEEEENS_6vectorIS8_NS6_IS8_EEEEEEPNS_11__tree_nodeISC_PvEElEEbEC1B8ue170006ISH_RbLSE_0EEEOT_OT0_, symObjAddr: 0x4D728, symBinAddr: 0x10007CA8C, symSize: 0x3C }
  - { offsetInCU: 0x2CC86, offset: 0x87C42, size: 0x8, addend: 0x0, symName: __ZNKSt3__16__treeINS_12__value_typeINS_12basic_stringIcNS_11char_traitsIcEENS_9allocatorIcEEEENS_6vectorIS7_NS5_IS7_EEEEEENS_19__map_value_compareIS7_SB_NS_4lessIS7_EELb1EEENS5_ISB_EEE10__root_ptrB8ue170006Ev, symObjAddr: 0x4D764, symBinAddr: 0x10007CAC8, symSize: 0x24 }
  - { offsetInCU: 0x2CCAC, offset: 0x87C68, size: 0x8, addend: 0x0, symName: __ZNSt3__16__treeINS_12__value_typeINS_12basic_stringIcNS_11char_traitsIcEENS_9allocatorIcEEEENS_6vectorIS7_NS5_IS7_EEEEEENS_19__map_value_compareIS7_SB_NS_4lessIS7_EELb1EEENS5_ISB_EEE10value_compB8ue170006Ev, symObjAddr: 0x4D788, symBinAddr: 0x10007CAEC, symSize: 0x28 }
  - { offsetInCU: 0x2CCD2, offset: 0x87C8E, size: 0x8, addend: 0x0, symName: __ZNKSt3__119__map_value_compareINS_12basic_stringIcNS_11char_traitsIcEENS_9allocatorIcEEEENS_12__value_typeIS6_NS_6vectorIS6_NS4_IS6_EEEEEENS_4lessIS6_EELb1EEclB8ue170006ERKS6_RKSB_, symObjAddr: 0x4D7B0, symBinAddr: 0x10007CB14, symSize: 0x50 }
  - { offsetInCU: 0x2CD16, offset: 0x87CD2, size: 0x8, addend: 0x0, symName: __ZNKSt3__119__map_value_compareINS_12basic_stringIcNS_11char_traitsIcEENS_9allocatorIcEEEENS_12__value_typeIS6_NS_6vectorIS6_NS4_IS6_EEEEEENS_4lessIS6_EELb1EEclB8ue170006ERKSB_RKS6_, symObjAddr: 0x4D800, symBinAddr: 0x10007CB64, symSize: 0x48 }
  - { offsetInCU: 0x2CD5A, offset: 0x87D16, size: 0x8, addend: 0x0, symName: __ZNSt3__117__compressed_pairImNS_19__map_value_compareINS_12basic_stringIcNS_11char_traitsIcEENS_9allocatorIcEEEENS_12__value_typeIS7_NS_6vectorIS7_NS5_IS7_EEEEEENS_4lessIS7_EELb1EEEE6secondB8ue170006Ev, symObjAddr: 0x4D848, symBinAddr: 0x10007CBAC, symSize: 0x24 }
  - { offsetInCU: 0x2CD80, offset: 0x87D3C, size: 0x8, addend: 0x0, symName: __ZNSt3__122__compressed_pair_elemINS_19__map_value_compareINS_12basic_stringIcNS_11char_traitsIcEENS_9allocatorIcEEEENS_12__value_typeIS7_NS_6vectorIS7_NS5_IS7_EEEEEENS_4lessIS7_EELb1EEELi1ELb1EE5__getB8ue170006Ev, symObjAddr: 0x4D86C, symBinAddr: 0x10007CBD0, symSize: 0x14 }
  - { offsetInCU: 0x2CDA6, offset: 0x87D62, size: 0x8, addend: 0x0, symName: __ZNKSt3__112__value_typeINS_12basic_stringIcNS_11char_traitsIcEENS_9allocatorIcEEEENS_6vectorIS6_NS4_IS6_EEEEE11__get_valueB8ue170006Ev, symObjAddr: 0x4DB2C, symBinAddr: 0x10007CBE4, symSize: 0x24 }
  - { offsetInCU: 0x2CDCC, offset: 0x87D88, size: 0x8, addend: 0x0, symName: __ZNSt3__116allocator_traitsINS_9allocatorINS_11__tree_nodeINS_12__value_typeINS_12basic_stringIcNS_11char_traitsIcEENS1_IcEEEENS_6vectorIS8_NS1_IS8_EEEEEEPvEEEEE8allocateB8ue170006ERSF_m, symObjAddr: 0x4E5DC, symBinAddr: 0x10007CC40, symSize: 0x2C }
  - { offsetInCU: 0x2CDFF, offset: 0x87DBB, size: 0x8, addend: 0x0, symName: __ZNSt3__122__tree_node_destructorINS_9allocatorINS_11__tree_nodeINS_12__value_typeINS_12basic_stringIcNS_11char_traitsIcEENS1_IcEEEENS_6vectorIS8_NS1_IS8_EEEEEEPvEEEEEC1B8ue170006ERSF_b, symObjAddr: 0x4E608, symBinAddr: 0x10007CC6C, symSize: 0x48 }
  - { offsetInCU: 0x2CE4C, offset: 0x87E08, size: 0x8, addend: 0x0, symName: __ZNSt3__110unique_ptrINS_11__tree_nodeINS_12__value_typeINS_12basic_stringIcNS_11char_traitsIcEENS_9allocatorIcEEEENS_6vectorIS8_NS6_IS8_EEEEEEPvEENS_22__tree_node_destructorINS6_ISE_EEEEEC1B8ue170006ILb1EvEEPSE_NS_16__dependent_typeINS_27__unique_ptr_deleter_sfinaeISH_EEXT_EE20__good_rval_ref_typeE, symObjAddr: 0x4E650, symBinAddr: 0x10007CCB4, symSize: 0x3C }
  - { offsetInCU: 0x2CE9D, offset: 0x87E59, size: 0x8, addend: 0x0, symName: __ZNSt3__116allocator_traitsINS_9allocatorINS_11__tree_nodeINS_12__value_typeINS_12basic_stringIcNS_11char_traitsIcEENS1_IcEEEENS_6vectorIS8_NS1_IS8_EEEEEEPvEEEEE9constructB8ue170006INS_4pairIKS8_SB_EEJRKNS_21piecewise_construct_tENS_5tupleIJRSJ_EEENSO_IJEEEEvvEEvRSF_PT_DpOT0_, symObjAddr: 0x4E68C, symBinAddr: 0x10007CCF0, symSize: 0x40 }
  - { offsetInCU: 0x2CF19, offset: 0x87ED5, size: 0x8, addend: 0x0, symName: __ZNKSt3__110unique_ptrINS_11__tree_nodeINS_12__value_typeINS_12basic_stringIcNS_11char_traitsIcEENS_9allocatorIcEEEENS_6vectorIS8_NS6_IS8_EEEEEEPvEENS_22__tree_node_destructorINS6_ISE_EEEEEptB8ue170006Ev, symObjAddr: 0x4E6CC, symBinAddr: 0x10007CD30, symSize: 0x6C }
  - { offsetInCU: 0x2CF3F, offset: 0x87EFB, size: 0x8, addend: 0x0, symName: __ZNSt3__110unique_ptrINS_11__tree_nodeINS_12__value_typeINS_12basic_stringIcNS_11char_traitsIcEENS_9allocatorIcEEEENS_6vectorIS8_NS6_IS8_EEEEEEPvEENS_22__tree_node_destructorINS6_ISE_EEEEE11get_deleterB8ue170006Ev, symObjAddr: 0x4E738, symBinAddr: 0x10007CD9C, symSize: 0x24 }
  - { offsetInCU: 0x2CF65, offset: 0x87F21, size: 0x8, addend: 0x0, symName: __ZNSt3__19allocatorINS_11__tree_nodeINS_12__value_typeINS_12basic_stringIcNS_11char_traitsIcEENS0_IcEEEENS_6vectorIS7_NS0_IS7_EEEEEEPvEEE8allocateB8ue170006Em, symObjAddr: 0x4E75C, symBinAddr: 0x10007CDC0, symSize: 0x60 }
  - { offsetInCU: 0x2CFA3, offset: 0x87F5F, size: 0x8, addend: 0x0, symName: __ZNSt3__116allocator_traitsINS_9allocatorINS_11__tree_nodeINS_12__value_typeINS_12basic_stringIcNS_11char_traitsIcEENS1_IcEEEENS_6vectorIS8_NS1_IS8_EEEEEEPvEEEEE8max_sizeB8ue170006ISF_vvEEmRKSF_, symObjAddr: 0x4E7BC, symBinAddr: 0x10007CE20, symSize: 0x28 }
  - { offsetInCU: 0x2CFCE, offset: 0x87F8A, size: 0x8, addend: 0x0, symName: __ZNSt3__122__tree_node_destructorINS_9allocatorINS_11__tree_nodeINS_12__value_typeINS_12basic_stringIcNS_11char_traitsIcEENS1_IcEEEENS_6vectorIS8_NS1_IS8_EEEEEEPvEEEEEC2B8ue170006ERSF_b, symObjAddr: 0x4E7E4, symBinAddr: 0x10007CE48, symSize: 0xF0 }
  - { offsetInCU: 0x2D016, offset: 0x87FD2, size: 0x8, addend: 0x0, symName: __ZNSt3__110unique_ptrINS_11__tree_nodeINS_12__value_typeINS_12basic_stringIcNS_11char_traitsIcEENS_9allocatorIcEEEENS_6vectorIS8_NS6_IS8_EEEEEEPvEENS_22__tree_node_destructorINS6_ISE_EEEEEC2B8ue170006ILb1EvEEPSE_NS_16__dependent_typeINS_27__unique_ptr_deleter_sfinaeISH_EEXT_EE20__good_rval_ref_typeE, symObjAddr: 0x4E8D4, symBinAddr: 0x10007CF38, symSize: 0x21C }
  - { offsetInCU: 0x2D06D, offset: 0x88029, size: 0x8, addend: 0x0, symName: __ZNSt3__117__compressed_pairIPNS_11__tree_nodeINS_12__value_typeINS_12basic_stringIcNS_11char_traitsIcEENS_9allocatorIcEEEENS_6vectorIS8_NS6_IS8_EEEEEEPvEENS_22__tree_node_destructorINS6_ISE_EEEEEC1B8ue170006IRSF_SI_EEOT_OT0_, symObjAddr: 0x4EAF0, symBinAddr: 0x10007D154, symSize: 0x3C }
  - { offsetInCU: 0x2D0C5, offset: 0x88081, size: 0x8, addend: 0x0, symName: __ZNSt3__117__compressed_pairIPNS_11__tree_nodeINS_12__value_typeINS_12basic_stringIcNS_11char_traitsIcEENS_9allocatorIcEEEENS_6vectorIS8_NS6_IS8_EEEEEEPvEENS_22__tree_node_destructorINS6_ISE_EEEEEC2B8ue170006IRSF_SI_EEOT_OT0_, symObjAddr: 0x4EB2C, symBinAddr: 0x10007D190, symSize: 0x48 }
  - { offsetInCU: 0x2D11D, offset: 0x880D9, size: 0x8, addend: 0x0, symName: __ZNSt3__122__compressed_pair_elemIPNS_11__tree_nodeINS_12__value_typeINS_12basic_stringIcNS_11char_traitsIcEENS_9allocatorIcEEEENS_6vectorIS8_NS6_IS8_EEEEEEPvEELi0ELb0EEC2B8ue170006IRSF_vEEOT_, symObjAddr: 0x4EB74, symBinAddr: 0x10007D1D8, symSize: 0xB0 }
  - { offsetInCU: 0x2D15F, offset: 0x8811B, size: 0x8, addend: 0x0, symName: __ZNSt3__122__compressed_pair_elemINS_22__tree_node_destructorINS_9allocatorINS_11__tree_nodeINS_12__value_typeINS_12basic_stringIcNS_11char_traitsIcEENS2_IcEEEENS_6vectorIS9_NS2_IS9_EEEEEEPvEEEEEELi1ELb0EEC2B8ue170006ISH_vEEOT_, symObjAddr: 0x4EC24, symBinAddr: 0x10007D288, symSize: 0x38 }
  - { offsetInCU: 0x2D1A1, offset: 0x8815D, size: 0x8, addend: 0x0, symName: __ZNSt3__14pairIKNS_12basic_stringIcNS_11char_traitsIcEENS_9allocatorIcEEEENS_6vectorIS6_NS4_IS6_EEEEEC1B8ue170006IJRS7_EJEEENS_21piecewise_construct_tENS_5tupleIJDpT_EEENSF_IJDpT0_EEE, symObjAddr: 0x4EE78, symBinAddr: 0x10007D4DC, symSize: 0x234 }
  - { offsetInCU: 0x2D212, offset: 0x881CE, size: 0x8, addend: 0x0, symName: __ZNSt3__14pairIKNS_12basic_stringIcNS_11char_traitsIcEENS_9allocatorIcEEEENS_6vectorIS6_NS4_IS6_EEEEEC1B8ue170006IJRS7_EJEJLm0EEJEEENS_21piecewise_construct_tERNS_5tupleIJDpT_EEERNSF_IJDpT0_EEENS_15__tuple_indicesIJXspT1_EEEENSO_IJXspT2_EEEE, symObjAddr: 0x4F0AC, symBinAddr: 0x10007D710, symSize: 0x3C }
  - { offsetInCU: 0x2D29F, offset: 0x8825B, size: 0x8, addend: 0x0, symName: __ZNSt3__14pairIKNS_12basic_stringIcNS_11char_traitsIcEENS_9allocatorIcEEEENS_6vectorIS6_NS4_IS6_EEEEEC2B8ue170006IJRS7_EJEJLm0EEJEEENS_21piecewise_construct_tERNS_5tupleIJDpT_EEERNSF_IJDpT0_EEENS_15__tuple_indicesIJXspT1_EEEENSO_IJXspT2_EEEE, symObjAddr: 0x4F0E8, symBinAddr: 0x10007D74C, symSize: 0x50 }
  - { offsetInCU: 0x2D32C, offset: 0x882E8, size: 0x8, addend: 0x0, symName: __ZNSt3__112__tuple_leafILm0ERKNS_12basic_stringIcNS_11char_traitsIcEENS_9allocatorIcEEEELb0EE3getB8ue170006Ev, symObjAddr: 0x4F15C, symBinAddr: 0x10007D7C0, symSize: 0x60 }
  - { offsetInCU: 0x2D352, offset: 0x8830E, size: 0x8, addend: 0x0, symName: __ZNKSt3__117__compressed_pairIPNS_11__tree_nodeINS_12__value_typeINS_12basic_stringIcNS_11char_traitsIcEENS_9allocatorIcEEEENS_6vectorIS8_NS6_IS8_EEEEEEPvEENS_22__tree_node_destructorINS6_ISE_EEEEE5firstB8ue170006Ev, symObjAddr: 0x4F1BC, symBinAddr: 0x10007D820, symSize: 0x24 }
  - { offsetInCU: 0x2D378, offset: 0x88334, size: 0x8, addend: 0x0, symName: __ZNKSt3__122__compressed_pair_elemIPNS_11__tree_nodeINS_12__value_typeINS_12basic_stringIcNS_11char_traitsIcEENS_9allocatorIcEEEENS_6vectorIS8_NS6_IS8_EEEEEEPvEELi0ELb0EE5__getB8ue170006Ev, symObjAddr: 0x4F1E0, symBinAddr: 0x10007D844, symSize: 0x14 }
  - { offsetInCU: 0x2D39E, offset: 0x8835A, size: 0x8, addend: 0x0, symName: __ZNSt3__117__compressed_pairIPNS_11__tree_nodeINS_12__value_typeINS_12basic_stringIcNS_11char_traitsIcEENS_9allocatorIcEEEENS_6vectorIS8_NS6_IS8_EEEEEEPvEENS_22__tree_node_destructorINS6_ISE_EEEEE6secondB8ue170006Ev, symObjAddr: 0x4F1F4, symBinAddr: 0x10007D858, symSize: 0x28 }
  - { offsetInCU: 0x2D3C4, offset: 0x88380, size: 0x8, addend: 0x0, symName: __ZNSt3__122__compressed_pair_elemINS_22__tree_node_destructorINS_9allocatorINS_11__tree_nodeINS_12__value_typeINS_12basic_stringIcNS_11char_traitsIcEENS2_IcEEEENS_6vectorIS9_NS2_IS9_EEEEEEPvEEEEEELi1ELb0EE5__getB8ue170006Ev, symObjAddr: 0x4F21C, symBinAddr: 0x10007D880, symSize: 0x14 }
  - { offsetInCU: 0x2D3EA, offset: 0x883A6, size: 0x8, addend: 0x0, symName: __ZNSt3__16__treeINS_12__value_typeINS_12basic_stringIcNS_11char_traitsIcEENS_9allocatorIcEEEENS_6vectorIS7_NS5_IS7_EEEEEENS_19__map_value_compareIS7_SB_NS_4lessIS7_EELb1EEENS5_ISB_EEE4sizeB8ue170006Ev, symObjAddr: 0x4FAD8, symBinAddr: 0x10007D894, symSize: 0x28 }
  - { offsetInCU: 0x2D410, offset: 0x883CC, size: 0x8, addend: 0x0, symName: __ZNSt3__117__compressed_pairImNS_19__map_value_compareINS_12basic_stringIcNS_11char_traitsIcEENS_9allocatorIcEEEENS_12__value_typeIS7_NS_6vectorIS7_NS5_IS7_EEEEEENS_4lessIS7_EELb1EEEE5firstB8ue170006Ev, symObjAddr: 0x5023C, symBinAddr: 0x10007D8BC, symSize: 0x24 }
  - { offsetInCU: 0x2D436, offset: 0x883F2, size: 0x8, addend: 0x0, symName: __ZNSt3__117__compressed_pairIPNS_11__tree_nodeINS_12__value_typeINS_12basic_stringIcNS_11char_traitsIcEENS_9allocatorIcEEEENS_6vectorIS8_NS6_IS8_EEEEEEPvEENS_22__tree_node_destructorINS6_ISE_EEEEE5firstB8ue170006Ev, symObjAddr: 0x50274, symBinAddr: 0x10007D8E0, symSize: 0x24 }
  - { offsetInCU: 0x2D45C, offset: 0x88418, size: 0x8, addend: 0x0, symName: __ZNSt3__122__compressed_pair_elemIPNS_11__tree_nodeINS_12__value_typeINS_12basic_stringIcNS_11char_traitsIcEENS_9allocatorIcEEEENS_6vectorIS8_NS6_IS8_EEEEEEPvEELi0ELb0EE5__getB8ue170006Ev, symObjAddr: 0x50298, symBinAddr: 0x10007D904, symSize: 0x14 }
  - { offsetInCU: 0x2D482, offset: 0x8843E, size: 0x8, addend: 0x0, symName: __ZNSt3__110unique_ptrINS_11__tree_nodeINS_12__value_typeINS_12basic_stringIcNS_11char_traitsIcEENS_9allocatorIcEEEENS_6vectorIS8_NS6_IS8_EEEEEEPvEENS_22__tree_node_destructorINS6_ISE_EEEEED2B8ue170006Ev, symObjAddr: 0x502AC, symBinAddr: 0x10007D918, symSize: 0x30 }
  - { offsetInCU: 0x2D4AC, offset: 0x88468, size: 0x8, addend: 0x0, symName: __ZNSt3__110unique_ptrINS_11__tree_nodeINS_12__value_typeINS_12basic_stringIcNS_11char_traitsIcEENS_9allocatorIcEEEENS_6vectorIS8_NS6_IS8_EEEEEEPvEENS_22__tree_node_destructorINS6_ISE_EEEEE5resetB8ue170006EPSE_, symObjAddr: 0x502DC, symBinAddr: 0x10007D948, symSize: 0xEC }
  - { offsetInCU: 0x2D4F0, offset: 0x884AC, size: 0x8, addend: 0x0, symName: __ZNSt3__122__tree_node_destructorINS_9allocatorINS_11__tree_nodeINS_12__value_typeINS_12basic_stringIcNS_11char_traitsIcEENS1_IcEEEENS_6vectorIS8_NS1_IS8_EEEEEEPvEEEEEclB8ue170006EPSE_, symObjAddr: 0x503C8, symBinAddr: 0x10007DA34, symSize: 0x168 }
  - { offsetInCU: 0x2D525, offset: 0x884E1, size: 0x8, addend: 0x0, symName: __ZNSt3__115__tree_iteratorINS_12__value_typeINS_12basic_stringIcNS_11char_traitsIcEENS_9allocatorIcEEEENS_6vectorIS7_NS5_IS7_EEEEEEPNS_11__tree_nodeISB_PvEElEC2B8ue170006ESF_, symObjAddr: 0x50530, symBinAddr: 0x10007DB9C, symSize: 0x70 }
  - { offsetInCU: 0x2D55E, offset: 0x8851A, size: 0x8, addend: 0x0, symName: __ZNSt3__14pairINS_15__tree_iteratorINS_12__value_typeINS_12basic_stringIcNS_11char_traitsIcEENS_9allocatorIcEEEENS_6vectorIS8_NS6_IS8_EEEEEEPNS_11__tree_nodeISC_PvEElEEbEC2B8ue170006ISH_RbLSE_0EEEOT_OT0_, symObjAddr: 0x505A0, symBinAddr: 0x10007DC0C, symSize: 0x120 }
  - { offsetInCU: 0x2D5BC, offset: 0x88578, size: 0x8, addend: 0x0, symName: __ZNSt3__15tupleIJRKNS_12basic_stringIcNS_11char_traitsIcEENS_9allocatorIcEEEEEEC1B8ue170006INS_4_AndELi0EEES8_, symObjAddr: 0x506C0, symBinAddr: 0x10007DD2C, symSize: 0x34 }
  - { offsetInCU: 0x2D605, offset: 0x885C1, size: 0x8, addend: 0x0, symName: __ZNSt3__15tupleIJRKNS_12basic_stringIcNS_11char_traitsIcEENS_9allocatorIcEEEEEEC2B8ue170006INS_4_AndELi0EEES8_, symObjAddr: 0x506F4, symBinAddr: 0x10007DD60, symSize: 0x34 }
  - { offsetInCU: 0x2D64E, offset: 0x8860A, size: 0x8, addend: 0x0, symName: __ZNSt3__112__tuple_implINS_15__tuple_indicesIJLm0EEEEJRKNS_12basic_stringIcNS_11char_traitsIcEENS_9allocatorIcEEEEEEC1B8ue170006IJLm0EEJSA_EJEJEJSA_EEENS1_IJXspT_EEEENS_13__tuple_typesIJDpT0_EEENS1_IJXspT1_EEEENSE_IJDpT2_EEEDpOT3_, symObjAddr: 0x50728, symBinAddr: 0x10007DD94, symSize: 0x34 }
  - { offsetInCU: 0x2D6DF, offset: 0x8869B, size: 0x8, addend: 0x0, symName: __ZNSt3__112__tuple_implINS_15__tuple_indicesIJLm0EEEEJRKNS_12basic_stringIcNS_11char_traitsIcEENS_9allocatorIcEEEEEEC2B8ue170006IJLm0EEJSA_EJEJEJSA_EEENS1_IJXspT_EEEENS_13__tuple_typesIJDpT0_EEENS1_IJXspT1_EEEENSE_IJDpT2_EEEDpOT3_, symObjAddr: 0x5075C, symBinAddr: 0x10007DDC8, symSize: 0x34 }
  - { offsetInCU: 0x2D770, offset: 0x8872C, size: 0x8, addend: 0x0, symName: __ZNSt3__112__tuple_leafILm0ERKNS_12basic_stringIcNS_11char_traitsIcEENS_9allocatorIcEEEELb0EEC2B8ue170006IS8_vEEOT_, symObjAddr: 0x50790, symBinAddr: 0x10007DDFC, symSize: 0x70 }
  - { offsetInCU: 0x2D7B3, offset: 0x8876F, size: 0x8, addend: 0x0, symName: __ZNKSt3__16__treeINS_12__value_typeINS_12basic_stringIcNS_11char_traitsIcEENS_9allocatorIcEEEENS_6vectorIS7_NS5_IS7_EEEEEENS_19__map_value_compareIS7_SB_NS_4lessIS7_EELb1EEENS5_ISB_EEE5beginB8ue170006Ev, symObjAddr: 0x50800, symBinAddr: 0x10007DE6C, symSize: 0x238 }
  - { offsetInCU: 0x2D7DA, offset: 0x88796, size: 0x8, addend: 0x0, symName: __ZNSt3__120__map_const_iteratorINS_21__tree_const_iteratorINS_12__value_typeINS_12basic_stringIcNS_11char_traitsIcEENS_9allocatorIcEEEENS_6vectorIS8_NS6_IS8_EEEEEEPNS_11__tree_nodeISC_PvEElEEEC1B8ue170006ESH_, symObjAddr: 0x50A38, symBinAddr: 0x10007E0A4, symSize: 0x238 }
  - { offsetInCU: 0x2D818, offset: 0x887D4, size: 0x8, addend: 0x0, symName: __ZNKSt3__16__treeINS_12__value_typeINS_12basic_stringIcNS_11char_traitsIcEENS_9allocatorIcEEEENS_6vectorIS7_NS5_IS7_EEEEEENS_19__map_value_compareIS7_SB_NS_4lessIS7_EELb1EEENS5_ISB_EEE12__begin_nodeB8ue170006Ev, symObjAddr: 0x50C70, symBinAddr: 0x10007E2DC, symSize: 0x14 }
  - { offsetInCU: 0x2D83E, offset: 0x887FA, size: 0x8, addend: 0x0, symName: __ZNSt3__121__tree_const_iteratorINS_12__value_typeINS_12basic_stringIcNS_11char_traitsIcEENS_9allocatorIcEEEENS_6vectorIS7_NS5_IS7_EEEEEEPNS_11__tree_nodeISB_PvEElEC1B8ue170006EPNS_15__tree_end_nodeIPNS_16__tree_node_baseISD_EEEE, symObjAddr: 0x50C84, symBinAddr: 0x10007E2F0, symSize: 0x34 }
  - { offsetInCU: 0x2D877, offset: 0x88833, size: 0x8, addend: 0x0, symName: __ZNSt3__121__tree_const_iteratorINS_12__value_typeINS_12basic_stringIcNS_11char_traitsIcEENS_9allocatorIcEEEENS_6vectorIS7_NS5_IS7_EEEEEEPNS_11__tree_nodeISB_PvEElEC2B8ue170006EPNS_15__tree_end_nodeIPNS_16__tree_node_baseISD_EEEE, symObjAddr: 0x50CB8, symBinAddr: 0x10007E324, symSize: 0x70 }
  - { offsetInCU: 0x2D8B0, offset: 0x8886C, size: 0x8, addend: 0x0, symName: __ZNSt3__120__map_const_iteratorINS_21__tree_const_iteratorINS_12__value_typeINS_12basic_stringIcNS_11char_traitsIcEENS_9allocatorIcEEEENS_6vectorIS8_NS6_IS8_EEEEEEPNS_11__tree_nodeISC_PvEElEEEC2B8ue170006ESH_, symObjAddr: 0x50D28, symBinAddr: 0x10007E394, symSize: 0x204 }
  - { offsetInCU: 0x2D8EE, offset: 0x888AA, size: 0x8, addend: 0x0, symName: __ZNKSt3__16__treeINS_12__value_typeINS_12basic_stringIcNS_11char_traitsIcEENS_9allocatorIcEEEENS_6vectorIS7_NS5_IS7_EEEEEENS_19__map_value_compareIS7_SB_NS_4lessIS7_EELb1EEENS5_ISB_EEE3endB8ue170006Ev, symObjAddr: 0x50F2C, symBinAddr: 0x10007E598, symSize: 0x204 }
  - { offsetInCU: 0x2D915, offset: 0x888D1, size: 0x8, addend: 0x0, symName: __ZNSt3__121__tree_const_iteratorINS_12__value_typeINS_12basic_stringIcNS_11char_traitsIcEENS_9allocatorIcEEEENS_6vectorIS7_NS5_IS7_EEEEEEPNS_11__tree_nodeISB_PvEElEppB8ue170006Ev, symObjAddr: 0x5121C, symBinAddr: 0x10007E888, symSize: 0xA8 }
  - { offsetInCU: 0x2D93B, offset: 0x888F7, size: 0x8, addend: 0x0, symName: __ZNKSt3__121__tree_const_iteratorINS_12__value_typeINS_12basic_stringIcNS_11char_traitsIcEENS_9allocatorIcEEEENS_6vectorIS7_NS5_IS7_EEEEEEPNS_11__tree_nodeISB_PvEElEptB8ue170006Ev, symObjAddr: 0x512C4, symBinAddr: 0x10007E930, symSize: 0x2C }
  - { offsetInCU: 0x2D961, offset: 0x8891D, size: 0x8, addend: 0x0, symName: __ZNSt3__114pointer_traitsIPKNS_12__value_typeINS_12basic_stringIcNS_11char_traitsIcEENS_9allocatorIcEEEENS_6vectorIS7_NS5_IS7_EEEEEEE10pointer_toB8ue170006ERSC_, symObjAddr: 0x512F0, symBinAddr: 0x10007E95C, symSize: 0x14 }
  - { offsetInCU: 0x2D984, offset: 0x88940, size: 0x8, addend: 0x0, symName: __ZNKSt3__121__tree_const_iteratorINS_12__value_typeINS_12basic_stringIcNS_11char_traitsIcEENS_9allocatorIcEEEENS_6vectorIS7_NS5_IS7_EEEEEEPNS_11__tree_nodeISB_PvEElE8__get_npB8ue170006Ev, symObjAddr: 0x51304, symBinAddr: 0x10007E970, symSize: 0x60 }
  - { offsetInCU: 0x3B, offset: 0x88D0B, size: 0x8, addend: 0x0, symName: _.str, symObjAddr: 0x11E60, symBinAddr: 0x100196920, symSize: 0x0 }
  - { offsetInCU: 0x6B, offset: 0x88D3B, size: 0x8, addend: 0x0, symName: _.str.1, symObjAddr: 0x11EC0, symBinAddr: 0x100196980, symSize: 0x0 }
  - { offsetInCU: 0x88, offset: 0x88D58, size: 0x8, addend: 0x0, symName: _.str.2, symObjAddr: 0x11F00, symBinAddr: 0x1001969C0, symSize: 0x0 }
  - { offsetInCU: 0xA6, offset: 0x88D76, size: 0x8, addend: 0x0, symName: _.str.3, symObjAddr: 0x11F60, symBinAddr: 0x100196A20, symSize: 0x0 }
  - { offsetInCU: 0xDEB3, offset: 0x96B83, size: 0x8, addend: 0x0, symName: __ZNSt3__1neB8ue170006IPP8ObserverEEbRKNS_11__wrap_iterIT_EES8_, symObjAddr: 0xB44, symBinAddr: 0x10007F754, symSize: 0x34 }
  - { offsetInCU: 0xDEF6, offset: 0x96BC6, size: 0x8, addend: 0x0, symName: __ZNSt3__16removeB8ue170006INS_11__wrap_iterIPP8ObserverEES3_EET_S6_S6_RKT0_, symObjAddr: 0x1A54, symBinAddr: 0x100080658, symSize: 0x5F4 }
  - { offsetInCU: 0xE4F2, offset: 0x971C2, size: 0x8, addend: 0x0, symName: __ZNSt3__1eqB8ue170006IPP8ObserverEEbRKNS_11__wrap_iterIT_EES8_, symObjAddr: 0x3AD4, symBinAddr: 0x100082514, symSize: 0x48 }
  - { offsetInCU: 0xE535, offset: 0x97205, size: 0x8, addend: 0x0, symName: __ZNSt3__112__to_addressB8ue170006IP8ObserverEEPT_S4_, symObjAddr: 0x43C4, symBinAddr: 0x100082E04, symSize: 0x14 }
  - { offsetInCU: 0xE56A, offset: 0x9723A, size: 0x8, addend: 0x0, symName: __ZNSt3__110destroy_atB8ue170006IP8ObserverLi0EEEvPT_, symObjAddr: 0x43D8, symBinAddr: 0x100082E18, symSize: 0x24 }
  - { offsetInCU: 0xE5A1, offset: 0x97271, size: 0x8, addend: 0x0, symName: __ZNSt3__112__destroy_atB8ue170006IP8ObserverLi0EEEvPT_, symObjAddr: 0x43FC, symBinAddr: 0x100082E3C, symSize: 0x10 }
  - { offsetInCU: 0xE5FD, offset: 0x972CD, size: 0x8, addend: 0x0, symName: __ZNSt3__112construct_atB8ue170006IP8ObserverJRKS2_EPS2_EEPT_S7_DpOT0_, symObjAddr: 0x5250, symBinAddr: 0x100083B68, symSize: 0xB8 }
  - { offsetInCU: 0xE66D, offset: 0x9733D, size: 0x8, addend: 0x0, symName: __ZNSt3__119__allocate_at_leastB8ue170006INS_9allocatorIP8ObserverEEEENS_19__allocation_resultINS_16allocator_traitsIT_E7pointerEEERS7_m, symObjAddr: 0x6EEC, symBinAddr: 0x1000851C0, symSize: 0x28C }
  - { offsetInCU: 0xE6B2, offset: 0x97382, size: 0x8, addend: 0x0, symName: __ZNSt3__142__uninitialized_allocator_move_if_noexceptB8ue170006INS_9allocatorIP8ObserverEENS_16reverse_iteratorIPS3_EES7_S3_vEET1_RT_T0_SB_S8_, symObjAddr: 0x7470, symBinAddr: 0x10008565C, symSize: 0x4A8 }
  - { offsetInCU: 0xE73C, offset: 0x9740C, size: 0x8, addend: 0x0, symName: __ZNSt3__14swapB8ue170006IPP8ObserverEENS_9enable_ifIXaasr21is_move_constructibleIT_EE5valuesr18is_move_assignableIS5_EE5valueEvE4typeERS5_S8_, symObjAddr: 0x79B0, symBinAddr: 0x100085B9C, symSize: 0x134 }
  - { offsetInCU: 0xE78D, offset: 0x9745D, size: 0x8, addend: 0x0, symName: __ZNSt3__14moveB8ue170006INS_16reverse_iteratorIPP8ObserverEES5_EET0_T_S7_S6_, symObjAddr: 0x7BA4, symBinAddr: 0x100085D90, symSize: 0x4B0 }
  - { offsetInCU: 0xE7F4, offset: 0x974C4, size: 0x8, addend: 0x0, symName: __ZNSt3__16__moveB8ue170006INS_17_ClassicAlgPolicyENS_16reverse_iteratorIPP8ObserverEES6_S6_EENS_4pairIT0_T2_EES8_T1_S9_, symObjAddr: 0x8054, symBinAddr: 0x100086240, symSize: 0x424 }
  - { offsetInCU: 0xE86C, offset: 0x9753C, size: 0x8, addend: 0x0, symName: __ZNSt3__123__dispatch_copy_or_moveB8ue170006INS_17_ClassicAlgPolicyENS_11__move_loopIS1_EENS_14__move_trivialENS_16reverse_iteratorIPP8ObserverEES9_S9_EENS_4pairIT2_T4_EESB_T3_SC_, symObjAddr: 0x8478, symBinAddr: 0x100086664, symSize: 0x424 }
  - { offsetInCU: 0xE8F6, offset: 0x975C6, size: 0x8, addend: 0x0, symName: __ZNSt3__121__unwrap_and_dispatchB8ue170006INS_10__overloadINS_11__move_loopINS_17_ClassicAlgPolicyEEENS_14__move_trivialEEENS_16reverse_iteratorIPP8ObserverEESB_SB_Li0EEENS_4pairIT0_T2_EESD_T1_SE_, symObjAddr: 0x889C, symBinAddr: 0x100086A88, symSize: 0x880 }
  - { offsetInCU: 0xE99A, offset: 0x9766A, size: 0x8, addend: 0x0, symName: __ZNSt3__114__unwrap_rangeB8ue170006INS_16reverse_iteratorIPP8ObserverEES5_EEDaT_T0_, symObjAddr: 0x911C, symBinAddr: 0x100087308, symSize: 0x35C }
  - { offsetInCU: 0xEB14, offset: 0x977E4, size: 0x8, addend: 0x0, symName: __ZNSt3__113__unwrap_iterB8ue170006INS_16reverse_iteratorIPP8ObserverEENS_18__unwrap_iter_implIS5_Lb0EEELi0EEEDTclsrT0_8__unwrapclsr3stdE7declvalIT_EEEES9_, symObjAddr: 0x9820, symBinAddr: 0x100087A0C, symSize: 0x2EC }
  - { offsetInCU: 0xEB5C, offset: 0x9782C, size: 0x8, addend: 0x0, symName: __ZNSt3__19make_pairB8ue170006INS_16reverse_iteratorIPP8ObserverEES5_EENS_4pairINS_18__unwrap_ref_decayIT_E4typeENS7_IT0_E4typeEEEOS8_OSB_, symObjAddr: 0x9B0C, symBinAddr: 0x100087CF8, symSize: 0x38 }
  - { offsetInCU: 0xEBAB, offset: 0x9787B, size: 0x8, addend: 0x0, symName: __ZNSt3__114__rewrap_rangeB8ue170006INS_16reverse_iteratorIPP8ObserverEES5_S5_EET0_S6_T1_, symObjAddr: 0x9B44, symBinAddr: 0x100087D30, symSize: 0x3D4 }
  - { offsetInCU: 0xEC08, offset: 0x978D8, size: 0x8, addend: 0x0, symName: __ZNSt3__113__rewrap_iterB8ue170006INS_16reverse_iteratorIPP8ObserverEES5_NS_18__unwrap_iter_implIS5_Lb0EEEEET_S8_T0_, symObjAddr: 0x9F18, symBinAddr: 0x100088104, symSize: 0x3E8 }
  - { offsetInCU: 0xECB5, offset: 0x97985, size: 0x8, addend: 0x0, symName: __ZNSt3__1neB8ue170006IPP8ObserverS3_EEbRKNS_16reverse_iteratorIT_EERKNS4_IT0_EE, symObjAddr: 0xA7D8, symBinAddr: 0x1000889C4, symSize: 0x48 }
  - { offsetInCU: 0xEDB3, offset: 0x97A83, size: 0x8, addend: 0x0, symName: __ZNSt3__1miB8ue170006IPKP8ObserverPS2_EEDTmicldtfp_4baseEcldtfp0_4baseEERKNS_11__wrap_iterIT_EERKNS7_IT0_EE, symObjAddr: 0xB6B8, symBinAddr: 0x1000898A4, symSize: 0x48 }
  - { offsetInCU: 0xEDFF, offset: 0x97ACF, size: 0x8, addend: 0x0, symName: __ZNSt3__1neB8ue170006IPKP8ObserverEEbRKNS_11__wrap_iterIT_EES9_, symObjAddr: 0xB700, symBinAddr: 0x1000898EC, symSize: 0x34 }
  - { offsetInCU: 0xEE42, offset: 0x97B12, size: 0x8, addend: 0x0, symName: __ZNSt3__14moveB8ue170006IPP8ObserverS3_EET0_T_S5_S4_, symObjAddr: 0xB780, symBinAddr: 0x10008996C, symSize: 0x26C }
  - { offsetInCU: 0xEE9F, offset: 0x97B6F, size: 0x8, addend: 0x0, symName: __ZNSt3__1miB8ue170006IPKP8ObserverS4_EEDTmicldtfp_4baseEcldtfp0_4baseEERKNS_11__wrap_iterIT_EERKNS6_IT0_EE, symObjAddr: 0xB9EC, symBinAddr: 0x100089BD8, symSize: 0x48 }
  - { offsetInCU: 0xEEEB, offset: 0x97BBB, size: 0x8, addend: 0x0, symName: __ZNSt3__1eqB8ue170006IPKP8ObserverEEbRKNS_11__wrap_iterIT_EES9_, symObjAddr: 0xBA94, symBinAddr: 0x100089C80, symSize: 0x48 }
  - { offsetInCU: 0xEF2E, offset: 0x97BFE, size: 0x8, addend: 0x0, symName: __ZNSt3__16__moveB8ue170006INS_17_ClassicAlgPolicyEPP8ObserverS4_S4_EENS_4pairIT0_T2_EES6_T1_S7_, symObjAddr: 0xBADC, symBinAddr: 0x100089CC8, symSize: 0x22C }
  - { offsetInCU: 0xEF9D, offset: 0x97C6D, size: 0x8, addend: 0x0, symName: __ZNSt3__123__dispatch_copy_or_moveB8ue170006INS_17_ClassicAlgPolicyENS_11__move_loopIS1_EENS_14__move_trivialEPP8ObserverS7_S7_EENS_4pairIT2_T4_EES9_T3_SA_, symObjAddr: 0xBD08, symBinAddr: 0x100089EF4, symSize: 0x22C }
  - { offsetInCU: 0xF01E, offset: 0x97CEE, size: 0x8, addend: 0x0, symName: __ZNSt3__121__unwrap_and_dispatchB8ue170006INS_10__overloadINS_11__move_loopINS_17_ClassicAlgPolicyEEENS_14__move_trivialEEEPP8ObserverS9_S9_Li0EEENS_4pairIT0_T2_EESB_T1_SC_, symObjAddr: 0xBF34, symBinAddr: 0x10008A120, symSize: 0x5A4 }
  - { offsetInCU: 0xF0B7, offset: 0x97D87, size: 0x8, addend: 0x0, symName: __ZNSt3__114__unwrap_rangeB8ue170006IPP8ObserverS3_EEDaT_T0_, symObjAddr: 0xC4D8, symBinAddr: 0x10008A6C4, symSize: 0x224 }
  - { offsetInCU: 0xF24E, offset: 0x97F1E, size: 0x8, addend: 0x0, symName: __ZNSt3__113__unwrap_iterB8ue170006IPP8ObserverNS_18__unwrap_iter_implIS3_Lb1EEELi0EEEDTclsrT0_8__unwrapclsr3stdE7declvalIT_EEEES7_, symObjAddr: 0xC92C, symBinAddr: 0x10008AB18, symSize: 0x24 }
  - { offsetInCU: 0xF292, offset: 0x97F62, size: 0x8, addend: 0x0, symName: __ZNSt3__19make_pairB8ue170006IPP8ObserverS3_EENS_4pairINS_18__unwrap_ref_decayIT_E4typeENS5_IT0_E4typeEEEOS6_OS9_, symObjAddr: 0xC950, symBinAddr: 0x10008AB3C, symSize: 0x20C }
  - { offsetInCU: 0xF2E3, offset: 0x97FB3, size: 0x8, addend: 0x0, symName: __ZNSt3__114__rewrap_rangeB8ue170006IPP8ObserverS3_S3_EET0_S4_T1_, symObjAddr: 0xCB5C, symBinAddr: 0x10008AD48, symSize: 0x2C }
  - { offsetInCU: 0xF338, offset: 0x98008, size: 0x8, addend: 0x0, symName: __ZNSt3__113__rewrap_iterB8ue170006IPP8ObserverS3_NS_18__unwrap_iter_implIS3_Lb1EEEEET_S6_T0_, symObjAddr: 0xCB88, symBinAddr: 0x10008AD74, symSize: 0x48 }
  - { offsetInCU: 0xF3DD, offset: 0x980AD, size: 0x8, addend: 0x0, symName: __ZNSt3__119__copy_trivial_implB8ue170006IP8ObserverS2_EENS_4pairIPT_PT0_EES5_S5_S7_, symObjAddr: 0xD050, symBinAddr: 0x10008B23C, symSize: 0x3B4 }
  - { offsetInCU: 0xF44C, offset: 0x9811C, size: 0x8, addend: 0x0, symName: __ZNSt3__119__constexpr_memmoveB8ue170006IP8ObserverS2_Li0EEEPT_S4_PT0_NS_15__element_countE, symObjAddr: 0xD404, symBinAddr: 0x10008B5F0, symSize: 0x64 }
  - { offsetInCU: 0xF4BA, offset: 0x9818A, size: 0x8, addend: 0x0, symName: __ZNSt3__19make_pairB8ue170006IRPP8ObserverS3_EENS_4pairINS_18__unwrap_ref_decayIT_E4typeENS6_IT0_E4typeEEEOS7_OSA_, symObjAddr: 0xD468, symBinAddr: 0x10008B654, symSize: 0x20C }
  - { offsetInCU: 0xF55E, offset: 0x9822E, size: 0x8, addend: 0x0, symName: __ZNSt3__14findB8ue170006INS_11__wrap_iterIPP8ObserverEES3_EET_S6_S6_RKT0_, symObjAddr: 0xD888, symBinAddr: 0x10008BA74, symSize: 0x4AC }
  - { offsetInCU: 0xF5D4, offset: 0x982A4, size: 0x8, addend: 0x0, symName: __ZNSt3__113__rewrap_iterB8ue170006INS_11__wrap_iterIPP8ObserverEES4_NS_18__unwrap_iter_implIS5_Lb1EEEEET_S8_T0_, symObjAddr: 0xDD34, symBinAddr: 0x10008BF20, symSize: 0x338 }
  - { offsetInCU: 0xF62E, offset: 0x982FE, size: 0x8, addend: 0x0, symName: __ZNSt3__111__find_implB8ue170006IPP8ObserverS3_S2_NS_10__identityEEET_S5_T0_RKT1_RT2_, symObjAddr: 0xE06C, symBinAddr: 0x10008C258, symSize: 0x108 }
  - { offsetInCU: 0xF6A8, offset: 0x98378, size: 0x8, addend: 0x0, symName: __ZNSt3__113__unwrap_iterB8ue170006INS_11__wrap_iterIPP8ObserverEENS_18__unwrap_iter_implIS5_Lb1EEELi0EEEDTclsrT0_8__unwrapclsr3stdE7declvalIT_EEEES9_, symObjAddr: 0xE174, symBinAddr: 0x10008C360, symSize: 0x274 }
  - { offsetInCU: 0xF743, offset: 0x98413, size: 0x8, addend: 0x0, symName: __ZNSt3__112__to_addressB8ue170006INS_11__wrap_iterIPP8ObserverEEvEEu7__decayIDTclsr19__to_address_helperIT_EE6__callclsr3stdE7declvalIRKS6_EEEEES8_, symObjAddr: 0xE8C8, symBinAddr: 0x10008CAB4, symSize: 0x24 }
  - { offsetInCU: 0xF7E1, offset: 0x984B1, size: 0x8, addend: 0x0, symName: __ZNSt3__18__invokeB8ue170006IRNS_10__identityEJRP8ObserverEEEDTclclsr3stdE7declvalIT_EEspclsr3stdE7declvalIT0_EEEEOS6_DpOS7_, symObjAddr: 0xED58, symBinAddr: 0x10008CF44, symSize: 0x2C }
  - { offsetInCU: 0xFFDC, offset: 0x98CAC, size: 0x8, addend: 0x0, symName: __ZNSt3__16vectorIP8ObserverNS_9allocatorIS2_EEE26__swap_out_circular_bufferERNS_14__split_bufferIS2_RS4_EE, symObjAddr: 0x5A10, symBinAddr: 0x100084328, symSize: 0x56C }
  - { offsetInCU: 0x11F4B, offset: 0x9AC1B, size: 0x8, addend: 0x0, symName: __ZN8ObserverC2Ev, symObjAddr: 0x0, symBinAddr: 0x10007EC10, symSize: 0x74 }
  - { offsetInCU: 0x11F77, offset: 0x9AC47, size: 0x8, addend: 0x0, symName: __ZN8ObserverD2Ev, symObjAddr: 0x74, symBinAddr: 0x10007EC84, symSize: 0x14 }
  - { offsetInCU: 0x11FA3, offset: 0x9AC73, size: 0x8, addend: 0x0, symName: __ZN8ObserverD1Ev, symObjAddr: 0x88, symBinAddr: 0x10007EC98, symSize: 0x20 }
  - { offsetInCU: 0x11FCF, offset: 0x9AC9F, size: 0x8, addend: 0x0, symName: __ZN7SubjectC2Ev, symObjAddr: 0xA8, symBinAddr: 0x10007ECB8, symSize: 0xCC }
  - { offsetInCU: 0x11FFB, offset: 0x9ACCB, size: 0x8, addend: 0x0, symName: __ZNSt3__16vectorIP8ObserverNS_9allocatorIS2_EEEC1B8ue170006Ev, symObjAddr: 0x174, symBinAddr: 0x10007ED84, symSize: 0x2C }
  - { offsetInCU: 0x12025, offset: 0x9ACF5, size: 0x8, addend: 0x0, symName: __ZN7SubjectC1Ev, symObjAddr: 0x1A0, symBinAddr: 0x10007EDB0, symSize: 0x2C }
  - { offsetInCU: 0x12051, offset: 0x9AD21, size: 0x8, addend: 0x0, symName: __ZN7SubjectD2Ev, symObjAddr: 0x1CC, symBinAddr: 0x10007EDDC, symSize: 0x4A4 }
  - { offsetInCU: 0x120C9, offset: 0x9AD99, size: 0x8, addend: 0x0, symName: __ZNSt3__16vectorIP8ObserverNS_9allocatorIS2_EEE5beginB8ue170006Ev, symObjAddr: 0x670, symBinAddr: 0x10007F280, symSize: 0x268 }
  - { offsetInCU: 0x120F2, offset: 0x9ADC2, size: 0x8, addend: 0x0, symName: __ZNSt3__16vectorIP8ObserverNS_9allocatorIS2_EEE3endB8ue170006Ev, symObjAddr: 0x8D8, symBinAddr: 0x10007F4E8, symSize: 0x26C }
  - { offsetInCU: 0x1211B, offset: 0x9ADEB, size: 0x8, addend: 0x0, symName: __ZNKSt3__111__wrap_iterIPP8ObserverEdeB8ue170006Ev, symObjAddr: 0xB78, symBinAddr: 0x10007F788, symSize: 0x60 }
  - { offsetInCU: 0x12141, offset: 0x9AE11, size: 0x8, addend: 0x0, symName: __ZNSt3__111__wrap_iterIPP8ObserverEppB8ue170006Ev, symObjAddr: 0xBE4, symBinAddr: 0x10007F7E8, symSize: 0x68 }
  - { offsetInCU: 0x12167, offset: 0x9AE37, size: 0x8, addend: 0x0, symName: __ZNSt3__16vectorIP8ObserverNS_9allocatorIS2_EEED1B8ue170006Ev, symObjAddr: 0xC4C, symBinAddr: 0x10007F850, symSize: 0x2C }
  - { offsetInCU: 0x12191, offset: 0x9AE61, size: 0x8, addend: 0x0, symName: __ZN7SubjectD1Ev, symObjAddr: 0xC78, symBinAddr: 0x10007F87C, symSize: 0x2C }
  - { offsetInCU: 0x121BD, offset: 0x9AE8D, size: 0x8, addend: 0x0, symName: __ZN7Subject6AttachEP8Observer, symObjAddr: 0xCA4, symBinAddr: 0x10007F8A8, symSize: 0x230 }
  - { offsetInCU: 0x121F8, offset: 0x9AEC8, size: 0x8, addend: 0x0, symName: __ZNSt3__16vectorIP8ObserverNS_9allocatorIS2_EEE9push_backB8ue170006ERKS2_, symObjAddr: 0xED4, symBinAddr: 0x10007FAD8, symSize: 0xE0 }
  - { offsetInCU: 0x1222F, offset: 0x9AEFF, size: 0x8, addend: 0x0, symName: __ZN7Subject6DetachEP8Observer, symObjAddr: 0xFB4, symBinAddr: 0x10007FBB8, symSize: 0x620 }
  - { offsetInCU: 0x1226A, offset: 0x9AF3A, size: 0x8, addend: 0x0, symName: __ZNSt3__16vectorIP8ObserverNS_9allocatorIS2_EEE5eraseENS_11__wrap_iterIPKS2_EES9_, symObjAddr: 0x15D4, symBinAddr: 0x1000801D8, symSize: 0x480 }
  - { offsetInCU: 0x122D3, offset: 0x9AFA3, size: 0x8, addend: 0x0, symName: __ZNSt3__111__wrap_iterIPKP8ObserverEC1B8ue170006IPS2_EERKNS0_IT_EEPNS_9enable_ifIXsr14is_convertibleIS8_S4_EE5valueEvE4typeE, symObjAddr: 0x2048, symBinAddr: 0x100080C4C, symSize: 0x3C }
  - { offsetInCU: 0x1231F, offset: 0x9AFEF, size: 0x8, addend: 0x0, symName: __ZN7Subject6NotifyEv, symObjAddr: 0x2084, symBinAddr: 0x100080C88, symSize: 0x604 }
  - { offsetInCU: 0x12377, offset: 0x9B047, size: 0x8, addend: 0x0, symName: __ZN9ILoggableC2Ev, symObjAddr: 0x27D0, symBinAddr: 0x10008128C, symSize: 0x74 }
  - { offsetInCU: 0x123A3, offset: 0x9B073, size: 0x8, addend: 0x0, symName: __ZN9ILoggableD2Ev, symObjAddr: 0x2844, symBinAddr: 0x100081300, symSize: 0x14 }
  - { offsetInCU: 0x123CF, offset: 0x9B09F, size: 0x8, addend: 0x0, symName: __ZN9ILoggableD1Ev, symObjAddr: 0x2858, symBinAddr: 0x100081314, symSize: 0x20 }
  - { offsetInCU: 0x124C9, offset: 0x9B199, size: 0x8, addend: 0x0, symName: __ZN11LogObserverC2EP7Subject, symObjAddr: 0x2878, symBinAddr: 0x100081334, symSize: 0x1F8 }
  - { offsetInCU: 0x12503, offset: 0x9B1D3, size: 0x8, addend: 0x0, symName: __ZNSt3__114basic_ofstreamIcNS_11char_traitsIcEEEC1Ev, symObjAddr: 0x2A70, symBinAddr: 0x10008152C, symSize: 0x1BC }
  - { offsetInCU: 0x12534, offset: 0x9B204, size: 0x8, addend: 0x0, symName: __ZNSt3__114basic_ofstreamIcNS_11char_traitsIcEEED1Ev, symObjAddr: 0x2C2C, symBinAddr: 0x1000816E8, symSize: 0x40 }
  - { offsetInCU: 0x12561, offset: 0x9B231, size: 0x8, addend: 0x0, symName: __ZN11LogObserverC1EP7Subject, symObjAddr: 0x2C6C, symBinAddr: 0x100081728, symSize: 0x34 }
  - { offsetInCU: 0x1259B, offset: 0x9B26B, size: 0x8, addend: 0x0, symName: __ZN11LogObserver6UpdateEP7Subject, symObjAddr: 0x2CA0, symBinAddr: 0x10008175C, symSize: 0x420 }
  - { offsetInCU: 0x125FA, offset: 0x9B2CA, size: 0x8, addend: 0x0, symName: __ZNKSt3__114basic_ofstreamIcNS_11char_traitsIcEEE7is_openEv, symObjAddr: 0x30C0, symBinAddr: 0x100081B7C, symSize: 0x2C }
  - { offsetInCU: 0x12622, offset: 0x9B2F2, size: 0x8, addend: 0x0, symName: __ZN11LogObserverD2Ev, symObjAddr: 0x3168, symBinAddr: 0x100081BA8, symSize: 0x198 }
  - { offsetInCU: 0x1264E, offset: 0x9B31E, size: 0x8, addend: 0x0, symName: __ZNSt3__114basic_ofstreamIcNS_11char_traitsIcEEE5closeEv, symObjAddr: 0x3300, symBinAddr: 0x100081D40, symSize: 0xD4 }
  - { offsetInCU: 0x12676, offset: 0x9B346, size: 0x8, addend: 0x0, symName: __ZN11LogObserverD1Ev, symObjAddr: 0x33D4, symBinAddr: 0x100081E14, symSize: 0x2C }
  - { offsetInCU: 0x126A2, offset: 0x9B372, size: 0x8, addend: 0x0, symName: __ZNSt3__16vectorIP8ObserverNS_9allocatorIS2_EEEC2B8ue170006Ev, symObjAddr: 0x3400, symBinAddr: 0x100081E40, symSize: 0x2E8 }
  - { offsetInCU: 0x126D7, offset: 0x9B3A7, size: 0x8, addend: 0x0, symName: __ZNSt3__117__compressed_pairIPP8ObserverNS_9allocatorIS2_EEEC1B8ue170006IDnNS_18__default_init_tagEEEOT_OT0_, symObjAddr: 0x36E8, symBinAddr: 0x100082128, symSize: 0x3C }
  - { offsetInCU: 0x1272F, offset: 0x9B3FF, size: 0x8, addend: 0x0, symName: __ZNSt3__117__compressed_pairIPP8ObserverNS_9allocatorIS2_EEEC2B8ue170006IDnNS_18__default_init_tagEEEOT_OT0_, symObjAddr: 0x3724, symBinAddr: 0x100082164, symSize: 0x40 }
  - { offsetInCU: 0x12787, offset: 0x9B457, size: 0x8, addend: 0x0, symName: __ZNSt3__122__compressed_pair_elemIPP8ObserverLi0ELb0EEC2B8ue170006IDnvEEOT_, symObjAddr: 0x3764, symBinAddr: 0x1000821A4, symSize: 0x64 }
  - { offsetInCU: 0x127C9, offset: 0x9B499, size: 0x8, addend: 0x0, symName: __ZNSt3__122__compressed_pair_elemINS_9allocatorIP8ObserverEELi1ELb1EEC2B8ue170006ENS_18__default_init_tagE, symObjAddr: 0x37C8, symBinAddr: 0x100082208, symSize: 0x2C }
  - { offsetInCU: 0x127FE, offset: 0x9B4CE, size: 0x8, addend: 0x0, symName: __ZNSt3__19allocatorIP8ObserverEC2B8ue170006Ev, symObjAddr: 0x37F4, symBinAddr: 0x100082234, symSize: 0x2C }
  - { offsetInCU: 0x12828, offset: 0x9B4F8, size: 0x8, addend: 0x0, symName: __ZNSt3__116__non_trivial_ifILb1ENS_9allocatorIP8ObserverEEEC2B8ue170006Ev, symObjAddr: 0x3820, symBinAddr: 0x100082260, symSize: 0x14 }
  - { offsetInCU: 0x12852, offset: 0x9B522, size: 0x8, addend: 0x0, symName: __ZNSt3__16vectorIP8ObserverNS_9allocatorIS2_EEE11__make_iterB8ue170006EPS2_, symObjAddr: 0x3834, symBinAddr: 0x100082274, symSize: 0x1FC }
  - { offsetInCU: 0x12889, offset: 0x9B559, size: 0x8, addend: 0x0, symName: __ZNSt3__111__wrap_iterIPP8ObserverEC1B8ue170006ES3_, symObjAddr: 0x3A30, symBinAddr: 0x100082470, symSize: 0x34 }
  - { offsetInCU: 0x128C1, offset: 0x9B591, size: 0x8, addend: 0x0, symName: __ZNSt3__111__wrap_iterIPP8ObserverEC2B8ue170006ES3_, symObjAddr: 0x3A64, symBinAddr: 0x1000824A4, symSize: 0x70 }
  - { offsetInCU: 0x128F9, offset: 0x9B5C9, size: 0x8, addend: 0x0, symName: __ZNKSt3__111__wrap_iterIPP8ObserverE4baseB8ue170006Ev, symObjAddr: 0x3B1C, symBinAddr: 0x10008255C, symSize: 0x60 }
  - { offsetInCU: 0x1291F, offset: 0x9B5EF, size: 0x8, addend: 0x0, symName: __ZNSt3__16vectorIP8ObserverNS_9allocatorIS2_EEED2B8ue170006Ev, symObjAddr: 0x3B7C, symBinAddr: 0x1000825BC, symSize: 0x1F8 }
  - { offsetInCU: 0x1294A, offset: 0x9B61A, size: 0x8, addend: 0x0, symName: __ZNSt3__16vectorIP8ObserverNS_9allocatorIS2_EEE16__destroy_vectorC1B8ue170006ERS5_, symObjAddr: 0x3D74, symBinAddr: 0x1000827B4, symSize: 0x34 }
  - { offsetInCU: 0x12983, offset: 0x9B653, size: 0x8, addend: 0x0, symName: __ZNSt3__16vectorIP8ObserverNS_9allocatorIS2_EEE16__destroy_vectorclB8ue170006Ev, symObjAddr: 0x3DA8, symBinAddr: 0x1000827E8, symSize: 0x228 }
  - { offsetInCU: 0x129A9, offset: 0x9B679, size: 0x8, addend: 0x0, symName: __ZNSt3__16vectorIP8ObserverNS_9allocatorIS2_EEE16__destroy_vectorC2B8ue170006ERS5_, symObjAddr: 0x3FD0, symBinAddr: 0x100082A10, symSize: 0x70 }
  - { offsetInCU: 0x129E2, offset: 0x9B6B2, size: 0x8, addend: 0x0, symName: __ZNSt3__16vectorIP8ObserverNS_9allocatorIS2_EEE7__clearB8ue170006Ev, symObjAddr: 0x4040, symBinAddr: 0x100082A80, symSize: 0x64 }
  - { offsetInCU: 0x12A08, offset: 0x9B6D8, size: 0x8, addend: 0x0, symName: __ZNKSt3__16vectorIP8ObserverNS_9allocatorIS2_EEE17__annotate_deleteB8ue170006Ev, symObjAddr: 0x40A4, symBinAddr: 0x100082AE4, symSize: 0xCC }
  - { offsetInCU: 0x12A2E, offset: 0x9B6FE, size: 0x8, addend: 0x0, symName: __ZNSt3__116allocator_traitsINS_9allocatorIP8ObserverEEE10deallocateB8ue170006ERS4_PS3_m, symObjAddr: 0x4170, symBinAddr: 0x100082BB0, symSize: 0x34 }
  - { offsetInCU: 0x12A70, offset: 0x9B740, size: 0x8, addend: 0x0, symName: __ZNSt3__16vectorIP8ObserverNS_9allocatorIS2_EEE7__allocB8ue170006Ev, symObjAddr: 0x41A4, symBinAddr: 0x100082BE4, symSize: 0x28 }
  - { offsetInCU: 0x12A96, offset: 0x9B766, size: 0x8, addend: 0x0, symName: __ZNKSt3__16vectorIP8ObserverNS_9allocatorIS2_EEE8capacityB8ue170006Ev, symObjAddr: 0x41CC, symBinAddr: 0x100082C0C, symSize: 0xBC }
  - { offsetInCU: 0x12ABC, offset: 0x9B78C, size: 0x8, addend: 0x0, symName: __ZNSt3__16vectorIP8ObserverNS_9allocatorIS2_EEE22__base_destruct_at_endB8ue170006EPS2_, symObjAddr: 0x4288, symBinAddr: 0x100082CC8, symSize: 0x114 }
  - { offsetInCU: 0x12B00, offset: 0x9B7D0, size: 0x8, addend: 0x0, symName: __ZNSt3__116allocator_traitsINS_9allocatorIP8ObserverEEE7destroyB8ue170006IS3_vvEEvRS4_PT_, symObjAddr: 0x439C, symBinAddr: 0x100082DDC, symSize: 0x28 }
  - { offsetInCU: 0x12B3A, offset: 0x9B80A, size: 0x8, addend: 0x0, symName: __ZNKSt3__16vectorIP8ObserverNS_9allocatorIS2_EEE31__annotate_contiguous_containerEPKvS7_S7_S7_, symObjAddr: 0x440C, symBinAddr: 0x100082E4C, symSize: 0x58 }
  - { offsetInCU: 0x12B9C, offset: 0x9B86C, size: 0x8, addend: 0x0, symName: __ZNKSt3__16vectorIP8ObserverNS_9allocatorIS2_EEE4dataB8ue170006Ev, symObjAddr: 0x4464, symBinAddr: 0x100082EA4, symSize: 0x64 }
  - { offsetInCU: 0x12BC2, offset: 0x9B892, size: 0x8, addend: 0x0, symName: __ZNKSt3__16vectorIP8ObserverNS_9allocatorIS2_EEE4sizeB8ue170006Ev, symObjAddr: 0x44C8, symBinAddr: 0x100082F08, symSize: 0xB0 }
  - { offsetInCU: 0x12BE8, offset: 0x9B8B8, size: 0x8, addend: 0x0, symName: __ZNSt3__19allocatorIP8ObserverE10deallocateB8ue170006EPS2_m, symObjAddr: 0x4578, symBinAddr: 0x100082FB8, symSize: 0x4C }
  - { offsetInCU: 0x12C2A, offset: 0x9B8FA, size: 0x8, addend: 0x0, symName: __ZNSt3__117__compressed_pairIPP8ObserverNS_9allocatorIS2_EEE6secondB8ue170006Ev, symObjAddr: 0x46EC, symBinAddr: 0x100083004, symSize: 0x24 }
  - { offsetInCU: 0x12C50, offset: 0x9B920, size: 0x8, addend: 0x0, symName: __ZNSt3__122__compressed_pair_elemINS_9allocatorIP8ObserverEELi1ELb1EE5__getB8ue170006Ev, symObjAddr: 0x4710, symBinAddr: 0x100083028, symSize: 0x14 }
  - { offsetInCU: 0x12C76, offset: 0x9B946, size: 0x8, addend: 0x0, symName: __ZNKSt3__16vectorIP8ObserverNS_9allocatorIS2_EEE9__end_capB8ue170006Ev, symObjAddr: 0x4724, symBinAddr: 0x10008303C, symSize: 0x28 }
  - { offsetInCU: 0x12C9C, offset: 0x9B96C, size: 0x8, addend: 0x0, symName: __ZNKSt3__117__compressed_pairIPP8ObserverNS_9allocatorIS2_EEE5firstB8ue170006Ev, symObjAddr: 0x474C, symBinAddr: 0x100083064, symSize: 0x24 }
  - { offsetInCU: 0x12CC2, offset: 0x9B992, size: 0x8, addend: 0x0, symName: __ZNKSt3__122__compressed_pair_elemIPP8ObserverLi0ELb0EE5__getB8ue170006Ev, symObjAddr: 0x4770, symBinAddr: 0x100083088, symSize: 0x14 }
  - { offsetInCU: 0x12CE8, offset: 0x9B9B8, size: 0x8, addend: 0x0, symName: __ZNSt3__16vectorIP8ObserverNS_9allocatorIS2_EEE9__end_capB8ue170006Ev, symObjAddr: 0x4784, symBinAddr: 0x10008309C, symSize: 0x28 }
  - { offsetInCU: 0x12D0E, offset: 0x9B9DE, size: 0x8, addend: 0x0, symName: __ZNSt3__16vectorIP8ObserverNS_9allocatorIS2_EEE22__construct_one_at_endB8ue170006IJRKS2_EEEvDpOT_, symObjAddr: 0x47AC, symBinAddr: 0x1000830C4, symSize: 0x36C }
  - { offsetInCU: 0x12D63, offset: 0x9BA33, size: 0x8, addend: 0x0, symName: __ZNSt3__16vectorIP8ObserverNS_9allocatorIS2_EEE21__push_back_slow_pathIRKS2_EEvOT_, symObjAddr: 0x4B18, symBinAddr: 0x100083430, symSize: 0x3C0 }
  - { offsetInCU: 0x12DC8, offset: 0x9BA98, size: 0x8, addend: 0x0, symName: __ZNSt3__117__compressed_pairIPP8ObserverNS_9allocatorIS2_EEE5firstB8ue170006Ev, symObjAddr: 0x4ED8, symBinAddr: 0x1000837F0, symSize: 0x24 }
  - { offsetInCU: 0x12DEE, offset: 0x9BABE, size: 0x8, addend: 0x0, symName: __ZNSt3__122__compressed_pair_elemIPP8ObserverLi0ELb0EE5__getB8ue170006Ev, symObjAddr: 0x4EFC, symBinAddr: 0x100083814, symSize: 0x14 }
  - { offsetInCU: 0x12E2D, offset: 0x9BAFD, size: 0x8, addend: 0x0, symName: __ZNSt3__16vectorIP8ObserverNS_9allocatorIS2_EEE21_ConstructTransactionC1B8ue170006ERS5_m, symObjAddr: 0x4F10, symBinAddr: 0x100083828, symSize: 0x3C }
  - { offsetInCU: 0x12E75, offset: 0x9BB45, size: 0x8, addend: 0x0, symName: __ZNSt3__116allocator_traitsINS_9allocatorIP8ObserverEEE9constructB8ue170006IS3_JRKS3_EvvEEvRS4_PT_DpOT0_, symObjAddr: 0x4F4C, symBinAddr: 0x100083864, symSize: 0x30 }
  - { offsetInCU: 0x12EC9, offset: 0x9BB99, size: 0x8, addend: 0x0, symName: __ZNSt3__16vectorIP8ObserverNS_9allocatorIS2_EEE21_ConstructTransactionD1B8ue170006Ev, symObjAddr: 0x4F7C, symBinAddr: 0x100083894, symSize: 0x2C }
  - { offsetInCU: 0x12EF3, offset: 0x9BBC3, size: 0x8, addend: 0x0, symName: __ZNSt3__16vectorIP8ObserverNS_9allocatorIS2_EEE21_ConstructTransactionC2B8ue170006ERS5_m, symObjAddr: 0x4FA8, symBinAddr: 0x1000838C0, symSize: 0x1D0 }
  - { offsetInCU: 0x12F3B, offset: 0x9BC0B, size: 0x8, addend: 0x0, symName: __ZNKSt3__16vectorIP8ObserverNS_9allocatorIS2_EEE19__annotate_increaseB8ue170006Em, symObjAddr: 0x5178, symBinAddr: 0x100083A90, symSize: 0xD8 }
  - { offsetInCU: 0x12F70, offset: 0x9BC40, size: 0x8, addend: 0x0, symName: __ZNSt3__16vectorIP8ObserverNS_9allocatorIS2_EEE21_ConstructTransactionD2B8ue170006Ev, symObjAddr: 0x5308, symBinAddr: 0x100083C20, symSize: 0x278 }
  - { offsetInCU: 0x12F9A, offset: 0x9BC6A, size: 0x8, addend: 0x0, symName: __ZNKSt3__16vectorIP8ObserverNS_9allocatorIS2_EEE17__annotate_shrinkB8ue170006Em, symObjAddr: 0x5580, symBinAddr: 0x100083E98, symSize: 0xC8 }
  - { offsetInCU: 0x12FCF, offset: 0x9BC9F, size: 0x8, addend: 0x0, symName: __ZNKSt3__16vectorIP8ObserverNS_9allocatorIS2_EEE11__recommendB8ue170006Em, symObjAddr: 0x5648, symBinAddr: 0x100083F60, symSize: 0x384 }
  - { offsetInCU: 0x1302B, offset: 0x9BCFB, size: 0x8, addend: 0x0, symName: __ZNSt3__114__split_bufferIP8ObserverRNS_9allocatorIS2_EEEC1EmmS5_, symObjAddr: 0x59CC, symBinAddr: 0x1000842E4, symSize: 0x44 }
  - { offsetInCU: 0x13081, offset: 0x9BD51, size: 0x8, addend: 0x0, symName: __ZNSt3__114__split_bufferIP8ObserverRNS_9allocatorIS2_EEED1Ev, symObjAddr: 0x5F7C, symBinAddr: 0x100084894, symSize: 0x2C }
  - { offsetInCU: 0x130AD, offset: 0x9BD7D, size: 0x8, addend: 0x0, symName: __ZNKSt3__16vectorIP8ObserverNS_9allocatorIS2_EEE8max_sizeEv, symObjAddr: 0x5FA8, symBinAddr: 0x1000848C0, symSize: 0x2FC }
  - { offsetInCU: 0x130D6, offset: 0x9BDA6, size: 0x8, addend: 0x0, symName: __ZNKSt3__16vectorIP8ObserverNS_9allocatorIS2_EEE20__throw_length_errorB8ue170006Ev, symObjAddr: 0x62A4, symBinAddr: 0x100084BBC, symSize: 0x20 }
  - { offsetInCU: 0x13106, offset: 0x9BDD6, size: 0x8, addend: 0x0, symName: __ZNSt3__116allocator_traitsINS_9allocatorIP8ObserverEEE8max_sizeB8ue170006IS4_vvEEmRKS4_, symObjAddr: 0x631C, symBinAddr: 0x100084BDC, symSize: 0x28 }
  - { offsetInCU: 0x13131, offset: 0x9BE01, size: 0x8, addend: 0x0, symName: __ZNKSt3__16vectorIP8ObserverNS_9allocatorIS2_EEE7__allocB8ue170006Ev, symObjAddr: 0x6344, symBinAddr: 0x100084C04, symSize: 0x28 }
  - { offsetInCU: 0x13157, offset: 0x9BE27, size: 0x8, addend: 0x0, symName: __ZNKSt3__117__compressed_pairIPP8ObserverNS_9allocatorIS2_EEE6secondB8ue170006Ev, symObjAddr: 0x6640, symBinAddr: 0x100084C2C, symSize: 0x24 }
  - { offsetInCU: 0x1317D, offset: 0x9BE4D, size: 0x8, addend: 0x0, symName: __ZNKSt3__122__compressed_pair_elemINS_9allocatorIP8ObserverEELi1ELb1EE5__getB8ue170006Ev, symObjAddr: 0x6664, symBinAddr: 0x100084C50, symSize: 0x14 }
  - { offsetInCU: 0x131A3, offset: 0x9BE73, size: 0x8, addend: 0x0, symName: __ZNSt3__114__split_bufferIP8ObserverRNS_9allocatorIS2_EEEC2EmmS5_, symObjAddr: 0x6990, symBinAddr: 0x100084C64, symSize: 0x520 }
  - { offsetInCU: 0x1321E, offset: 0x9BEEE, size: 0x8, addend: 0x0, symName: __ZNSt3__117__compressed_pairIPP8ObserverRNS_9allocatorIS2_EEEC1B8ue170006IDnS6_EEOT_OT0_, symObjAddr: 0x6EB0, symBinAddr: 0x100085184, symSize: 0x3C }
  - { offsetInCU: 0x13276, offset: 0x9BF46, size: 0x8, addend: 0x0, symName: __ZNSt3__114__split_bufferIP8ObserverRNS_9allocatorIS2_EEE7__allocB8ue170006Ev, symObjAddr: 0x7178, symBinAddr: 0x10008544C, symSize: 0x28 }
  - { offsetInCU: 0x1329C, offset: 0x9BF6C, size: 0x8, addend: 0x0, symName: __ZNSt3__114__split_bufferIP8ObserverRNS_9allocatorIS2_EEE9__end_capB8ue170006Ev, symObjAddr: 0x71A0, symBinAddr: 0x100085474, symSize: 0x28 }
  - { offsetInCU: 0x132C2, offset: 0x9BF92, size: 0x8, addend: 0x0, symName: __ZNSt3__117__compressed_pairIPP8ObserverRNS_9allocatorIS2_EEEC2B8ue170006IDnS6_EEOT_OT0_, symObjAddr: 0x71C8, symBinAddr: 0x10008549C, symSize: 0x48 }
  - { offsetInCU: 0x1331A, offset: 0x9BFEA, size: 0x8, addend: 0x0, symName: __ZNSt3__122__compressed_pair_elemIRNS_9allocatorIP8ObserverEELi1ELb0EEC2B8ue170006IS5_vEEOT_, symObjAddr: 0x7210, symBinAddr: 0x1000854E4, symSize: 0x70 }
  - { offsetInCU: 0x1335C, offset: 0x9C02C, size: 0x8, addend: 0x0, symName: __ZNSt3__19allocatorIP8ObserverE8allocateB8ue170006Em, symObjAddr: 0x7280, symBinAddr: 0x100085554, symSize: 0x5C }
  - { offsetInCU: 0x13390, offset: 0x9C060, size: 0x8, addend: 0x0, symName: __ZNSt3__117__compressed_pairIPP8ObserverRNS_9allocatorIS2_EEE6secondB8ue170006Ev, symObjAddr: 0x73C4, symBinAddr: 0x1000855B0, symSize: 0x28 }
  - { offsetInCU: 0x133B6, offset: 0x9C086, size: 0x8, addend: 0x0, symName: __ZNSt3__122__compressed_pair_elemIRNS_9allocatorIP8ObserverEELi1ELb0EE5__getB8ue170006Ev, symObjAddr: 0x73EC, symBinAddr: 0x1000855D8, symSize: 0x60 }
  - { offsetInCU: 0x133DC, offset: 0x9C0AC, size: 0x8, addend: 0x0, symName: __ZNSt3__117__compressed_pairIPP8ObserverRNS_9allocatorIS2_EEE5firstB8ue170006Ev, symObjAddr: 0x744C, symBinAddr: 0x100085638, symSize: 0x24 }
  - { offsetInCU: 0x13402, offset: 0x9C0D2, size: 0x8, addend: 0x0, symName: __ZNSt3__116reverse_iteratorIPP8ObserverEC1B8ue170006ES3_, symObjAddr: 0x7918, symBinAddr: 0x100085B04, symSize: 0x34 }
  - { offsetInCU: 0x1343A, offset: 0x9C10A, size: 0x8, addend: 0x0, symName: __ZNKSt3__116reverse_iteratorIPP8ObserverE4baseB8ue170006Ev, symObjAddr: 0x794C, symBinAddr: 0x100085B38, symSize: 0x64 }
  - { offsetInCU: 0x13460, offset: 0x9C130, size: 0x8, addend: 0x0, symName: __ZNKSt3__16vectorIP8ObserverNS_9allocatorIS2_EEE14__annotate_newB8ue170006Em, symObjAddr: 0x7AE4, symBinAddr: 0x100085CD0, symSize: 0xC0 }
  - { offsetInCU: 0x134B8, offset: 0x9C188, size: 0x8, addend: 0x0, symName: __ZNKSt3__111__move_loopINS_17_ClassicAlgPolicyEEclB8ue170006INS_16reverse_iteratorIPP8ObserverEES8_S8_EENS_4pairIT_T1_EESA_T0_SB_, symObjAddr: 0x9478, symBinAddr: 0x100087664, symSize: 0x3A8 }
  - { offsetInCU: 0x13530, offset: 0x9C200, size: 0x8, addend: 0x0, symName: __ZNSt3__119__unwrap_range_implINS_16reverse_iteratorIPP8ObserverEES5_E8__unwrapB8ue170006ES5_S5_, symObjAddr: 0xA300, symBinAddr: 0x1000884EC, symSize: 0x448 }
  - { offsetInCU: 0x1356E, offset: 0x9C23E, size: 0x8, addend: 0x0, symName: __ZNSt3__14pairINS_16reverse_iteratorIPP8ObserverEES5_EC1B8ue170006IS5_S5_LPv0EEEOT_OT0_, symObjAddr: 0xA748, symBinAddr: 0x100088934, symSize: 0x3C }
  - { offsetInCU: 0x135CC, offset: 0x9C29C, size: 0x8, addend: 0x0, symName: __ZNSt3__14pairINS_16reverse_iteratorIPP8ObserverEES5_EC2B8ue170006IS5_S5_LPv0EEEOT_OT0_, symObjAddr: 0xA784, symBinAddr: 0x100088970, symSize: 0x54 }
  - { offsetInCU: 0x1362F, offset: 0x9C2FF, size: 0x8, addend: 0x0, symName: __ZNSt3__18_IterOpsINS_17_ClassicAlgPolicyEE11__iter_moveB8ue170006IRNS_16reverse_iteratorIPP8ObserverEEEENS_9enable_ifIXsr12is_referenceIDTdeclsr3stdE7declvalIRT_EEEEE5valueEDTclsr3stdE4movedeclsr3stdE7declvalISC_EEEEE4typeEOSB_, symObjAddr: 0xA820, symBinAddr: 0x100088A0C, symSize: 0x28 }
  - { offsetInCU: 0x1365B, offset: 0x9C32B, size: 0x8, addend: 0x0, symName: __ZNKSt3__116reverse_iteratorIPP8ObserverEdeB8ue170006Ev, symObjAddr: 0xA848, symBinAddr: 0x100088A34, symSize: 0x74 }
  - { offsetInCU: 0x1368F, offset: 0x9C35F, size: 0x8, addend: 0x0, symName: __ZNSt3__116reverse_iteratorIPP8ObserverEppB8ue170006Ev, symObjAddr: 0xA8BC, symBinAddr: 0x100088AA8, symSize: 0x6C }
  - { offsetInCU: 0x136B5, offset: 0x9C385, size: 0x8, addend: 0x0, symName: __ZNSt3__18_IterOpsINS_17_ClassicAlgPolicyEE25__validate_iter_referenceB8ue170006IRNS_16reverse_iteratorIPP8ObserverEEEEvv, symObjAddr: 0xA928, symBinAddr: 0x100088B14, symSize: 0x4 }
  - { offsetInCU: 0x136D3, offset: 0x9C3A3, size: 0x8, addend: 0x0, symName: __ZNSt3__118__unwrap_iter_implINS_16reverse_iteratorIPP8ObserverEELb0EE8__unwrapB8ue170006ES5_, symObjAddr: 0xA92C, symBinAddr: 0x100088B18, symSize: 0x274 }
  - { offsetInCU: 0x136FA, offset: 0x9C3CA, size: 0x8, addend: 0x0, symName: __ZNSt3__119__unwrap_range_implINS_16reverse_iteratorIPP8ObserverEES5_E8__rewrapB8ue170006ES5_S5_, symObjAddr: 0xABA0, symBinAddr: 0x100088D8C, symSize: 0x3D4 }
  - { offsetInCU: 0x13733, offset: 0x9C403, size: 0x8, addend: 0x0, symName: __ZNSt3__118__unwrap_iter_implINS_16reverse_iteratorIPP8ObserverEELb0EE8__rewrapB8ue170006ES5_S5_, symObjAddr: 0xAF74, symBinAddr: 0x100089160, symSize: 0x2E0 }
  - { offsetInCU: 0x13769, offset: 0x9C439, size: 0x8, addend: 0x0, symName: __ZNSt3__116reverse_iteratorIPP8ObserverEC2B8ue170006ES3_, symObjAddr: 0xB254, symBinAddr: 0x100089440, symSize: 0xB8 }
  - { offsetInCU: 0x137A1, offset: 0x9C471, size: 0x8, addend: 0x0, symName: __ZNSt3__114__split_bufferIP8ObserverRNS_9allocatorIS2_EEED2Ev, symObjAddr: 0xB30C, symBinAddr: 0x1000894F8, symSize: 0x104 }
  - { offsetInCU: 0x137CD, offset: 0x9C49D, size: 0x8, addend: 0x0, symName: __ZNSt3__114__split_bufferIP8ObserverRNS_9allocatorIS2_EEE5clearB8ue170006Ev, symObjAddr: 0xB410, symBinAddr: 0x1000895FC, symSize: 0x68 }
  - { offsetInCU: 0x137F3, offset: 0x9C4C3, size: 0x8, addend: 0x0, symName: __ZNKSt3__114__split_bufferIP8ObserverRNS_9allocatorIS2_EEE8capacityB8ue170006Ev, symObjAddr: 0xB478, symBinAddr: 0x100089664, symSize: 0xBC }
  - { offsetInCU: 0x13819, offset: 0x9C4E9, size: 0x8, addend: 0x0, symName: __ZNSt3__114__split_bufferIP8ObserverRNS_9allocatorIS2_EEE17__destruct_at_endB8ue170006EPS2_, symObjAddr: 0xB534, symBinAddr: 0x100089720, symSize: 0x2C }
  - { offsetInCU: 0x1384D, offset: 0x9C51D, size: 0x8, addend: 0x0, symName: __ZNSt3__114__split_bufferIP8ObserverRNS_9allocatorIS2_EEE17__destruct_at_endB8ue170006EPS2_NS_17integral_constantIbLb0EEE, symObjAddr: 0xB560, symBinAddr: 0x10008974C, symSize: 0x10C }
  - { offsetInCU: 0x1388E, offset: 0x9C55E, size: 0x8, addend: 0x0, symName: __ZNKSt3__114__split_bufferIP8ObserverRNS_9allocatorIS2_EEE9__end_capB8ue170006Ev, symObjAddr: 0xB66C, symBinAddr: 0x100089858, symSize: 0x28 }
  - { offsetInCU: 0x138B4, offset: 0x9C584, size: 0x8, addend: 0x0, symName: __ZNKSt3__117__compressed_pairIPP8ObserverRNS_9allocatorIS2_EEE5firstB8ue170006Ev, symObjAddr: 0xB694, symBinAddr: 0x100089880, symSize: 0x24 }
  - { offsetInCU: 0x138DA, offset: 0x9C5AA, size: 0x8, addend: 0x0, symName: __ZNSt3__16vectorIP8ObserverNS_9allocatorIS2_EEE17__destruct_at_endB8ue170006EPS2_, symObjAddr: 0xB734, symBinAddr: 0x100089920, symSize: 0x4C }
  - { offsetInCU: 0x1391E, offset: 0x9C5EE, size: 0x8, addend: 0x0, symName: __ZNKSt3__111__wrap_iterIPKP8ObserverE4baseB8ue170006Ev, symObjAddr: 0xBA34, symBinAddr: 0x100089C20, symSize: 0x60 }
  - { offsetInCU: 0x13967, offset: 0x9C637, size: 0x8, addend: 0x0, symName: __ZNKSt3__114__move_trivialclB8ue170006IP8ObserverS3_Li0EEENS_4pairIPT_PT0_EES6_S6_S8_, symObjAddr: 0xC6FC, symBinAddr: 0x10008A8E8, symSize: 0x230 }
  - { offsetInCU: 0x139D3, offset: 0x9C6A3, size: 0x8, addend: 0x0, symName: __ZNSt3__119__unwrap_range_implIPP8ObserverS3_E8__unwrapB8ue170006ES3_S3_, symObjAddr: 0xCBD0, symBinAddr: 0x10008ADBC, symSize: 0x30C }
  - { offsetInCU: 0x13A0B, offset: 0x9C6DB, size: 0x8, addend: 0x0, symName: __ZNSt3__14pairIPP8ObserverS3_EC1B8ue170006IS3_S3_LPv0EEEOT_OT0_, symObjAddr: 0xCEDC, symBinAddr: 0x10008B0C8, symSize: 0x3C }
  - { offsetInCU: 0x13A69, offset: 0x9C739, size: 0x8, addend: 0x0, symName: __ZNSt3__14pairIPP8ObserverS3_EC2B8ue170006IS3_S3_LPv0EEEOT_OT0_, symObjAddr: 0xCF18, symBinAddr: 0x10008B104, symSize: 0x138 }
  - { offsetInCU: 0x13AC7, offset: 0x9C797, size: 0x8, addend: 0x0, symName: __ZNSt3__14pairIPP8ObserverS3_EC1B8ue170006IRS3_S3_LPv0EEEOT_OT0_, symObjAddr: 0xD674, symBinAddr: 0x10008B860, symSize: 0x3C }
  - { offsetInCU: 0x13B25, offset: 0x9C7F5, size: 0x8, addend: 0x0, symName: __ZNSt3__14pairIPP8ObserverS3_EC2B8ue170006IRS3_S3_LPv0EEEOT_OT0_, symObjAddr: 0xD6B0, symBinAddr: 0x10008B89C, symSize: 0x138 }
  - { offsetInCU: 0x13B83, offset: 0x9C853, size: 0x8, addend: 0x0, symName: __ZNSt3__118__unwrap_iter_implIPP8ObserverLb1EE8__unwrapB8ue170006ES3_, symObjAddr: 0xD7E8, symBinAddr: 0x10008B9D4, symSize: 0x24 }
  - { offsetInCU: 0x13BA6, offset: 0x9C876, size: 0x8, addend: 0x0, symName: __ZNSt3__119__unwrap_range_implIPP8ObserverS3_E8__rewrapB8ue170006ES3_S3_, symObjAddr: 0xD80C, symBinAddr: 0x10008B9F8, symSize: 0x2C }
  - { offsetInCU: 0x13BD7, offset: 0x9C8A7, size: 0x8, addend: 0x0, symName: __ZNSt3__118__unwrap_iter_implIPP8ObserverLb1EE8__rewrapB8ue170006ES3_S3_, symObjAddr: 0xD838, symBinAddr: 0x10008BA24, symSize: 0x50 }
  - { offsetInCU: 0x13C08, offset: 0x9C8D8, size: 0x8, addend: 0x0, symName: __ZNSt3__118__unwrap_iter_implINS_11__wrap_iterIPP8ObserverEELb1EE8__rewrapB8ue170006ES5_S4_, symObjAddr: 0xE3E8, symBinAddr: 0x10008C5D4, symSize: 0x2D4 }
  - { offsetInCU: 0x13C3E, offset: 0x9C90E, size: 0x8, addend: 0x0, symName: __ZNKSt3__111__wrap_iterIPP8ObserverEplB8ue170006El, symObjAddr: 0xE6BC, symBinAddr: 0x10008C8A8, symSize: 0x20C }
  - { offsetInCU: 0x13C86, offset: 0x9C956, size: 0x8, addend: 0x0, symName: __ZNSt3__111__wrap_iterIPP8ObserverEpLB8ue170006El, symObjAddr: 0xE8EC, symBinAddr: 0x10008CAD8, symSize: 0x78 }
  - { offsetInCU: 0x13CBF, offset: 0x9C98F, size: 0x8, addend: 0x0, symName: __ZNSt3__119__to_address_helperINS_11__wrap_iterIPP8ObserverEEvE6__callB8ue170006ERKS5_, symObjAddr: 0xE964, symBinAddr: 0x10008CB50, symSize: 0x200 }
  - { offsetInCU: 0x13CE3, offset: 0x9C9B3, size: 0x8, addend: 0x0, symName: __ZNSt3__114pointer_traitsINS_11__wrap_iterIPP8ObserverEEE10to_addressB8ue170006ES5_, symObjAddr: 0xEB64, symBinAddr: 0x10008CD50, symSize: 0x1F4 }
  - { offsetInCU: 0x13D14, offset: 0x9C9E4, size: 0x8, addend: 0x0, symName: __ZNKSt3__110__identityclB8ue170006IRP8ObserverEEOT_S6_, symObjAddr: 0xED84, symBinAddr: 0x10008CF70, symSize: 0x18 }
  - { offsetInCU: 0x13D51, offset: 0x9CA21, size: 0x8, addend: 0x0, symName: __ZNSt3__118__unwrap_iter_implINS_11__wrap_iterIPP8ObserverEELb1EE8__unwrapB8ue170006ES5_, symObjAddr: 0xED9C, symBinAddr: 0x10008CF88, symSize: 0x1F0 }
  - { offsetInCU: 0x13D78, offset: 0x9CA48, size: 0x8, addend: 0x0, symName: __ZNSt3__111__wrap_iterIPKP8ObserverEC2B8ue170006IPS2_EERKNS0_IT_EEPNS_9enable_ifIXsr14is_convertibleIS8_S4_EE5valueEvE4typeE, symObjAddr: 0xEF8C, symBinAddr: 0x10008D178, symSize: 0x84 }
  - { offsetInCU: 0x13DC4, offset: 0x9CA94, size: 0x8, addend: 0x0, symName: __ZNSt3__114basic_ofstreamIcNS_11char_traitsIcEEED2Ev, symObjAddr: 0xF010, symBinAddr: 0x10008D1FC, symSize: 0x198 }
  - { offsetInCU: 0x13DFE, offset: 0x9CACE, size: 0x8, addend: 0x0, symName: __ZTv0_n24_NSt3__114basic_ofstreamIcNS_11char_traitsIcEEED1Ev, symObjAddr: 0xF1A8, symBinAddr: 0x10008D394, symSize: 0xB0 }
  - { offsetInCU: 0x13E33, offset: 0x9CB03, size: 0x8, addend: 0x0, symName: __ZNSt3__113basic_ostreamIcNS_11char_traitsIcEEEC2B8ue170006EPNS_15basic_streambufIcS2_EE, symObjAddr: 0x11414, symBinAddr: 0x10008D444, symSize: 0x1D4 }
  - { offsetInCU: 0x3B, offset: 0x9CC18, size: 0x8, addend: 0x0, symName: _.str, symObjAddr: 0x6120, symBinAddr: 0x100196A40, symSize: 0x0 }
  - { offsetInCU: 0x6B, offset: 0x9CC48, size: 0x8, addend: 0x0, symName: _.str.1, symObjAddr: 0x6140, symBinAddr: 0x100196A60, symSize: 0x0 }
  - { offsetInCU: 0x88, offset: 0x9CC65, size: 0x8, addend: 0x0, symName: _.str.2, symObjAddr: 0x6180, symBinAddr: 0x100196AA0, symSize: 0x0 }
  - { offsetInCU: 0x14AE9, offset: 0xB16C6, size: 0x8, addend: 0x0, symName: __Z19testLoggingObserverv, symObjAddr: 0x0, symBinAddr: 0x10008D6B0, symSize: 0x710 }
  - { offsetInCU: 0x14B49, offset: 0xB1726, size: 0x8, addend: 0x0, symName: __Z12testObserverv, symObjAddr: 0xB9C, symBinAddr: 0x10008DDC0, symSize: 0x18 }
  - { offsetInCU: 0x3B, offset: 0xB1870, size: 0x8, addend: 0x0, symName: _.str, symObjAddr: 0xC9320, symBinAddr: 0x1001A3820, symSize: 0x0 }
  - { offsetInCU: 0x6B, offset: 0xB18A0, size: 0x8, addend: 0x0, symName: _.str.1, symObjAddr: 0xC9880, symBinAddr: 0x100196B00, symSize: 0x0 }
  - { offsetInCU: 0x88, offset: 0xB18BD, size: 0x8, addend: 0x0, symName: _.str.2, symObjAddr: 0xC98A0, symBinAddr: 0x100196B20, symSize: 0x0 }
  - { offsetInCU: 0xA5, offset: 0xB18DA, size: 0x8, addend: 0x0, symName: _.str.3, symObjAddr: 0xC98C0, symBinAddr: 0x100196B40, symSize: 0x0 }
  - { offsetInCU: 0xC2, offset: 0xB18F7, size: 0x8, addend: 0x0, symName: _.str.4, symObjAddr: 0xC9920, symBinAddr: 0x100196BA0, symSize: 0x0 }
  - { offsetInCU: 0xD3, offset: 0xB1908, size: 0x8, addend: 0x0, symName: _.str.5, symObjAddr: 0xC9940, symBinAddr: 0x100196BC0, symSize: 0x0 }
  - { offsetInCU: 0xEE, offset: 0xB1923, size: 0x8, addend: 0x0, symName: __ZN3Map10continentsE, symObjAddr: 0x271AE0, symBinAddr: 0x1001F5660, symSize: 0x0 }
  - { offsetInCU: 0x5B9A, offset: 0xB73CF, size: 0x8, addend: 0x0, symName: __ZNSt3__16ranges5__cpo9iter_moveE, symObjAddr: 0xC9858, symBinAddr: 0x1001A3D58, symSize: 0x0 }
  - { offsetInCU: 0xEAB4, offset: 0xC02E9, size: 0x8, addend: 0x0, symName: __ZNSt3__115regex_constants13__get_grammarB8ue170006ENS0_18syntax_option_typeE, symObjAddr: 0x47C40, symBinAddr: 0x1000BAE40, symSize: 0x18 }
  - { offsetInCU: 0xEAE2, offset: 0xC0317, size: 0x8, addend: 0x0, symName: __ZNSt3__115regex_constantsoRB8ue170006ERNS0_18syntax_option_typeES1_, symObjAddr: 0x47C58, symBinAddr: 0x1000BAE58, symSize: 0x108 }
  - { offsetInCU: 0xEB1F, offset: 0xC0354, size: 0x8, addend: 0x0, symName: __ZNSt3__115regex_constantsorB8ue170006ENS0_18syntax_option_typeES1_, symObjAddr: 0x482A4, symBinAddr: 0x1000BB4A4, symSize: 0x20 }
  - { offsetInCU: 0xEB5C, offset: 0xC0391, size: 0x8, addend: 0x0, symName: __ZNSt3__115regex_constantsanB8ue170006ENS0_18syntax_option_typeES1_, symObjAddr: 0x4FBCC, symBinAddr: 0x1000C2DCC, symSize: 0x20 }
  - { offsetInCU: 0xEB99, offset: 0xC03CE, size: 0x8, addend: 0x0, symName: __ZNSt3__115regex_constantsanB8ue170006ENS0_15match_flag_typeES1_, symObjAddr: 0x502E8, symBinAddr: 0x1000C34E8, symSize: 0x20 }
  - { offsetInCU: 0xEBD6, offset: 0xC040B, size: 0x8, addend: 0x0, symName: __ZNSt3__115regex_constantsorB8ue170006ENS0_15match_flag_typeES1_, symObjAddr: 0x5438C, symBinAddr: 0x1000C7448, symSize: 0x20 }
  - { offsetInCU: 0xEC13, offset: 0xC0448, size: 0x8, addend: 0x0, symName: __ZNSt3__115regex_constantscoB8ue170006ENS0_15match_flag_typeE, symObjAddr: 0x543AC, symBinAddr: 0x1000C7468, symSize: 0x1C }
  - { offsetInCU: 0xEC41, offset: 0xC0476, size: 0x8, addend: 0x0, symName: __ZNSt3__115regex_constantsaNB8ue170006ERNS0_15match_flag_typeES1_, symObjAddr: 0xA7948, symBinAddr: 0x100119F18, symSize: 0x108 }
  - { offsetInCU: 0xEC7E, offset: 0xC04B3, size: 0x8, addend: 0x0, symName: __ZNSt3__115regex_constantsoRB8ue170006ERNS0_15match_flag_typeES1_, symObjAddr: 0xA7C2C, symBinAddr: 0x10011A1FC, symSize: 0x108 }
  - { offsetInCU: 0x13B5D, offset: 0xC5392, size: 0x8, addend: 0x0, symName: __ZNSt3__17advanceB8ue170006IPP9TerritoryllvEEvRT_T0_, symObjAddr: 0x14DF8, symBinAddr: 0x10009D180, symSize: 0x38 }
  - { offsetInCU: 0x13BC8, offset: 0xC53FD, size: 0x8, addend: 0x0, symName: __ZNSt3__17advanceB8ue170006IPP9ContinentllvEEvRT_T0_, symObjAddr: 0x2227C, symBinAddr: 0x1000A0A88, symSize: 0x38 }
  - { offsetInCU: 0x18490, offset: 0xC9CC5, size: 0x8, addend: 0x0, symName: __ZNSt3__17advanceB8ue170006IPNS_6vectorINS_12basic_stringIcNS_11char_traitsIcEENS_9allocatorIcEEEENS5_IS7_EEEEllvEEvRT_T0_, symObjAddr: 0x3B370, symBinAddr: 0x1000B09F8, symSize: 0x38 }
  - { offsetInCU: 0x18710, offset: 0xC9F45, size: 0x8, addend: 0x0, symName: __ZNSt3__17advanceB8ue170006INS_16reverse_iteratorIPNS_6vectorINS_12basic_stringIcNS_11char_traitsIcEENS_9allocatorIcEEEENS6_IS8_EEEEEEllvEEvRT_T0_, symObjAddr: 0x3C658, symBinAddr: 0x1000B1CE0, symSize: 0x38 }
  - { offsetInCU: 0x1AD4C, offset: 0xCC581, size: 0x8, addend: 0x0, symName: __ZNSt3__17advanceB8ue170006IPKcllvEEvRT_T0_, symObjAddr: 0x50590, symBinAddr: 0x1000C3790, symSize: 0x38 }
  - { offsetInCU: 0x1C424, offset: 0xCDC59, size: 0x8, addend: 0x0, symName: __ZNSt3__17advanceB8ue170006IPNS_7__stateIcEEllvEEvRT_T0_, symObjAddr: 0x5CD0C, symBinAddr: 0x1000CFDC8, symSize: 0x38 }
  - { offsetInCU: 0x1C6A4, offset: 0xCDED9, size: 0x8, addend: 0x0, symName: __ZNSt3__17advanceB8ue170006INS_16reverse_iteratorIPNS_7__stateIcEEEEllvEEvRT_T0_, symObjAddr: 0x5DFF4, symBinAddr: 0x1000D10B0, symSize: 0x38 }
  - { offsetInCU: 0x1CA6D, offset: 0xCE2A2, size: 0x8, addend: 0x0, symName: __ZNSt3__17advanceB8ue170006IPNS_9sub_matchIPKcEEllvEEvRT_T0_, symObjAddr: 0x6253C, symBinAddr: 0x1000D55F8, symSize: 0x38 }
  - { offsetInCU: 0x1CCED, offset: 0xCE522, size: 0x8, addend: 0x0, symName: __ZNSt3__17advanceB8ue170006INS_16reverse_iteratorIPNS_9sub_matchIPKcEEEEllvEEvRT_T0_, symObjAddr: 0x637B4, symBinAddr: 0x1000D6870, symSize: 0x38 }
  - { offsetInCU: 0x1D0B6, offset: 0xCE8EB, size: 0x8, addend: 0x0, symName: __ZNSt3__17advanceB8ue170006IPNS_4pairImPKcEEllvEEvRT_T0_, symObjAddr: 0x67E3C, symBinAddr: 0x1000DAEF8, symSize: 0x38 }
  - { offsetInCU: 0x1D336, offset: 0xCEB6B, size: 0x8, addend: 0x0, symName: __ZNSt3__17advanceB8ue170006INS_16reverse_iteratorIPNS_4pairImPKcEEEEllvEEvRT_T0_, symObjAddr: 0x690AC, symBinAddr: 0x1000DC168, symSize: 0x38 }
  - { offsetInCU: 0x21CF9, offset: 0xD352E, size: 0x8, addend: 0x0, symName: __ZNSt3__17advanceB8ue170006IPNS_4pairINS_12basic_stringIcNS_11char_traitsIcEENS_9allocatorIcEEEES7_EEllvEEvRT_T0_, symObjAddr: 0x96D78, symBinAddr: 0x100109348, symSize: 0x38 }
  - { offsetInCU: 0x21F79, offset: 0xD37AE, size: 0x8, addend: 0x0, symName: __ZNSt3__17advanceB8ue170006INS_16reverse_iteratorIPNS_4pairINS_12basic_stringIcNS_11char_traitsIcEENS_9allocatorIcEEEES8_EEEEllvEEvRT_T0_, symObjAddr: 0x97FF0, symBinAddr: 0x10010A5C0, symSize: 0x38 }
  - { offsetInCU: 0x22342, offset: 0xD3B77, size: 0x8, addend: 0x0, symName: __ZNSt3__17advanceB8ue170006IPNS_4pairIccEEllvEEvRT_T0_, symObjAddr: 0x9C464, symBinAddr: 0x10010EA34, symSize: 0x38 }
  - { offsetInCU: 0x225C2, offset: 0xD3DF7, size: 0x8, addend: 0x0, symName: __ZNSt3__17advanceB8ue170006INS_16reverse_iteratorIPNS_4pairIccEEEEllvEEvRT_T0_, symObjAddr: 0x9D6D4, symBinAddr: 0x10010FCA4, symSize: 0x38 }
  - { offsetInCU: 0x23293, offset: 0xD4AC8, size: 0x8, addend: 0x0, symName: __ZNSt3__17advanceB8ue170006IPNS_9sub_matchINS_11__wrap_iterIPKcEEEEllvEEvRT_T0_, symObjAddr: 0xC206C, symBinAddr: 0x100134550, symSize: 0x38 }
  - { offsetInCU: 0x23513, offset: 0xD4D48, size: 0x8, addend: 0x0, symName: __ZNSt3__17advanceB8ue170006INS_16reverse_iteratorIPNS_9sub_matchINS_11__wrap_iterIPKcEEEEEEllvEEvRT_T0_, symObjAddr: 0xC32E4, symBinAddr: 0x1001357C8, symSize: 0x38 }
  - { offsetInCU: 0x2357E, offset: 0xD4DB3, size: 0x8, addend: 0x0, symName: __ZNSt3__17advanceB8ue170006INS_11__wrap_iterIPKcEEllvEEvRT_T0_, symObjAddr: 0xC3AC8, symBinAddr: 0x100135FAC, symSize: 0x38 }
  - { offsetInCU: 0x2642E, offset: 0xD7C63, size: 0x8, addend: 0x0, symName: __ZNSt3__1plB8ue170006IcNS_11char_traitsIcEENS_9allocatorIcEEEENS_12basic_stringIT_T0_T1_EEOS9_RKS9_, symObjAddr: 0x3CA4, symBinAddr: 0x100091370, symSize: 0x40 }
  - { offsetInCU: 0x26D05, offset: 0xD853A, size: 0x8, addend: 0x0, symName: __ZNSt3__112regex_searchB8ue170006INS_11char_traitsIcEENS_9allocatorIcEENS3_INS_9sub_matchINS_11__wrap_iterIPKcEEEEEEcNS_12regex_traitsIcEEEEbRKNS_12basic_stringIT2_T_T0_EERNS_13match_resultsINSI_14const_iteratorET1_EERKNS_11basic_regexISF_T3_EENS_15regex_constants15match_flag_typeE, symObjAddr: 0xB6D8, symBinAddr: 0x1000977CC, symSize: 0x518 }
  - { offsetInCU: 0x26DCB, offset: 0xD8600, size: 0x8, addend: 0x0, symName: __ZNSt3__122__make_exception_guardB8ue170006INS_6vectorIP9TerritoryNS_9allocatorIS3_EEE16__destroy_vectorEEENS_28__exception_guard_exceptionsIT_EES9_, symObjAddr: 0xFD8C, symBinAddr: 0x1000996EC, symSize: 0x278 }
  - { offsetInCU: 0x26E04, offset: 0xD8639, size: 0x8, addend: 0x0, symName: __ZNSt3__130__uninitialized_allocator_copyB8ue170006INS_9allocatorIP9TerritoryEEPS3_S5_S5_EET2_RT_T0_T1_S6_, symObjAddr: 0x11938, symBinAddr: 0x10009A658, symSize: 0x2DC }
  - { offsetInCU: 0x26EAA, offset: 0xD86DF, size: 0x8, addend: 0x0, symName: __ZNSt3__114__unwrap_rangeB8ue170006IPP9TerritoryS3_EEDaT_T0_, symObjAddr: 0x11EE8, symBinAddr: 0x10009A934, symSize: 0x224 }
  - { offsetInCU: 0x26EF8, offset: 0xD872D, size: 0x8, addend: 0x0, symName: __ZNSt3__135__uninitialized_allocator_copy_implB8ue170006INS_9allocatorIP9TerritoryEES3_S3_S3_LPv0EEEPT2_RT_PT0_SB_S7_, symObjAddr: 0x1210C, symBinAddr: 0x10009AB58, symSize: 0x38 }
  - { offsetInCU: 0x26F79, offset: 0xD87AE, size: 0x8, addend: 0x0, symName: __ZNSt3__113__unwrap_iterB8ue170006IPP9TerritoryNS_18__unwrap_iter_implIS3_Lb1EEELi0EEEDTclsrT0_8__unwrapclsr3stdE7declvalIT_EEEES7_, symObjAddr: 0x12144, symBinAddr: 0x10009AB90, symSize: 0x24 }
  - { offsetInCU: 0x26FBD, offset: 0xD87F2, size: 0x8, addend: 0x0, symName: __ZNSt3__113__rewrap_iterB8ue170006IPP9TerritoryS3_NS_18__unwrap_iter_implIS3_Lb1EEEEET_S6_T0_, symObjAddr: 0x12168, symBinAddr: 0x10009ABB4, symSize: 0x48 }
  - { offsetInCU: 0x2715D, offset: 0xD8992, size: 0x8, addend: 0x0, symName: __ZNSt3__14copyB8ue170006IPP9TerritoryS3_EET0_T_S5_S4_, symObjAddr: 0x12630, symBinAddr: 0x10009B07C, symSize: 0x26C }
  - { offsetInCU: 0x271BA, offset: 0xD89EF, size: 0x8, addend: 0x0, symName: __ZNSt3__16__copyB8ue170006INS_17_ClassicAlgPolicyEPP9TerritoryS4_S4_EENS_4pairIT0_T2_EES6_T1_S7_, symObjAddr: 0x1289C, symBinAddr: 0x10009B2E8, symSize: 0x22C }
  - { offsetInCU: 0x27229, offset: 0xD8A5E, size: 0x8, addend: 0x0, symName: __ZNSt3__123__dispatch_copy_or_moveB8ue170006INS_17_ClassicAlgPolicyENS_11__copy_loopIS1_EENS_14__copy_trivialEPP9TerritoryS7_S7_EENS_4pairIT2_T4_EES9_T3_SA_, symObjAddr: 0x12AC8, symBinAddr: 0x10009B514, symSize: 0x22C }
  - { offsetInCU: 0x272AA, offset: 0xD8ADF, size: 0x8, addend: 0x0, symName: __ZNSt3__121__unwrap_and_dispatchB8ue170006INS_10__overloadINS_11__copy_loopINS_17_ClassicAlgPolicyEEENS_14__copy_trivialEEEPP9TerritoryS9_S9_Li0EEENS_4pairIT0_T2_EESB_T1_SC_, symObjAddr: 0x12CF4, symBinAddr: 0x10009B740, symSize: 0x5A4 }
  - { offsetInCU: 0x27401, offset: 0xD8C36, size: 0x8, addend: 0x0, symName: __ZNSt3__19make_pairB8ue170006IPP9TerritoryS3_EENS_4pairINS_18__unwrap_ref_decayIT_E4typeENS5_IT0_E4typeEEEOS6_OS9_, symObjAddr: 0x134C8, symBinAddr: 0x10009BF14, symSize: 0x20C }
  - { offsetInCU: 0x27452, offset: 0xD8C87, size: 0x8, addend: 0x0, symName: __ZNSt3__114__rewrap_rangeB8ue170006IPP9TerritoryS3_S3_EET0_S4_T1_, symObjAddr: 0x136D4, symBinAddr: 0x10009C120, symSize: 0x2C }
  - { offsetInCU: 0x274A7, offset: 0xD8CDC, size: 0x8, addend: 0x0, symName: __ZNSt3__119__copy_trivial_implB8ue170006IP9TerritoryS2_EENS_4pairIPT_PT0_EES5_S5_S7_, symObjAddr: 0x13700, symBinAddr: 0x10009C14C, symSize: 0x3B4 }
  - { offsetInCU: 0x27516, offset: 0xD8D4B, size: 0x8, addend: 0x0, symName: __ZNSt3__119__constexpr_memmoveB8ue170006IP9TerritoryS2_Li0EEEPT_S4_PT0_NS_15__element_countE, symObjAddr: 0x13AB4, symBinAddr: 0x10009C500, symSize: 0x64 }
  - { offsetInCU: 0x27584, offset: 0xD8DB9, size: 0x8, addend: 0x0, symName: __ZNSt3__19make_pairB8ue170006IRPP9TerritoryS3_EENS_4pairINS_18__unwrap_ref_decayIT_E4typeENS6_IT0_E4typeEEEOS7_OSA_, symObjAddr: 0x13B18, symBinAddr: 0x10009C564, symSize: 0x20C }
  - { offsetInCU: 0x27628, offset: 0xD8E5D, size: 0x8, addend: 0x0, symName: __ZNSt3__18distanceB8ue170006IPP9TerritoryEENS_15iterator_traitsIT_E15difference_typeES5_S5_, symObjAddr: 0x147C4, symBinAddr: 0x10009CED0, symSize: 0x2C }
  - { offsetInCU: 0x2766B, offset: 0xD8EA0, size: 0x8, addend: 0x0, symName: __ZNSt3__14nextB8ue170006IPP9TerritoryEENS_9enable_ifIXsr29__has_input_iterator_categoryIT_EE5valueES5_E4typeES5_NS_15iterator_traitsIS5_E15difference_typeE, symObjAddr: 0x147F0, symBinAddr: 0x10009CEFC, symSize: 0x238 }
  - { offsetInCU: 0x276B3, offset: 0xD8EE8, size: 0x8, addend: 0x0, symName: __ZNSt3__19__advanceB8ue170006IPP9TerritoryEEvRT_NS_15iterator_traitsIS4_E15difference_typeENS_26random_access_iterator_tagE, symObjAddr: 0x14E44, symBinAddr: 0x10009D1B8, symSize: 0x78 }
  - { offsetInCU: 0x276FE, offset: 0xD8F33, size: 0x8, addend: 0x0, symName: __ZNSt3__110__distanceB8ue170006IPP9TerritoryEENS_15iterator_traitsIT_E15difference_typeES5_S5_NS_26random_access_iterator_tagE, symObjAddr: 0x150D0, symBinAddr: 0x10009D230, symSize: 0x28 }
  - { offsetInCU: 0x27789, offset: 0xD8FBE, size: 0x8, addend: 0x0, symName: __ZNSt3__1miB8ue170006IPKP9TerritoryS4_EEDTmicldtfp_4baseEcldtfp0_4baseEERKNS_11__wrap_iterIT_EERKNS6_IT0_EE, symObjAddr: 0x153C8, symBinAddr: 0x10009D258, symSize: 0x48 }
  - { offsetInCU: 0x277D5, offset: 0xD900A, size: 0x8, addend: 0x0, symName: __ZNSt3__14moveB8ue170006IPP9TerritoryS3_EET0_T_S5_S4_, symObjAddr: 0x15644, symBinAddr: 0x10009D4D4, symSize: 0x26C }
  - { offsetInCU: 0x27832, offset: 0xD9067, size: 0x8, addend: 0x0, symName: __ZNSt3__16__moveB8ue170006INS_17_ClassicAlgPolicyEPP9TerritoryS4_S4_EENS_4pairIT0_T2_EES6_T1_S7_, symObjAddr: 0x16014, symBinAddr: 0x10009DCA8, symSize: 0x22C }
  - { offsetInCU: 0x278A1, offset: 0xD90D6, size: 0x8, addend: 0x0, symName: __ZNSt3__123__dispatch_copy_or_moveB8ue170006INS_17_ClassicAlgPolicyENS_11__move_loopIS1_EENS_14__move_trivialEPP9TerritoryS7_S7_EENS_4pairIT2_T4_EES9_T3_SA_, symObjAddr: 0x16240, symBinAddr: 0x10009DED4, symSize: 0x22C }
  - { offsetInCU: 0x27922, offset: 0xD9157, size: 0x8, addend: 0x0, symName: __ZNSt3__121__unwrap_and_dispatchB8ue170006INS_10__overloadINS_11__move_loopINS_17_ClassicAlgPolicyEEENS_14__move_trivialEEEPP9TerritoryS9_S9_Li0EEENS_4pairIT0_T2_EESB_T1_SC_, symObjAddr: 0x1646C, symBinAddr: 0x10009E100, symSize: 0x5A4 }
  - { offsetInCU: 0x27A62, offset: 0xD9297, size: 0x8, addend: 0x0, symName: __ZNSt3__112construct_atB8ue170006IP9TerritoryJS2_EPS2_EEPT_S5_DpOT0_, symObjAddr: 0x1759C, symBinAddr: 0x10009F12C, symSize: 0xB8 }
  - { offsetInCU: 0x27CDF, offset: 0xD9514, size: 0x8, addend: 0x0, symName: __ZNSt3__18distanceB8ue170006IPP9ContinentEENS_15iterator_traitsIT_E15difference_typeES5_S5_, symObjAddr: 0x20E7C, symBinAddr: 0x10009F688, symSize: 0x2C }
  - { offsetInCU: 0x27D22, offset: 0xD9557, size: 0x8, addend: 0x0, symName: __ZNSt3__14nextB8ue170006IPP9ContinentEENS_9enable_ifIXsr29__has_input_iterator_categoryIT_EE5valueES5_E4typeES5_NS_15iterator_traitsIS5_E15difference_typeE, symObjAddr: 0x20EA8, symBinAddr: 0x10009F6B4, symSize: 0x238 }
  - { offsetInCU: 0x27D6A, offset: 0xD959F, size: 0x8, addend: 0x0, symName: __ZNSt3__14copyB8ue170006IPP9ContinentS3_EET0_T_S5_S4_, symObjAddr: 0x210E0, symBinAddr: 0x10009F8EC, symSize: 0x26C }
  - { offsetInCU: 0x27DC7, offset: 0xD95FC, size: 0x8, addend: 0x0, symName: __ZNSt3__16__copyB8ue170006INS_17_ClassicAlgPolicyEPP9ContinentS4_S4_EENS_4pairIT0_T2_EES6_T1_S7_, symObjAddr: 0x216CC, symBinAddr: 0x10009FED8, symSize: 0x22C }
  - { offsetInCU: 0x27E36, offset: 0xD966B, size: 0x8, addend: 0x0, symName: __ZNSt3__19__advanceB8ue170006IPP9ContinentEEvRT_NS_15iterator_traitsIS4_E15difference_typeENS_26random_access_iterator_tagE, symObjAddr: 0x222B4, symBinAddr: 0x1000A0AC0, symSize: 0x78 }
  - { offsetInCU: 0x27E80, offset: 0xD96B5, size: 0x8, addend: 0x0, symName: __ZNSt3__130__uninitialized_allocator_copyB8ue170006INS_9allocatorIP9ContinentEEPS3_S5_S5_EET2_RT_T0_T1_S6_, symObjAddr: 0x22368, symBinAddr: 0x1000A0B74, symSize: 0x2DC }
  - { offsetInCU: 0x27F26, offset: 0xD975B, size: 0x8, addend: 0x0, symName: __ZNSt3__114__unwrap_rangeB8ue170006IPP9ContinentS3_EEDaT_T0_, symObjAddr: 0x22918, symBinAddr: 0x1000A1124, symSize: 0x224 }
  - { offsetInCU: 0x27F74, offset: 0xD97A9, size: 0x8, addend: 0x0, symName: __ZNSt3__135__uninitialized_allocator_copy_implB8ue170006INS_9allocatorIP9ContinentEES3_S3_S3_LPv0EEEPT2_RT_PT0_SB_S7_, symObjAddr: 0x22B3C, symBinAddr: 0x1000A1348, symSize: 0x38 }
  - { offsetInCU: 0x27FF5, offset: 0xD982A, size: 0x8, addend: 0x0, symName: __ZNSt3__113__unwrap_iterB8ue170006IPP9ContinentNS_18__unwrap_iter_implIS3_Lb1EEELi0EEEDTclsrT0_8__unwrapclsr3stdE7declvalIT_EEEES7_, symObjAddr: 0x22B74, symBinAddr: 0x1000A1380, symSize: 0x24 }
  - { offsetInCU: 0x28039, offset: 0xD986E, size: 0x8, addend: 0x0, symName: __ZNSt3__113__rewrap_iterB8ue170006IPP9ContinentS3_NS_18__unwrap_iter_implIS3_Lb1EEEEET_S6_T0_, symObjAddr: 0x22B98, symBinAddr: 0x1000A13A4, symSize: 0x48 }
  - { offsetInCU: 0x28234, offset: 0xD9A69, size: 0x8, addend: 0x0, symName: __ZNSt3__123__dispatch_copy_or_moveB8ue170006INS_17_ClassicAlgPolicyENS_11__copy_loopIS1_EENS_14__copy_trivialEPP9ContinentS7_S7_EENS_4pairIT2_T4_EES9_T3_SA_, symObjAddr: 0x23414, symBinAddr: 0x1000A1C20, symSize: 0x22C }
  - { offsetInCU: 0x282B5, offset: 0xD9AEA, size: 0x8, addend: 0x0, symName: __ZNSt3__121__unwrap_and_dispatchB8ue170006INS_10__overloadINS_11__copy_loopINS_17_ClassicAlgPolicyEEENS_14__copy_trivialEEEPP9ContinentS9_S9_Li0EEENS_4pairIT0_T2_EESB_T1_SC_, symObjAddr: 0x23640, symBinAddr: 0x1000A1E4C, symSize: 0x5A4 }
  - { offsetInCU: 0x2834E, offset: 0xD9B83, size: 0x8, addend: 0x0, symName: __ZNSt3__19make_pairB8ue170006IPP9ContinentS3_EENS_4pairINS_18__unwrap_ref_decayIT_E4typeENS5_IT0_E4typeEEEOS6_OS9_, symObjAddr: 0x23E14, symBinAddr: 0x1000A2620, symSize: 0x20C }
  - { offsetInCU: 0x2839F, offset: 0xD9BD4, size: 0x8, addend: 0x0, symName: __ZNSt3__114__rewrap_rangeB8ue170006IPP9ContinentS3_S3_EET0_S4_T1_, symObjAddr: 0x24020, symBinAddr: 0x1000A282C, symSize: 0x2C }
  - { offsetInCU: 0x283F4, offset: 0xD9C29, size: 0x8, addend: 0x0, symName: __ZNSt3__119__copy_trivial_implB8ue170006IP9ContinentS2_EENS_4pairIPT_PT0_EES5_S5_S7_, symObjAddr: 0x2404C, symBinAddr: 0x1000A2858, symSize: 0x3B4 }
  - { offsetInCU: 0x28463, offset: 0xD9C98, size: 0x8, addend: 0x0, symName: __ZNSt3__119__constexpr_memmoveB8ue170006IP9ContinentS2_Li0EEEPT_S4_PT0_NS_15__element_countE, symObjAddr: 0x24400, symBinAddr: 0x1000A2C0C, symSize: 0x64 }
  - { offsetInCU: 0x284D1, offset: 0xD9D06, size: 0x8, addend: 0x0, symName: __ZNSt3__19make_pairB8ue170006IRPP9ContinentS3_EENS_4pairINS_18__unwrap_ref_decayIT_E4typeENS6_IT0_E4typeEEEOS7_OSA_, symObjAddr: 0x24464, symBinAddr: 0x1000A2C70, symSize: 0x20C }
  - { offsetInCU: 0x28522, offset: 0xD9D57, size: 0x8, addend: 0x0, symName: __ZNSt3__119__allocate_at_leastB8ue170006INS_9allocatorIP9ContinentEEEENS_19__allocation_resultINS_16allocator_traitsIT_E7pointerEEERS7_m, symObjAddr: 0x24B8C, symBinAddr: 0x1000A3398, symSize: 0x28C }
  - { offsetInCU: 0x28568, offset: 0xD9D9D, size: 0x8, addend: 0x0, symName: __ZNSt3__110__distanceB8ue170006IPP9ContinentEENS_15iterator_traitsIT_E15difference_typeES5_S5_NS_26random_access_iterator_tagE, symObjAddr: 0x24FBC, symBinAddr: 0x1000A37C8, symSize: 0x28 }
  - { offsetInCU: 0x285B5, offset: 0xD9DEA, size: 0x8, addend: 0x0, symName: __ZNSt3__122__make_exception_guardB8ue170006INS_6vectorIP9ContinentNS_9allocatorIS3_EEE16__destroy_vectorEEENS_28__exception_guard_exceptionsIT_EES9_, symObjAddr: 0x257D4, symBinAddr: 0x1000A3FE0, symSize: 0x278 }
  - { offsetInCU: 0x28613, offset: 0xD9E48, size: 0x8, addend: 0x0, symName: __ZNSt3__112construct_atB8ue170006IP9ContinentJRKS2_EPS2_EEPT_S7_DpOT0_, symObjAddr: 0x283E8, symBinAddr: 0x1000A5BE8, symSize: 0xB8 }
  - { offsetInCU: 0x28683, offset: 0xD9EB8, size: 0x8, addend: 0x0, symName: __ZNSt3__142__uninitialized_allocator_move_if_noexceptB8ue170006INS_9allocatorIP9ContinentEENS_16reverse_iteratorIPS3_EES7_S3_vEET1_RT_T0_SB_S8_, symObjAddr: 0x2918C, symBinAddr: 0x1000A698C, symSize: 0x4A8 }
  - { offsetInCU: 0x2870D, offset: 0xD9F42, size: 0x8, addend: 0x0, symName: __ZNSt3__14swapB8ue170006IPP9ContinentEENS_9enable_ifIXaasr21is_move_constructibleIT_EE5valuesr18is_move_assignableIS5_EE5valueEvE4typeERS5_S8_, symObjAddr: 0x296CC, symBinAddr: 0x1000A6ECC, symSize: 0x134 }
  - { offsetInCU: 0x2875E, offset: 0xD9F93, size: 0x8, addend: 0x0, symName: __ZNSt3__14moveB8ue170006INS_16reverse_iteratorIPP9ContinentEES5_EET0_T_S7_S6_, symObjAddr: 0x29800, symBinAddr: 0x1000A7000, symSize: 0x4B0 }
  - { offsetInCU: 0x287C5, offset: 0xD9FFA, size: 0x8, addend: 0x0, symName: __ZNSt3__16__moveB8ue170006INS_17_ClassicAlgPolicyENS_16reverse_iteratorIPP9ContinentEES6_S6_EENS_4pairIT0_T2_EES8_T1_S9_, symObjAddr: 0x29CB0, symBinAddr: 0x1000A74B0, symSize: 0x424 }
  - { offsetInCU: 0x2883D, offset: 0xDA072, size: 0x8, addend: 0x0, symName: __ZNSt3__123__dispatch_copy_or_moveB8ue170006INS_17_ClassicAlgPolicyENS_11__move_loopIS1_EENS_14__move_trivialENS_16reverse_iteratorIPP9ContinentEES9_S9_EENS_4pairIT2_T4_EESB_T3_SC_, symObjAddr: 0x2A0D4, symBinAddr: 0x1000A78D4, symSize: 0x424 }
  - { offsetInCU: 0x288C7, offset: 0xDA0FC, size: 0x8, addend: 0x0, symName: __ZNSt3__121__unwrap_and_dispatchB8ue170006INS_10__overloadINS_11__move_loopINS_17_ClassicAlgPolicyEEENS_14__move_trivialEEENS_16reverse_iteratorIPP9ContinentEESB_SB_Li0EEENS_4pairIT0_T2_EESD_T1_SE_, symObjAddr: 0x2A4F8, symBinAddr: 0x1000A7CF8, symSize: 0x880 }
  - { offsetInCU: 0x2896B, offset: 0xDA1A0, size: 0x8, addend: 0x0, symName: __ZNSt3__114__unwrap_rangeB8ue170006INS_16reverse_iteratorIPP9ContinentEES5_EEDaT_T0_, symObjAddr: 0x2AD78, symBinAddr: 0x1000A8578, symSize: 0x35C }
  - { offsetInCU: 0x28A93, offset: 0xDA2C8, size: 0x8, addend: 0x0, symName: __ZNSt3__113__unwrap_iterB8ue170006INS_16reverse_iteratorIPP9ContinentEENS_18__unwrap_iter_implIS5_Lb0EEELi0EEEDTclsrT0_8__unwrapclsr3stdE7declvalIT_EEEES9_, symObjAddr: 0x2B47C, symBinAddr: 0x1000A8C7C, symSize: 0x2EC }
  - { offsetInCU: 0x28ADB, offset: 0xDA310, size: 0x8, addend: 0x0, symName: __ZNSt3__19make_pairB8ue170006INS_16reverse_iteratorIPP9ContinentEES5_EENS_4pairINS_18__unwrap_ref_decayIT_E4typeENS7_IT0_E4typeEEEOS8_OSB_, symObjAddr: 0x2B768, symBinAddr: 0x1000A8F68, symSize: 0x38 }
  - { offsetInCU: 0x28B2A, offset: 0xDA35F, size: 0x8, addend: 0x0, symName: __ZNSt3__114__rewrap_rangeB8ue170006INS_16reverse_iteratorIPP9ContinentEES5_S5_EET0_S6_T1_, symObjAddr: 0x2B7A0, symBinAddr: 0x1000A8FA0, symSize: 0x3D4 }
  - { offsetInCU: 0x28B87, offset: 0xDA3BC, size: 0x8, addend: 0x0, symName: __ZNSt3__113__rewrap_iterB8ue170006INS_16reverse_iteratorIPP9ContinentEES5_NS_18__unwrap_iter_implIS5_Lb0EEEEET_S8_T0_, symObjAddr: 0x2BB74, symBinAddr: 0x1000A9374, symSize: 0x3E8 }
  - { offsetInCU: 0x28C34, offset: 0xDA469, size: 0x8, addend: 0x0, symName: __ZNSt3__1neB8ue170006IPP9ContinentS3_EEbRKNS_16reverse_iteratorIT_EERKNS4_IT0_EE, symObjAddr: 0x2C434, symBinAddr: 0x1000A9C34, symSize: 0x48 }
  - { offsetInCU: 0x28CED, offset: 0xDA522, size: 0x8, addend: 0x0, symName: __ZNSt3__112__to_addressB8ue170006INS_9sub_matchINS_11__wrap_iterIPKcEEEEEEPT_S8_, symObjAddr: 0x2DBD0, symBinAddr: 0x1000AB3D0, symSize: 0x14 }
  - { offsetInCU: 0x28D21, offset: 0xDA556, size: 0x8, addend: 0x0, symName: __ZNSt3__110destroy_atB8ue170006INS_9sub_matchINS_11__wrap_iterIPKcEEEELi0EEEvPT_, symObjAddr: 0x2DBE4, symBinAddr: 0x1000AB3E4, symSize: 0x24 }
  - { offsetInCU: 0x28D59, offset: 0xDA58E, size: 0x8, addend: 0x0, symName: __ZNSt3__112__destroy_atB8ue170006INS_9sub_matchINS_11__wrap_iterIPKcEEEELi0EEEvPT_, symObjAddr: 0x2DC08, symBinAddr: 0x1000AB408, symSize: 0x10 }
  - { offsetInCU: 0x28D8F, offset: 0xDA5C4, size: 0x8, addend: 0x0, symName: __ZNSt3__134__libcpp_atomic_refcount_decrementB8ue170006IlEET_RS1_, symObjAddr: 0x2E0F8, symBinAddr: 0x1000AB8F8, symSize: 0x80 }
  - { offsetInCU: 0x28DC5, offset: 0xDA5FA, size: 0x8, addend: 0x0, symName: __ZNSt3__112__to_addressB8ue170006INS_6vectorINS_12basic_stringIcNS_11char_traitsIcEENS_9allocatorIcEEEENS5_IS7_EEEEEEPT_SB_, symObjAddr: 0x3437C, symBinAddr: 0x1000AC1C4, symSize: 0x14 }
  - { offsetInCU: 0x28E1E, offset: 0xDA653, size: 0x8, addend: 0x0, symName: __ZNSt3__112construct_atB8ue170006INS_6vectorINS_12basic_stringIcNS_11char_traitsIcEENS_9allocatorIcEEEENS5_IS7_EEEEJRKS9_EPS9_EEPT_SE_DpOT0_, symObjAddr: 0x34914, symBinAddr: 0x1000AC75C, symSize: 0x3C }
  - { offsetInCU: 0x28E8E, offset: 0xDA6C3, size: 0x8, addend: 0x0, symName: __ZNSt3__122__make_exception_guardB8ue170006INS_6vectorINS_12basic_stringIcNS_11char_traitsIcEENS_9allocatorIcEEEENS5_IS7_EEE16__destroy_vectorEEENS_28__exception_guard_exceptionsIT_EESC_, symObjAddr: 0x35110, symBinAddr: 0x1000ACF58, symSize: 0x278 }
  - { offsetInCU: 0x28EC7, offset: 0xDA6FC, size: 0x8, addend: 0x0, symName: __ZNSt3__119__allocate_at_leastB8ue170006INS_9allocatorINS_6vectorINS_12basic_stringIcNS_11char_traitsIcEENS1_IcEEEENS1_IS7_EEEEEEEENS_19__allocation_resultINS_16allocator_traitsIT_E7pointerEEERSD_m, symObjAddr: 0x3975C, symBinAddr: 0x1000AEDE4, symSize: 0x28C }
  - { offsetInCU: 0x28F0C, offset: 0xDA741, size: 0x8, addend: 0x0, symName: __ZNSt3__142__uninitialized_allocator_move_if_noexceptB8ue170006INS_9allocatorINS_6vectorINS_12basic_stringIcNS_11char_traitsIcEENS1_IcEEEENS1_IS7_EEEEEENS_16reverse_iteratorIPS9_EESD_SD_EET2_RT_T0_T1_SE_, symObjAddr: 0x39CE4, symBinAddr: 0x1000AF36C, symSize: 0x544 }
  - { offsetInCU: 0x28FC1, offset: 0xDA7F6, size: 0x8, addend: 0x0, symName: __ZNSt3__14swapB8ue170006IPNS_6vectorINS_12basic_stringIcNS_11char_traitsIcEENS_9allocatorIcEEEENS5_IS7_EEEEEENS_9enable_ifIXaasr21is_move_constructibleIT_EE5valuesr18is_move_assignableISC_EE5valueEvE4typeERSC_SF_, symObjAddr: 0x3A2C0, symBinAddr: 0x1000AF948, symSize: 0x134 }
  - { offsetInCU: 0x29012, offset: 0xDA847, size: 0x8, addend: 0x0, symName: __ZNSt3__122__make_exception_guardB8ue170006INS_29_AllocatorDestroyRangeReverseINS_9allocatorINS_6vectorINS_12basic_stringIcNS_11char_traitsIcEENS2_IcEEEENS2_IS8_EEEEEENS_16reverse_iteratorIPSA_EEEEEENS_28__exception_guard_exceptionsIT_EESH_, symObjAddr: 0x3A4D0, symBinAddr: 0x1000AFB58, symSize: 0x1F8 }
  - { offsetInCU: 0x29049, offset: 0xDA87E, size: 0x8, addend: 0x0, symName: __ZNSt3__1neB8ue170006IPNS_6vectorINS_12basic_stringIcNS_11char_traitsIcEENS_9allocatorIcEEEENS5_IS7_EEEESA_EEbRKNS_16reverse_iteratorIT_EERKNSB_IT0_EE, symObjAddr: 0x3A70C, symBinAddr: 0x1000AFD94, symSize: 0x48 }
  - { offsetInCU: 0x29095, offset: 0xDA8CA, size: 0x8, addend: 0x0, symName: __ZNSt3__112__to_addressB8ue170006INS_16reverse_iteratorIPNS_6vectorINS_12basic_stringIcNS_11char_traitsIcEENS_9allocatorIcEEEENS6_IS8_EEEEEEvEEu7__decayIDTclsr19__to_address_helperIT_EE6__callclsr3stdE7declvalIRKSD_EEEEESF_, symObjAddr: 0x3A784, symBinAddr: 0x1000AFE0C, symSize: 0x24 }
  - { offsetInCU: 0x290CB, offset: 0xDA900, size: 0x8, addend: 0x0, symName: __ZNSt3__112construct_atB8ue170006INS_6vectorINS_12basic_stringIcNS_11char_traitsIcEENS_9allocatorIcEEEENS5_IS7_EEEEJS9_EPS9_EEPT_SC_DpOT0_, symObjAddr: 0x3AB1C, symBinAddr: 0x1000B01A4, symSize: 0x3C }
  - { offsetInCU: 0x29165, offset: 0xDA99A, size: 0x8, addend: 0x0, symName: __ZNSt3__14prevB8ue170006IPNS_6vectorINS_12basic_stringIcNS_11char_traitsIcEENS_9allocatorIcEEEENS5_IS7_EEEEEENS_9enable_ifIXsr29__has_input_iterator_categoryIT_EE5valueESC_E4typeESC_NS_15iterator_traitsISC_E15difference_typeE, symObjAddr: 0x3B130, symBinAddr: 0x1000B07B8, symSize: 0x240 }
  - { offsetInCU: 0x291AD, offset: 0xDA9E2, size: 0x8, addend: 0x0, symName: __ZNSt3__19__advanceB8ue170006IPNS_6vectorINS_12basic_stringIcNS_11char_traitsIcEENS_9allocatorIcEEEENS5_IS7_EEEEEEvRT_NS_15iterator_traitsISB_E15difference_typeENS_26random_access_iterator_tagE, symObjAddr: 0x3B3A8, symBinAddr: 0x1000B0A30, symSize: 0x80 }
  - { offsetInCU: 0x291F8, offset: 0xDAA2D, size: 0x8, addend: 0x0, symName: __ZNSt3__119__allocator_destroyB8ue170006INS_9allocatorINS_6vectorINS_12basic_stringIcNS_11char_traitsIcEENS1_IcEEEENS1_IS7_EEEEEENS_16reverse_iteratorINSB_IPS9_EEEESE_EEvRT_T0_T1_, symObjAddr: 0x3B88C, symBinAddr: 0x1000B0F14, symSize: 0x70 }
  - { offsetInCU: 0x2925C, offset: 0xDAA91, size: 0x8, addend: 0x0, symName: __ZNSt3__1neB8ue170006INS_16reverse_iteratorIPNS_6vectorINS_12basic_stringIcNS_11char_traitsIcEENS_9allocatorIcEEEENS6_IS8_EEEEEESC_EEbRKNS1_IT_EERKNS1_IT0_EE, symObjAddr: 0x3BB44, symBinAddr: 0x1000B11CC, symSize: 0x2CC }
  - { offsetInCU: 0x292AA, offset: 0xDAADF, size: 0x8, addend: 0x0, symName: __ZNSt3__112__to_addressB8ue170006INS_16reverse_iteratorINS1_IPNS_6vectorINS_12basic_stringIcNS_11char_traitsIcEENS_9allocatorIcEEEENS6_IS8_EEEEEEEEvEEu7__decayIDTclsr19__to_address_helperIT_EE6__callclsr3stdE7declvalIRKSE_EEEEESG_, symObjAddr: 0x3BE38, symBinAddr: 0x1000B14C0, symSize: 0x24 }
  - { offsetInCU: 0x292E0, offset: 0xDAB15, size: 0x8, addend: 0x0, symName: __ZNSt3__110destroy_atB8ue170006INS_6vectorINS_12basic_stringIcNS_11char_traitsIcEENS_9allocatorIcEEEENS5_IS7_EEEELi0EEEvPT_, symObjAddr: 0x3C098, symBinAddr: 0x1000B1720, symSize: 0x24 }
  - { offsetInCU: 0x29317, offset: 0xDAB4C, size: 0x8, addend: 0x0, symName: __ZNSt3__112__destroy_atB8ue170006INS_6vectorINS_12basic_stringIcNS_11char_traitsIcEENS_9allocatorIcEEEENS5_IS7_EEEELi0EEEvPT_, symObjAddr: 0x3C0BC, symBinAddr: 0x1000B1744, symSize: 0x24 }
  - { offsetInCU: 0x29378, offset: 0xDABAD, size: 0x8, addend: 0x0, symName: __ZNSt3__14prevB8ue170006INS_16reverse_iteratorIPNS_6vectorINS_12basic_stringIcNS_11char_traitsIcEENS_9allocatorIcEEEENS6_IS8_EEEEEEEENS_9enable_ifIXsr29__has_input_iterator_categoryIT_EE5valueESE_E4typeESE_NS_15iterator_traitsISE_E15difference_typeE, symObjAddr: 0x3C3C4, symBinAddr: 0x1000B1A4C, symSize: 0x294 }
  - { offsetInCU: 0x293C0, offset: 0xDABF5, size: 0x8, addend: 0x0, symName: __ZNSt3__19__advanceB8ue170006INS_16reverse_iteratorIPNS_6vectorINS_12basic_stringIcNS_11char_traitsIcEENS_9allocatorIcEEEENS6_IS8_EEEEEEEEvRT_NS_15iterator_traitsISD_E15difference_typeENS_26random_access_iterator_tagE, symObjAddr: 0x3C690, symBinAddr: 0x1000B1D18, symSize: 0x2C }
  - { offsetInCU: 0x2940B, offset: 0xDAC40, size: 0x8, addend: 0x0, symName: __ZNSt3__112__to_addressB8ue170006IiEEPT_S2_, symObjAddr: 0x3DBC4, symBinAddr: 0x1000B324C, symSize: 0x14 }
  - { offsetInCU: 0x29464, offset: 0xDAC99, size: 0x8, addend: 0x0, symName: __ZNSt3__112construct_atB8ue170006IiJiEPiEEPT_S3_DpOT0_, symObjAddr: 0x3E084, symBinAddr: 0x1000B370C, symSize: 0x108 }
  - { offsetInCU: 0x294D4, offset: 0xDAD09, size: 0x8, addend: 0x0, symName: __ZNSt3__119__allocate_at_leastB8ue170006INS_9allocatorIiEEEENS_19__allocation_resultINS_16allocator_traitsIT_E7pointerEEERS5_m, symObjAddr: 0x3F764, symBinAddr: 0x1000B4DEC, symSize: 0x28C }
  - { offsetInCU: 0x29519, offset: 0xDAD4E, size: 0x8, addend: 0x0, symName: __ZNSt3__142__uninitialized_allocator_move_if_noexceptB8ue170006INS_9allocatorIiEENS_16reverse_iteratorIPiEES5_ivEET1_RT_T0_S9_S6_, symObjAddr: 0x3FCCC, symBinAddr: 0x1000B5354, symSize: 0x4A8 }
  - { offsetInCU: 0x295A3, offset: 0xDADD8, size: 0x8, addend: 0x0, symName: __ZNSt3__14swapB8ue170006IPiEENS_9enable_ifIXaasr21is_move_constructibleIT_EE5valuesr18is_move_assignableIS3_EE5valueEvE4typeERS3_S6_, symObjAddr: 0x4020C, symBinAddr: 0x1000B5894, symSize: 0x134 }
  - { offsetInCU: 0x295F4, offset: 0xDAE29, size: 0x8, addend: 0x0, symName: __ZNSt3__14moveB8ue170006INS_16reverse_iteratorIPiEES3_EET0_T_S5_S4_, symObjAddr: 0x40400, symBinAddr: 0x1000B5A88, symSize: 0x4B0 }
  - { offsetInCU: 0x2965B, offset: 0xDAE90, size: 0x8, addend: 0x0, symName: __ZNSt3__16__moveB8ue170006INS_17_ClassicAlgPolicyENS_16reverse_iteratorIPiEES4_S4_EENS_4pairIT0_T2_EES6_T1_S7_, symObjAddr: 0x408B0, symBinAddr: 0x1000B5F38, symSize: 0x424 }
  - { offsetInCU: 0x296D3, offset: 0xDAF08, size: 0x8, addend: 0x0, symName: __ZNSt3__123__dispatch_copy_or_moveB8ue170006INS_17_ClassicAlgPolicyENS_11__move_loopIS1_EENS_14__move_trivialENS_16reverse_iteratorIPiEES7_S7_EENS_4pairIT2_T4_EES9_T3_SA_, symObjAddr: 0x40CD4, symBinAddr: 0x1000B635C, symSize: 0x424 }
  - { offsetInCU: 0x2975D, offset: 0xDAF92, size: 0x8, addend: 0x0, symName: __ZNSt3__121__unwrap_and_dispatchB8ue170006INS_10__overloadINS_11__move_loopINS_17_ClassicAlgPolicyEEENS_14__move_trivialEEENS_16reverse_iteratorIPiEES9_S9_Li0EEENS_4pairIT0_T2_EESB_T1_SC_, symObjAddr: 0x410F8, symBinAddr: 0x1000B6780, symSize: 0x880 }
  - { offsetInCU: 0x29801, offset: 0xDB036, size: 0x8, addend: 0x0, symName: __ZNSt3__114__unwrap_rangeB8ue170006INS_16reverse_iteratorIPiEES3_EEDaT_T0_, symObjAddr: 0x41978, symBinAddr: 0x1000B7000, symSize: 0x35C }
  - { offsetInCU: 0x29929, offset: 0xDB15E, size: 0x8, addend: 0x0, symName: __ZNSt3__113__unwrap_iterB8ue170006INS_16reverse_iteratorIPiEENS_18__unwrap_iter_implIS3_Lb0EEELi0EEEDTclsrT0_8__unwrapclsr3stdE7declvalIT_EEEES7_, symObjAddr: 0x420CC, symBinAddr: 0x1000B7754, symSize: 0x2EC }
  - { offsetInCU: 0x29971, offset: 0xDB1A6, size: 0x8, addend: 0x0, symName: __ZNSt3__19make_pairB8ue170006INS_16reverse_iteratorIPiEES3_EENS_4pairINS_18__unwrap_ref_decayIT_E4typeENS5_IT0_E4typeEEEOS6_OS9_, symObjAddr: 0x423B8, symBinAddr: 0x1000B7A40, symSize: 0x38 }
  - { offsetInCU: 0x299C0, offset: 0xDB1F5, size: 0x8, addend: 0x0, symName: __ZNSt3__114__rewrap_rangeB8ue170006INS_16reverse_iteratorIPiEES3_S3_EET0_S4_T1_, symObjAddr: 0x423F0, symBinAddr: 0x1000B7A78, symSize: 0x3D4 }
  - { offsetInCU: 0x29A1D, offset: 0xDB252, size: 0x8, addend: 0x0, symName: __ZNSt3__113__rewrap_iterB8ue170006INS_16reverse_iteratorIPiEES3_NS_18__unwrap_iter_implIS3_Lb0EEEEET_S6_T0_, symObjAddr: 0x427C4, symBinAddr: 0x1000B7E4C, symSize: 0x3E8 }
  - { offsetInCU: 0x29ACA, offset: 0xDB2FF, size: 0x8, addend: 0x0, symName: __ZNSt3__1neB8ue170006IPiS1_EEbRKNS_16reverse_iteratorIT_EERKNS2_IT0_EE, symObjAddr: 0x43084, symBinAddr: 0x1000B870C, symSize: 0x48 }
  - { offsetInCU: 0x29B82, offset: 0xDB3B7, size: 0x8, addend: 0x0, symName: __ZNSt3__110destroy_atB8ue170006IiLi0EEEvPT_, symObjAddr: 0x43F74, symBinAddr: 0x1000B95FC, symSize: 0x24 }
  - { offsetInCU: 0x29BBA, offset: 0xDB3EF, size: 0x8, addend: 0x0, symName: __ZNSt3__112__destroy_atB8ue170006IiLi0EEEvPT_, symObjAddr: 0x43F98, symBinAddr: 0x1000B9620, symSize: 0x10 }
  - { offsetInCU: 0x29BF0, offset: 0xDB425, size: 0x8, addend: 0x0, symName: __ZNSt3__19use_facetB8ue170006INS_7collateIcEEEERKT_RKNS_6localeE, symObjAddr: 0x47B78, symBinAddr: 0x1000BAD78, symSize: 0x2C }
  - { offsetInCU: 0x29C26, offset: 0xDB45B, size: 0x8, addend: 0x0, symName: __ZNSt3__119__throw_regex_errorB8ue170006ILNS_15regex_constants10error_typeE17EEEvv, symObjAddr: 0x48240, symBinAddr: 0x1000BB440, symSize: 0x64 }
  - { offsetInCU: 0x2A0B8, offset: 0xDB8ED, size: 0x8, addend: 0x0, symName: __ZNSt3__119__throw_regex_errorB8ue170006ILNS_15regex_constants10error_typeE14EEEvv, symObjAddr: 0x495E8, symBinAddr: 0x1000BC7E8, symSize: 0x64 }
  - { offsetInCU: 0x2AAFF, offset: 0xDC334, size: 0x8, addend: 0x0, symName: __ZNSt3__14swapB8ue170006IPNS_13__empty_stateIcEEEENS_9enable_ifIXaasr21is_move_constructibleIT_EE5valuesr18is_move_assignableIS5_EE5valueEvE4typeERS5_S8_, symObjAddr: 0x4B668, symBinAddr: 0x1000BE868, symSize: 0x134 }
  - { offsetInCU: 0x2AB50, offset: 0xDC385, size: 0x8, addend: 0x0, symName: __ZNSt3__14swapB8ue170006IPNS_19__shared_weak_countEEENS_9enable_ifIXaasr21is_move_constructibleIT_EE5valuesr18is_move_assignableIS4_EE5valueEvE4typeERS4_S7_, symObjAddr: 0x4B79C, symBinAddr: 0x1000BE99C, symSize: 0x134 }
  - { offsetInCU: 0x2ABA1, offset: 0xDC3D6, size: 0x8, addend: 0x0, symName: __ZNSt3__14nextB8ue170006IPKcEENS_9enable_ifIXsr29__has_input_iterator_categoryIT_EE5valueES4_E4typeES4_NS_15iterator_traitsIS4_E15difference_typeE, symObjAddr: 0x4F2F8, symBinAddr: 0x1000C24F8, symSize: 0x238 }
  - { offsetInCU: 0x2ABEA, offset: 0xDC41F, size: 0x8, addend: 0x0, symName: __ZNSt3__119__throw_regex_errorB8ue170006ILNS_15regex_constants10error_typeE6EEEvv, symObjAddr: 0x4F9F0, symBinAddr: 0x1000C2BF0, symSize: 0x64 }
  - { offsetInCU: 0x2AC95, offset: 0xDC4CA, size: 0x8, addend: 0x0, symName: __ZNSt3__18__is_eolB8ue170006IcEEbT_, symObjAddr: 0x50308, symBinAddr: 0x1000C3508, symSize: 0x48 }
  - { offsetInCU: 0x2ACCC, offset: 0xDC501, size: 0x8, addend: 0x0, symName: __ZNSt3__14prevB8ue170006IPKcEENS_9enable_ifIXsr29__has_input_iterator_categoryIT_EE5valueES4_E4typeES4_NS_15iterator_traitsIS4_E15difference_typeE, symObjAddr: 0x50350, symBinAddr: 0x1000C3550, symSize: 0x240 }
  - { offsetInCU: 0x2AD14, offset: 0xDC549, size: 0x8, addend: 0x0, symName: __ZNSt3__19__advanceB8ue170006IPKcEEvRT_NS_15iterator_traitsIS3_E15difference_typeENS_26random_access_iterator_tagE, symObjAddr: 0x505C8, symBinAddr: 0x1000C37C8, symSize: 0x78 }
  - { offsetInCU: 0x2AF69, offset: 0xDC79E, size: 0x8, addend: 0x0, symName: __ZNSt3__134__libcpp_atomic_refcount_incrementB8ue170006IlEET_RS1_, symObjAddr: 0x52BE0, symBinAddr: 0x1000C5C9C, symSize: 0x80 }
  - { offsetInCU: 0x2B287, offset: 0xDCABC, size: 0x8, addend: 0x0, symName: __ZNSt3__112__to_addressB8ue170006INS_9sub_matchIPKcEEEEPT_S6_, symObjAddr: 0x55530, symBinAddr: 0x1000C85EC, symSize: 0x14 }
  - { offsetInCU: 0x2B2BB, offset: 0xDCAF0, size: 0x8, addend: 0x0, symName: __ZNSt3__110destroy_atB8ue170006INS_9sub_matchIPKcEELi0EEEvPT_, symObjAddr: 0x55544, symBinAddr: 0x1000C8600, symSize: 0x24 }
  - { offsetInCU: 0x2B2F3, offset: 0xDCB28, size: 0x8, addend: 0x0, symName: __ZNSt3__112__destroy_atB8ue170006INS_9sub_matchIPKcEELi0EEEvPT_, symObjAddr: 0x55568, symBinAddr: 0x1000C8624, symSize: 0x10 }
  - { offsetInCU: 0x2B329, offset: 0xDCB5E, size: 0x8, addend: 0x0, symName: __ZNSt3__16fill_nB8ue170006IPNS_9sub_matchIPKcEEmS4_EET_S6_T0_RKT1_, symObjAddr: 0x55D80, symBinAddr: 0x1000C8E3C, symSize: 0x44 }
  - { offsetInCU: 0x2B38C, offset: 0xDCBC1, size: 0x8, addend: 0x0, symName: __ZNSt3__18__fill_nB8ue170006IPNS_9sub_matchIPKcEEmS4_EET_S6_T0_RKT1_, symObjAddr: 0x56B3C, symBinAddr: 0x1000C9BF8, symSize: 0x6C }
  - { offsetInCU: 0x2B414, offset: 0xDCC49, size: 0x8, addend: 0x0, symName: __ZNSt3__112construct_atB8ue170006INS_9sub_matchIPKcEEJRKS4_EPS4_EEPT_S9_DpOT0_, symObjAddr: 0x56F10, symBinAddr: 0x1000C9FCC, symSize: 0x40 }
  - { offsetInCU: 0x2B484, offset: 0xDCCB9, size: 0x8, addend: 0x0, symName: __ZNSt3__119__allocate_at_leastB8ue170006INS_9allocatorINS_9sub_matchIPKcEEEEEENS_19__allocation_resultINS_16allocator_traitsIT_E7pointerEEERS9_m, symObjAddr: 0x5766C, symBinAddr: 0x1000CA728, symSize: 0x28C }
  - { offsetInCU: 0x2B4CA, offset: 0xDCCFF, size: 0x8, addend: 0x0, symName: __ZNSt3__119__throw_regex_errorB8ue170006ILNS_15regex_constants10error_typeE12EEEvv, symObjAddr: 0x57ECC, symBinAddr: 0x1000CAF88, symSize: 0x64 }
  - { offsetInCU: 0x2B4EF, offset: 0xDCD24, size: 0x8, addend: 0x0, symName: __ZNSt3__119__throw_regex_errorB8ue170006ILNS_15regex_constants10error_typeE16EEEvv, symObjAddr: 0x57FD0, symBinAddr: 0x1000CB08C, symSize: 0x64 }
  - { offsetInCU: 0x2B514, offset: 0xDCD49, size: 0x8, addend: 0x0, symName: __ZNSt3__112__to_addressB8ue170006INS_7__stateIcEEEEPT_S4_, symObjAddr: 0x58D64, symBinAddr: 0x1000CBE20, symSize: 0x14 }
  - { offsetInCU: 0x2B56D, offset: 0xDCDA2, size: 0x8, addend: 0x0, symName: __ZNSt3__112construct_atB8ue170006INS_7__stateIcEEJS2_EPS2_EEPT_S5_DpOT0_, symObjAddr: 0x592FC, symBinAddr: 0x1000CC3B8, symSize: 0x3C }
  - { offsetInCU: 0x2B5DD, offset: 0xDCE12, size: 0x8, addend: 0x0, symName: __ZNSt3__119__allocate_at_leastB8ue170006INS_9allocatorINS_7__stateIcEEEEEENS_19__allocation_resultINS_16allocator_traitsIT_E7pointerEEERS7_m, symObjAddr: 0x5B68C, symBinAddr: 0x1000CE748, symSize: 0x28C }
  - { offsetInCU: 0x2B622, offset: 0xDCE57, size: 0x8, addend: 0x0, symName: __ZNSt3__142__uninitialized_allocator_move_if_noexceptB8ue170006INS_9allocatorINS_7__stateIcEEEENS_16reverse_iteratorIPS3_EES7_S7_EET2_RT_T0_T1_S8_, symObjAddr: 0x5BC14, symBinAddr: 0x1000CECD0, symSize: 0x544 }
  - { offsetInCU: 0x2B6D7, offset: 0xDCF0C, size: 0x8, addend: 0x0, symName: __ZNSt3__14swapB8ue170006IPNS_7__stateIcEEEENS_9enable_ifIXaasr21is_move_constructibleIT_EE5valuesr18is_move_assignableIS5_EE5valueEvE4typeERS5_S8_, symObjAddr: 0x5C1F0, symBinAddr: 0x1000CF2AC, symSize: 0x134 }
  - { offsetInCU: 0x2B728, offset: 0xDCF5D, size: 0x8, addend: 0x0, symName: __ZNSt3__122__make_exception_guardB8ue170006INS_29_AllocatorDestroyRangeReverseINS_9allocatorINS_7__stateIcEEEENS_16reverse_iteratorIPS4_EEEEEENS_28__exception_guard_exceptionsIT_EESB_, symObjAddr: 0x5C400, symBinAddr: 0x1000CF4BC, symSize: 0x1F8 }
  - { offsetInCU: 0x2B75F, offset: 0xDCF94, size: 0x8, addend: 0x0, symName: __ZNSt3__1neB8ue170006IPNS_7__stateIcEES3_EEbRKNS_16reverse_iteratorIT_EERKNS4_IT0_EE, symObjAddr: 0x5C63C, symBinAddr: 0x1000CF6F8, symSize: 0x48 }
  - { offsetInCU: 0x2B7AB, offset: 0xDCFE0, size: 0x8, addend: 0x0, symName: __ZNSt3__112__to_addressB8ue170006INS_16reverse_iteratorIPNS_7__stateIcEEEEvEEu7__decayIDTclsr19__to_address_helperIT_EE6__callclsr3stdE7declvalIRKS6_EEEEES8_, symObjAddr: 0x5C684, symBinAddr: 0x1000CF740, symSize: 0x24 }
  - { offsetInCU: 0x2B80B, offset: 0xDD040, size: 0x8, addend: 0x0, symName: __ZNSt3__14prevB8ue170006IPNS_7__stateIcEEEENS_9enable_ifIXsr29__has_input_iterator_categoryIT_EE5valueES5_E4typeES5_NS_15iterator_traitsIS5_E15difference_typeE, symObjAddr: 0x5CACC, symBinAddr: 0x1000CFB88, symSize: 0x240 }
  - { offsetInCU: 0x2B853, offset: 0xDD088, size: 0x8, addend: 0x0, symName: __ZNSt3__19__advanceB8ue170006IPNS_7__stateIcEEEEvRT_NS_15iterator_traitsIS4_E15difference_typeENS_26random_access_iterator_tagE, symObjAddr: 0x5CD44, symBinAddr: 0x1000CFE00, symSize: 0x80 }
  - { offsetInCU: 0x2B89E, offset: 0xDD0D3, size: 0x8, addend: 0x0, symName: __ZNSt3__119__allocator_destroyB8ue170006INS_9allocatorINS_7__stateIcEEEENS_16reverse_iteratorINS5_IPS3_EEEES8_EEvRT_T0_T1_, symObjAddr: 0x5D228, symBinAddr: 0x1000D02E4, symSize: 0x70 }
  - { offsetInCU: 0x2B902, offset: 0xDD137, size: 0x8, addend: 0x0, symName: __ZNSt3__1neB8ue170006INS_16reverse_iteratorIPNS_7__stateIcEEEES5_EEbRKNS1_IT_EERKNS1_IT0_EE, symObjAddr: 0x5D4E0, symBinAddr: 0x1000D059C, symSize: 0x2CC }
  - { offsetInCU: 0x2B950, offset: 0xDD185, size: 0x8, addend: 0x0, symName: __ZNSt3__112__to_addressB8ue170006INS_16reverse_iteratorINS1_IPNS_7__stateIcEEEEEEvEEu7__decayIDTclsr19__to_address_helperIT_EE6__callclsr3stdE7declvalIRKS7_EEEEES9_, symObjAddr: 0x5D7D4, symBinAddr: 0x1000D0890, symSize: 0x24 }
  - { offsetInCU: 0x2B986, offset: 0xDD1BB, size: 0x8, addend: 0x0, symName: __ZNSt3__110destroy_atB8ue170006INS_7__stateIcEELi0EEEvPT_, symObjAddr: 0x5DA34, symBinAddr: 0x1000D0AF0, symSize: 0x24 }
  - { offsetInCU: 0x2B9BD, offset: 0xDD1F2, size: 0x8, addend: 0x0, symName: __ZNSt3__112__destroy_atB8ue170006INS_7__stateIcEELi0EEEvPT_, symObjAddr: 0x5DA58, symBinAddr: 0x1000D0B14, symSize: 0x24 }
  - { offsetInCU: 0x2BA1E, offset: 0xDD253, size: 0x8, addend: 0x0, symName: __ZNSt3__14prevB8ue170006INS_16reverse_iteratorIPNS_7__stateIcEEEEEENS_9enable_ifIXsr29__has_input_iterator_categoryIT_EE5valueES7_E4typeES7_NS_15iterator_traitsIS7_E15difference_typeE, symObjAddr: 0x5DD60, symBinAddr: 0x1000D0E1C, symSize: 0x294 }
  - { offsetInCU: 0x2BA66, offset: 0xDD29B, size: 0x8, addend: 0x0, symName: __ZNSt3__19__advanceB8ue170006INS_16reverse_iteratorIPNS_7__stateIcEEEEEEvRT_NS_15iterator_traitsIS6_E15difference_typeENS_26random_access_iterator_tagE, symObjAddr: 0x5E02C, symBinAddr: 0x1000D10E8, symSize: 0x2C }
  - { offsetInCU: 0x2BAB1, offset: 0xDD2E6, size: 0x8, addend: 0x0, symName: __ZNSt3__112__to_addressB8ue170006INS_4pairImPKcEEEEPT_S6_, symObjAddr: 0x5FA80, symBinAddr: 0x1000D2B3C, symSize: 0x14 }
  - { offsetInCU: 0x2BAE5, offset: 0xDD31A, size: 0x8, addend: 0x0, symName: __ZNSt3__110destroy_atB8ue170006INS_4pairImPKcEELi0EEEvPT_, symObjAddr: 0x5FA94, symBinAddr: 0x1000D2B50, symSize: 0x24 }
  - { offsetInCU: 0x2BB1D, offset: 0xDD352, size: 0x8, addend: 0x0, symName: __ZNSt3__112__destroy_atB8ue170006INS_4pairImPKcEELi0EEEvPT_, symObjAddr: 0x5FAB8, symBinAddr: 0x1000D2B74, symSize: 0x10 }
  - { offsetInCU: 0x2BB53, offset: 0xDD388, size: 0x8, addend: 0x0, symName: __ZNSt3__142__uninitialized_allocator_move_if_noexceptB8ue170006INS_9allocatorINS_9sub_matchIPKcEEEENS_16reverse_iteratorIPS5_EES9_S9_EET2_RT_T0_T1_SA_, symObjAddr: 0x614B0, symBinAddr: 0x1000D456C, symSize: 0x544 }
  - { offsetInCU: 0x2BC08, offset: 0xDD43D, size: 0x8, addend: 0x0, symName: __ZNSt3__14swapB8ue170006IPNS_9sub_matchIPKcEEEENS_9enable_ifIXaasr21is_move_constructibleIT_EE5valuesr18is_move_assignableIS7_EE5valueEvE4typeERS7_SA_, symObjAddr: 0x61A8C, symBinAddr: 0x1000D4B48, symSize: 0x134 }
  - { offsetInCU: 0x2BC59, offset: 0xDD48E, size: 0x8, addend: 0x0, symName: __ZNSt3__122__make_exception_guardB8ue170006INS_29_AllocatorDestroyRangeReverseINS_9allocatorINS_9sub_matchIPKcEEEENS_16reverse_iteratorIPS6_EEEEEENS_28__exception_guard_exceptionsIT_EESD_, symObjAddr: 0x61BC0, symBinAddr: 0x1000D4C7C, symSize: 0x1F8 }
  - { offsetInCU: 0x2BC90, offset: 0xDD4C5, size: 0x8, addend: 0x0, symName: __ZNSt3__1neB8ue170006IPNS_9sub_matchIPKcEES5_EEbRKNS_16reverse_iteratorIT_EERKNS6_IT0_EE, symObjAddr: 0x61DFC, symBinAddr: 0x1000D4EB8, symSize: 0x48 }
  - { offsetInCU: 0x2BCDC, offset: 0xDD511, size: 0x8, addend: 0x0, symName: __ZNSt3__112__to_addressB8ue170006INS_16reverse_iteratorIPNS_9sub_matchIPKcEEEEvEEu7__decayIDTclsr19__to_address_helperIT_EE6__callclsr3stdE7declvalIRKS8_EEEEESA_, symObjAddr: 0x61E74, symBinAddr: 0x1000D4F30, symSize: 0x24 }
  - { offsetInCU: 0x2BD12, offset: 0xDD547, size: 0x8, addend: 0x0, symName: __ZNSt3__112construct_atB8ue170006INS_9sub_matchIPKcEEJS4_EPS4_EEPT_S7_DpOT0_, symObjAddr: 0x6220C, symBinAddr: 0x1000D52C8, symSize: 0x40 }
  - { offsetInCU: 0x2BDAC, offset: 0xDD5E1, size: 0x8, addend: 0x0, symName: __ZNSt3__14prevB8ue170006IPNS_9sub_matchIPKcEEEENS_9enable_ifIXsr29__has_input_iterator_categoryIT_EE5valueES7_E4typeES7_NS_15iterator_traitsIS7_E15difference_typeE, symObjAddr: 0x622FC, symBinAddr: 0x1000D53B8, symSize: 0x240 }
  - { offsetInCU: 0x2BDF4, offset: 0xDD629, size: 0x8, addend: 0x0, symName: __ZNSt3__19__advanceB8ue170006IPNS_9sub_matchIPKcEEEEvRT_NS_15iterator_traitsIS6_E15difference_typeENS_26random_access_iterator_tagE, symObjAddr: 0x62574, symBinAddr: 0x1000D5630, symSize: 0x80 }
  - { offsetInCU: 0x2BE3F, offset: 0xDD674, size: 0x8, addend: 0x0, symName: __ZNSt3__119__allocator_destroyB8ue170006INS_9allocatorINS_9sub_matchIPKcEEEENS_16reverse_iteratorINS7_IPS5_EEEESA_EEvRT_T0_T1_, symObjAddr: 0x62A58, symBinAddr: 0x1000D5B14, symSize: 0x70 }
  - { offsetInCU: 0x2BEA3, offset: 0xDD6D8, size: 0x8, addend: 0x0, symName: __ZNSt3__1neB8ue170006INS_16reverse_iteratorIPNS_9sub_matchIPKcEEEES7_EEbRKNS1_IT_EERKNS1_IT0_EE, symObjAddr: 0x62D10, symBinAddr: 0x1000D5DCC, symSize: 0x2CC }
  - { offsetInCU: 0x2BEF1, offset: 0xDD726, size: 0x8, addend: 0x0, symName: __ZNSt3__112__to_addressB8ue170006INS_16reverse_iteratorINS1_IPNS_9sub_matchIPKcEEEEEEvEEu7__decayIDTclsr19__to_address_helperIT_EE6__callclsr3stdE7declvalIRKS9_EEEEESB_, symObjAddr: 0x62FDC, symBinAddr: 0x1000D6098, symSize: 0x24 }
  - { offsetInCU: 0x2BF51, offset: 0xDD786, size: 0x8, addend: 0x0, symName: __ZNSt3__14prevB8ue170006INS_16reverse_iteratorIPNS_9sub_matchIPKcEEEEEENS_9enable_ifIXsr29__has_input_iterator_categoryIT_EE5valueES9_E4typeES9_NS_15iterator_traitsIS9_E15difference_typeE, symObjAddr: 0x63520, symBinAddr: 0x1000D65DC, symSize: 0x294 }
  - { offsetInCU: 0x2BF99, offset: 0xDD7CE, size: 0x8, addend: 0x0, symName: __ZNSt3__19__advanceB8ue170006INS_16reverse_iteratorIPNS_9sub_matchIPKcEEEEEEvRT_NS_15iterator_traitsIS8_E15difference_typeENS_26random_access_iterator_tagE, symObjAddr: 0x637EC, symBinAddr: 0x1000D68A8, symSize: 0x2C }
